///////////////////////////////////////////////////////////////////////////////
//
// IAR ANSI C/C++ Compiler V8.40.2.214/W32 for ARM        20/Apr/2021  18:22:09
// Copyright 1999-2019 IAR Systems AB.
//
//    Cpu mode     =  
//    Endian       =  little
//    Source file  =
//        C:\Users\@@@@@@@@\Documents\MyIARprojects\KursovoiK_\RtosWrapper\main.cpp
//    Command line =
//        -f C:\Users\D13C~1\AppData\Local\Temp\EW71A3.tmp
//        (C:\Users\@@@@@@@@\Documents\MyIARprojects\KursovoiK_\RtosWrapper\main.cpp
//        -lC
//        C:\Users\@@@@@@@@\Documents\MyIARprojects\KursovoiK_\RtosWrapper\Debug\List
//        -lA
//        C:\Users\@@@@@@@@\Documents\MyIARprojects\KursovoiK_\RtosWrapper\Debug\List
//        -o
//        C:\Users\@@@@@@@@\Documents\MyIARprojects\KursovoiK_\RtosWrapper\Debug\Obj
//        --no_cse --no_unroll --no_inline --no_code_motion --no_tbaa
//        --no_clustering --no_scheduling --debug --endian=little
//        --cpu=Cortex-M4 -e --fpu=VFPv4_sp --dlib_config "C:\Program Files
//        (x86)\IAR Systems\Embedded Workbench
//        8.3\arm\inc\c\DLib_Config_Normal.h" -I
//        C:\Users\@@@@@@@@\Documents\MyIARprojects\KursovoiK_\RtosWrapper\Rtos\
//        -I
//        C:\Users\@@@@@@@@\Documents\MyIARprojects\KursovoiK_\RtosWrapper\Rtos\wrapper\
//        -I
//        C:\Users\@@@@@@@@\Documents\MyIARprojects\KursovoiK_\RtosWrapper\Rtos\wrapper\FreeRtos\
//        -I
//        C:\Users\@@@@@@@@\Documents\MyIARprojects\KursovoiK_\RtosWrapper\Rtos\FreeRtos\
//        -I
//        C:\Users\@@@@@@@@\Documents\MyIARprojects\KursovoiK_\RtosWrapper\Rtos\FreeRtos\include\
//        -I
//        C:\Users\@@@@@@@@\Documents\MyIARprojects\KursovoiK_\RtosWrapper\Rtos\FreeRtos\portable\
//        -I
//        C:\Users\@@@@@@@@\Documents\MyIARprojects\KursovoiK_\RtosWrapper\Rtos\FreeRtos\portable\Common\
//        -I
//        C:\Users\@@@@@@@@\Documents\MyIARprojects\KursovoiK_\RtosWrapper\Rtos\FreeRtos\portable\IAR\
//        -I
//        C:\Users\@@@@@@@@\Documents\MyIARprojects\KursovoiK_\RtosWrapper\Rtos\FreeRtos\portable\IAR\ARM_CM4F\
//        -I
//        C:\Users\@@@@@@@@\Documents\MyIARprojects\KursovoiK_\RtosWrapper\Rtos\FreeRtos\portable\MemMang\
//        -I
//        C:\Users\@@@@@@@@\Documents\MyIARprojects\KursovoiK_\RtosWrapper\MyTasks\
//        -I
//        C:\Users\@@@@@@@@\Documents\MyIARprojects\KursovoiK_\RtosWrapper\Common\
//        -I
//        C:\Users\@@@@@@@@\Documents\MyIARprojects\KursovoiK_\RtosWrapper\CMSIS\
//        -I
//        C:\Users\@@@@@@@@\Documents\MyIARprojects\KursovoiK_\RtosWrapper\Application\
//        -I
//        C:\Users\@@@@@@@@\Documents\MyIARprojects\KursovoiK_\RtosWrapper\Application\Diagnostic\
//        -I
//        C:\Users\@@@@@@@@\Documents\MyIARprojects\KursovoiK_\RtosWrapper\AHardware\
//        -I
//        C:\Users\@@@@@@@@\Documents\MyIARprojects\KursovoiK_\RtosWrapper\AHardware\GpioPort\
//        -I
//        C:\Users\@@@@@@@@\Documents\MyIARprojects\KursovoiK_\RtosWrapper\AHardware\IrqController\
//        -I
//        C:\Users\@@@@@@@@\Documents\MyIARprojects\KursovoiK_\RtosWrapper\..\CortexLib\AbstractHardware\Pin\
//        -I
//        C:\Users\@@@@@@@@\Documents\MyIARprojects\KursovoiK_\RtosWrapper\..\CortexLib\AbstractHardware\Registers\STM32F411\FieldValues\
//        -I
//        C:\Users\@@@@@@@@\Documents\MyIARprojects\KursovoiK_\RtosWrapper\..\CortexLib\AbstractHardware\Registers\STM32F411\
//        -I
//        C:\Users\@@@@@@@@\Documents\MyIARprojects\KursovoiK_\RtosWrapper\..\CortexLib\AbstractHardware\Registers\
//        -I
//        C:\Users\@@@@@@@@\Documents\MyIARprojects\KursovoiK_\RtosWrapper\..\CortexLib\AbstractHardware\Port\
//        -I
//        C:\Users\@@@@@@@@\Documents\MyIARprojects\KursovoiK_\RtosWrapper\..\CortexLib\AbstractHardware\Atomic\
//        -I
//        C:\Users\@@@@@@@@\Documents\MyIARprojects\KursovoiK_\RtosWrapper\..\CortexLib\Common\
//        -I
//        C:\Users\@@@@@@@@\Documents\MyIARprojects\KursovoiK_\RtosWrapper\..\CortexLib\Common\Singleton\
//        -I
//        C:\Users\@@@@@@@@\Documents\MyIARprojects\KursovoiK_\RtosWrapper\..\CortexLib\Common\RomObject\
//        -I
//        C:\Users\@@@@@@@@\Documents\MyIARprojects\KursovoiK_\RtosWrapper\AHardware\Port\
//        -I
//        C:\Users\@@@@@@@@\Documents\MyIARprojects\KursovoiK_\RtosWrapper\AHardware\Pin\
//        -I
//        C:\Users\@@@@@@@@\Documents\MyIARprojects\KursovoiK_\RtosWrapper\Application\Button\
//        -I
//        C:\Users\@@@@@@@@\Documents\MyIARprojects\KursovoiK_\RtosWrapper\Application\Led\
//        -I
//        C:\Users\@@@@@@@@\Documents\MyIARprojects\KursovoiK_\RtosWrapper\Application\Measurement\
//        -I
//        C:\Users\@@@@@@@@\Documents\MyIARprojects\KursovoiK_\RtosWrapper\AHardware\USART\
//        -I
//        C:\Users\@@@@@@@@\Documents\MyIARprojects\KursovoiK_\RtosWrapper\..\CortexLib\AbstractHardware\Registers\CortexM4\
//        -I
//        C:\Users\@@@@@@@@\Documents\MyIARprojects\KursovoiK_\RtosWrapper\..\CortexLib\AbstractHardware\Registers\CortexM4\FieldValues\
//        -I
//        C:\Users\@@@@@@@@\Documents\MyIARprojects\KursovoiK_\RtosWrapper\AHardware\SPI\
//        -I
//        C:\Users\@@@@@@@@\Documents\MyIARprojects\KursovoiK_\RtosWrapper\AHardware\BME280Driver\
//        -I
//        C:\Users\@@@@@@@@\Documents\MyIARprojects\KursovoiK_\RtosWrapper\AHardware\EPDDriver\
//        -On --c++ --no_exceptions --no_rtti)
//    Locale       =  C
//    List file    =
//        C:\Users\@@@@@@@@\Documents\MyIARprojects\KursovoiK_\RtosWrapper\Debug\List\main.s
//
///////////////////////////////////////////////////////////////////////////////

        RTMODEL "__CPP_Exceptions", "Disabled"
        RTMODEL "__CPP_Language", "C++14"
        RTMODEL "__SystemLibrary", "DLib"
        RTMODEL "__dlib_file_descriptor", "0"
        RTMODEL "__dlib_full_locale_support", "0"
        RTMODEL "__dlib_version", "6"
        RTMODEL "__iar_require _Printf", "floats,widths"
        AAPCS BASE,INTERWORK,VFP
        PRESERVE8
        REQUIRE8

        #define SHT_PROGBITS 0x1
        #define SHT_INIT_ARRAY 0xe

        EXTERN _ZTVN10__cxxabiv117__class_type_infoE
        EXTERN _ZTVN10__cxxabiv120__si_class_type_infoE
        EXTERN _ZdlPv
        EXTERN _Znwj
        EXTERN __aeabi_assert
        EXTERN __aeabi_atexit
        EXTERN __aeabi_d2f
        EXTERN __aeabi_dadd
        EXTERN __aeabi_ddiv
        EXTERN __aeabi_dmul
        EXTERN __aeabi_f2d
        EXTERN __aeabi_l2f
        EXTERN __aeabi_ldivmod
        EXTERN __aeabi_memcpy
        EXTERN __aeabi_memmove
        EXTERN __aeabi_memset
        EXTERN __aeabi_uldivmod
        EXTERN __dso_handle
        EXTWEAK __iar_EmptyStepPoint
        EXTERN __iar_Raise_len
        EXTERN __iar_Raise_ran
        EXTERN logf
        EXTERN sprintf
        EXTERN strlen
        EXTERN strncat
        EXTERN vEventGroupDelete
        EXTERN vEventGroupSetBitsCallback
        EXTERN vTaskDelay
        EXTERN vTaskStartScheduler
        EXTERN xEventGroupCreateStatic
        EXTERN xEventGroupWaitBits
        EXTERN xTaskCreateStatic
        EXTERN xTaskGetTickCount
        EXTERN xTimerPendFunctionCallFromISR

        PUBLIC SysCtlDelay
        PUBLIC SystemCoreClock
        PUBLIC _Z6fcnHumv
        PUBLIC _Z7fcnDewPv
        PUBLIC _Z7fcnTempv
        PUBLIC _Z8fcnPressv
        PUBLIC _ZGV11temperature
        PUBLIC _ZGV20bluetoothTransceiver
        PUBLIC _ZGV6bme280
        PUBLIC _ZGV8dewPoint
        PUBLIC _ZGV8humidity
        PUBLIC _ZGV8pressure
        PUBLIC _ZGV9epDisplay
        PUBLIC _ZN11Measurement12ShowUnitNameE4Unit
        PUBLIC _ZN11Measurement8GetValueE4Unit
        PUBLIC _ZN11Measurement8GetValueEv
        PUBLIC _ZN11Measurement9CheckUnitE4Unit
        PUBLIC _ZN11MeasurementC1ESs4UnitPFdvE
        PUBLIC _ZN11MeasurementC1ESsP4UnitjS0_PFdvE
        PUBLIC _ZN11MeasurementC2ESsP4UnitjS0_PFdvE
        PUBLIC _ZN11MeasurementD1Ev
        PUBLIC _ZN11MeasurementD2Ev
        PUBLIC _ZN11Temperature8GetValueE4Unit
        PUBLIC _ZN11Temperature8GetValueEv
        PUBLIC _ZN11TemperatureC1ESsPFdvE
        PUBLIC _ZN11TemperatureD1Ev
        PUBLIC _ZN11usartDriverI6usart2E11SendMessageEPcj
        PUBLIC _ZN11usartDriverI6usart2EC1Ev
        PUBLIC _ZN12BME280DriverIL_Z15spi2TransceiverE3PinI4PortI5GPIOCELh6EEE12CalcDewPointEv
        PUBLIC _ZN12BME280DriverIL_Z15spi2TransceiverE3PinI4PortI5GPIOCELh6EEE12ReadHumidityEv
        PUBLIC _ZN12BME280DriverIL_Z15spi2TransceiverE3PinI4PortI5GPIOCELh6EEE12ReadPressureEv
        PUBLIC _ZN12BME280DriverIL_Z15spi2TransceiverE3PinI4PortI5GPIOCELh6EEE12ReadRegisterEc
        PUBLIC _ZN12BME280DriverIL_Z15spi2TransceiverE3PinI4PortI5GPIOCELh6EEE13CircuitSelectEv
        PUBLIC _ZN12BME280DriverIL_Z15spi2TransceiverE3PinI4PortI5GPIOCELh6EEE13WriteRegisterEcc
        PUBLIC _ZN12BME280DriverIL_Z15spi2TransceiverE3PinI4PortI5GPIOCELh6EEE15CircuitDeselectEv
        PUBLIC _ZN12BME280DriverIL_Z15spi2TransceiverE3PinI4PortI5GPIOCELh6EEE15ReadTemperatureEv
        PUBLIC _ZN12BME280DriverIL_Z15spi2TransceiverE3PinI4PortI5GPIOCELh6EEE17StartMeasurementsEv
        PUBLIC _ZN12BME280DriverIL_Z15spi2TransceiverE3PinI4PortI5GPIOCELh6EEE19ReadSpanOfRegistersEcPcj
        PUBLIC _ZN12BME280DriverIL_Z15spi2TransceiverE3PinI4PortI5GPIOCELh6EEE23InitializeCalibrateDataEv
        PUBLIC _ZN12BME280DriverIL_Z15spi2TransceiverE3PinI4PortI5GPIOCELh6EEE7MeasureEv
        PUBLIC _ZN12BME280DriverIL_Z15spi2TransceiverE3PinI4PortI5GPIOCELh6EEEC1Ev
        PUBLIC _ZN12GlobalStatus7actionsE
        PUBLIC _ZN12RegisterBaseILj1073759236ELj32E13ReadWriteModeE5WriteIS0_vEEvj
        PUBLIC _ZN12RegisterBaseILj1073872896ELj32E13ReadWriteModeE3GetIS0_vEEjv
        PUBLIC _ZN12RegisterBaseILj1073872896ELj32E13ReadWriteModeE5WriteIS0_vEEvj
        PUBLIC _ZN12RegisterBaseILj1073872916ELj32E13ReadWriteModeE6ToggleIS0_vEEvj
        PUBLIC _ZN12RegisterBaseILj1073873936ELj32E8ReadModeE3GetIS0_vEEjv
        PUBLIC _ZN12RegisterBaseILj1073873944ELj32E9WriteModeE5WriteIS0_vEEvj
        PUBLIC _ZN12RegisterBaseILj1073874944ELj32E13ReadWriteModeE3GetIS0_vEEjv
        PUBLIC _ZN12RegisterBaseILj1073874944ELj32E13ReadWriteModeE5WriteIS0_vEEvj
        PUBLIC _ZN12RegisterBaseILj1073874960ELj32E8ReadModeE3GetIS0_vEEjv
        PUBLIC _ZN12RegisterBaseILj1073874964ELj32E13ReadWriteModeE6ToggleIS0_vEEvj
        PUBLIC _ZN12RegisterBaseILj1073874968ELj32E9WriteModeE5WriteIS0_vEEvj
        PUBLIC _ZN12RegisterBaseILj3758153988ELj32E13ReadWriteModeE5WriteIS0_vEEvj
        PUBLIC _ZN13BluetoothTask7ExecuteEv
        PUBLIC _ZN13BluetoothTaskC1Ev
        PUBLIC _ZN13RegisterFieldIN6USART23BRRELj4ELj12E13ReadWriteModevE3SetIS2_vEEvj
        PUBLIC _ZN13RegisterFieldIN6USART23CR1ELj15ELj1E13ReadWriteModevE3GetIS2_vEEjv
        PUBLIC _ZN14FieldValueBaseI18RCC_CFGR_SW_ValuesIN3RCC4CFGRELj0ELj2E13ReadWriteModeNS1_11RCCCFGRBaseEES4_Lj0EE3SetIS3_vEEvv
        PUBLIC _ZN14FieldValueBaseI18SPI1_CR1_BR_ValuesIN4SPI13CR1ELj3ELj3E13ReadWriteModeNS1_11SPI1CR1BaseEES4_Lj5EE3SetIS3_vEEvv
        PUBLIC _ZN14FieldValueBaseI18SPI2_CR1_BR_ValuesIN4SPI23CR1ELj3ELj3E13ReadWriteModeNS1_11SPI2CR1BaseEES4_Lj0EE3SetIS3_vEEvv
        PUBLIC _ZN14FieldValueBaseI19RCC_CFGR_SWS_ValuesIN3RCC4CFGRELj2ELj2E8ReadModeNS1_11RCCCFGRBaseEES4_Lj0EE5IsSetIS3_vEEbv
        PUBLIC _ZN14FieldValueBaseI19RCC_CR_HSION_ValuesIN3RCC2CRELj0ELj1E13ReadWriteModeNS1_9RCCCRBaseEES4_Lj1EE3SetIS3_vEEvv
        PUBLIC _ZN14FieldValueBaseI19SPI1_CR1_DFF_ValuesIN4SPI13CR1ELj11ELj1E13ReadWriteModeNS1_11SPI1CR1BaseEES4_Lj0EE3SetIS3_vEEvv
        PUBLIC _ZN14FieldValueBaseI19SPI1_CR1_SPE_ValuesIN4SPI13CR1ELj6ELj1E13ReadWriteModeNS1_11SPI1CR1BaseEES4_Lj1EE3SetIS3_vEEvv
        PUBLIC _ZN14FieldValueBaseI19SPI1_CR1_SSI_ValuesIN4SPI13CR1ELj8ELj1E13ReadWriteModeNS1_11SPI1CR1BaseEES4_Lj1EE3SetIS3_vEEvv
        PUBLIC _ZN14FieldValueBaseI19SPI1_CR1_SSM_ValuesIN4SPI13CR1ELj9ELj1E13ReadWriteModeNS1_11SPI1CR1BaseEES4_Lj1EE3SetIS3_vEEvv
        PUBLIC _ZN14FieldValueBaseI19SPI2_CR1_DFF_ValuesIN4SPI23CR1ELj11ELj1E13ReadWriteModeNS1_11SPI2CR1BaseEES4_Lj0EE3SetIS3_vEEvv
        PUBLIC _ZN14FieldValueBaseI19SPI2_CR1_SPE_ValuesIN4SPI23CR1ELj6ELj1E13ReadWriteModeNS1_11SPI2CR1BaseEES4_Lj1EE3SetIS3_vEEvv
        PUBLIC _ZN14FieldValueBaseI19SPI2_CR1_SSI_ValuesIN4SPI23CR1ELj8ELj1E13ReadWriteModeNS1_11SPI2CR1BaseEES4_Lj1EE3SetIS3_vEEvv
        PUBLIC _ZN14FieldValueBaseI19SPI2_CR1_SSM_ValuesIN4SPI23CR1ELj9ELj1E13ReadWriteModeNS1_11SPI2CR1BaseEES4_Lj1EE3SetIS3_vEEvv
        PUBLIC _ZN14FieldValueBaseI19USART2_CR1_M_ValuesIN6USART23CR1ELj12ELj1E13ReadWriteModeNS1_13USART2CR1BaseEES4_Lj0EE3SetIS3_vEEvv
        PUBLIC _ZN14FieldValueBaseI20RCC_CR_HSIRDY_ValuesIN3RCC2CRELj1ELj1E8ReadModeNS1_9RCCCRBaseEES4_Lj0EE5IsSetIS3_vEEbv
        PUBLIC _ZN14FieldValueBaseI20SPI1_CR1_CPHA_ValuesIN4SPI13CR1ELj0ELj1E13ReadWriteModeNS1_11SPI1CR1BaseEES4_Lj0EE3SetIS3_vEEvv
        PUBLIC _ZN14FieldValueBaseI20SPI1_CR1_CPOL_ValuesIN4SPI13CR1ELj1ELj1E13ReadWriteModeNS1_11SPI1CR1BaseEES4_Lj0EE3SetIS3_vEEvv
        PUBLIC _ZN14FieldValueBaseI20SPI1_CR1_MSTR_ValuesIN4SPI13CR1ELj2ELj1E13ReadWriteModeNS1_11SPI1CR1BaseEES4_Lj1EE3SetIS3_vEEvv
        PUBLIC _ZN14FieldValueBaseI20SPI1_CR2_SSOE_ValuesIN4SPI13CR2ELj2ELj1E13ReadWriteModeNS1_11SPI1CR2BaseEES4_Lj1EE3SetIS3_vEEvv
        PUBLIC _ZN14FieldValueBaseI20SPI2_CR1_CPHA_ValuesIN4SPI23CR1ELj0ELj1E13ReadWriteModeNS1_11SPI2CR1BaseEES4_Lj1EE3SetIS3_vEEvv
        PUBLIC _ZN14FieldValueBaseI20SPI2_CR1_CPOL_ValuesIN4SPI23CR1ELj1ELj1E13ReadWriteModeNS1_11SPI2CR1BaseEES4_Lj1EE3SetIS3_vEEvv
        PUBLIC _ZN14FieldValueBaseI20SPI2_CR1_MSTR_ValuesIN4SPI23CR1ELj2ELj1E13ReadWriteModeNS1_11SPI2CR1BaseEES4_Lj1EE3SetIS3_vEEvv
        PUBLIC _ZN14FieldValueBaseI20SPI2_CR2_SSOE_ValuesIN4SPI23CR2ELj2ELj1E13ReadWriteModeNS1_11SPI2CR2BaseEES4_Lj1EE3SetIS3_vEEvv
        PUBLIC _ZN14FieldValueBaseI20USART2_CR1_RE_ValuesIN6USART23CR1ELj2ELj1E13ReadWriteModeNS1_13USART2CR1BaseEES4_Lj1EE3SetIS3_vEEvv
        PUBLIC _ZN14FieldValueBaseI20USART2_CR1_TE_ValuesIN6USART23CR1ELj3ELj1E13ReadWriteModeNS1_13USART2CR1BaseEES4_Lj1EE3SetIS3_vEEvv
        PUBLIC _ZN14FieldValueBaseI20USART2_CR1_UE_ValuesIN6USART23CR1ELj13ELj1E13ReadWriteModeNS1_13USART2CR1BaseEES4_Lj1EE3SetIS3_vEEvv
        PUBLIC _ZN14FieldValueBaseI21SPI1_CR1_CRCEN_ValuesIN4SPI13CR1ELj13ELj1E13ReadWriteModeNS1_11SPI1CR1BaseEES4_Lj0EE3SetIS3_vEEvv
        PUBLIC _ZN14FieldValueBaseI21SPI1_CR2_TXEIE_ValuesIN4SPI13CR2ELj7ELj1E13ReadWriteModeNS1_11SPI1CR2BaseEES4_Lj1EE3SetIS3_vEEvv
        PUBLIC _ZN14FieldValueBaseI21SPI2_CR1_CRCEN_ValuesIN4SPI23CR1ELj13ELj1E13ReadWriteModeNS1_11SPI2CR1BaseEES4_Lj0EE3SetIS3_vEEvv
        PUBLIC _ZN14FieldValueBaseI21SPI2_CR2_TXEIE_ValuesIN4SPI23CR2ELj7ELj1E13ReadWriteModeNS1_11SPI2CR2BaseEES4_Lj1EE3SetIS3_vEEvv
        PUBLIC _ZN14FieldValueBaseI21USART2_CR1_PCE_ValuesIN6USART23CR1ELj10ELj1E13ReadWriteModeNS1_13USART2CR1BaseEES4_Lj0EE3SetIS3_vEEvv
        PUBLIC _ZN14FieldValueBaseI22SPI1_CR2_RXNEIE_ValuesIN4SPI13CR2ELj6ELj1E13ReadWriteModeNS1_11SPI1CR2BaseEES4_Lj1EE3SetIS3_vEEvv
        PUBLIC _ZN14FieldValueBaseI22SPI2_CR2_RXNEIE_ValuesIN4SPI23CR2ELj6ELj1E13ReadWriteModeNS1_11SPI2CR2BaseEES4_Lj1EE3SetIS3_vEEvv
        PUBLIC _ZN14FieldValueBaseI22USART2_CR2_STOP_ValuesIN6USART23CR2ELj12ELj2E13ReadWriteModeNS1_13USART2CR2BaseEES4_Lj0EE3SetIS3_vEEvv
        PUBLIC _ZN14FieldValueBaseI23GPIOA_AFRL_AFRL7_ValuesIN5GPIOA4AFRLELj12ELj4E13ReadWriteModeNS1_13GPIOAAFRLBaseEES4_Lj7EE3SetIS3_vEEvv
        PUBLIC _ZN14FieldValueBaseI23GPIOA_AFRL_AFRL7_ValuesIN5GPIOA4AFRLELj8ELj4E13ReadWriteModeNS1_13GPIOAAFRLBaseEES4_Lj7EE3SetIS3_vEEvv
        PUBLIC _ZN14FieldValueBaseI23USART2_CR1_OVER8_ValuesIN6USART23CR1ELj15ELj1E13ReadWriteModeNS1_13USART2CR1BaseEES4_Lj0EE3SetIS3_vEEvv
        PUBLIC _ZN14FieldValueBaseI23USART2_CR1_TXEIE_ValuesIN6USART23CR1ELj7ELj1E13ReadWriteModeNS1_13USART2CR1BaseEES4_Lj1EE3SetIS3_vEEvv
        PUBLIC _ZN14FieldValueBaseI24SPI1_CR1_LSBFIRST_ValuesIN4SPI13CR1ELj7ELj1E13ReadWriteModeNS1_11SPI1CR1BaseEES4_Lj0EE3SetIS3_vEEvv
        PUBLIC _ZN14FieldValueBaseI24SPI2_CR1_LSBFIRST_ValuesIN4SPI23CR1ELj7ELj1E13ReadWriteModeNS1_11SPI2CR1BaseEES4_Lj0EE3SetIS3_vEEvv
        PUBLIC _ZN14FieldValueBaseI24USART2_CR1_RXNEIE_ValuesIN6USART23CR1ELj5ELj1E13ReadWriteModeNS1_13USART2CR1BaseEES4_Lj1EE3SetIS3_vEEvv
        PUBLIC _ZN14FieldValueBaseI25RCC_AHB1ENR_DMA2EN_ValuesIN3RCC7APB1ENRELj14ELj1E13ReadWriteModeNS1_14RCCAPB1ENRBaseEES4_Lj1EE3SetIS3_vEEvv
        PUBLIC _ZN14FieldValueBaseI25RCC_AHB1ENR_DMA2EN_ValuesIN3RCC7APB1ENRELj17ELj1E13ReadWriteModeNS1_14RCCAPB1ENRBaseEES4_Lj1EE3SetIS3_vEEvv
        PUBLIC _ZN14FieldValueBaseI25RCC_AHB1ENR_DMA2EN_ValuesIN3RCC7APB2ENRELj12ELj1E13ReadWriteModeNS1_14RCCAPB2ENRBaseEES4_Lj1EE3SetIS3_vEEvv
        PUBLIC _ZN14FieldValueBaseI26GPIOA_MODER_MODER15_ValuesIN5GPIOA5MODERELj4ELj2E13ReadWriteModeNS1_14GPIOAMODERBaseEES4_Lj2EE3SetIS3_vEEvv
        PUBLIC _ZN14FieldValueBaseI26GPIOA_MODER_MODER15_ValuesIN5GPIOA5MODERELj6ELj2E13ReadWriteModeNS1_14GPIOAMODERBaseEES4_Lj2EE3SetIS3_vEEvv
        PUBLIC _ZN14FieldValueBaseI26GPIOA_PUPDR_PUPDR15_ValuesIN5GPIOA5PUPDRELj4ELj2E13ReadWriteModeNS1_14GPIOAPUPDRBaseEES4_Lj0EE3SetIS3_vEEvv
        PUBLIC _ZN14FieldValueBaseI26GPIOA_PUPDR_PUPDR15_ValuesIN5GPIOA5PUPDRELj6ELj2E13ReadWriteModeNS1_14GPIOAPUPDRBaseEES4_Lj1EE3SetIS3_vEEvv
        PUBLIC _ZN14FieldValueBaseI26GPIOB_MODER_MODER15_ValuesIN5GPIOB5MODERELj26ELj2E13ReadWriteModeNS1_14GPIOBMODERBaseEES4_Lj1EE3SetIS3_vEEvv
        PUBLIC _ZN14FieldValueBaseI26GPIOB_MODER_MODER15_ValuesIN5GPIOB5MODERELj28ELj2E13ReadWriteModeNS1_14GPIOBMODERBaseEES4_Lj1EE3SetIS3_vEEvv
        PUBLIC _ZN14FieldValueBaseI26GPIOB_MODER_MODER15_ValuesIN5GPIOB5MODERELj2ELj2E13ReadWriteModeNS1_14GPIOBMODERBaseEES4_Lj0EE3SetIS3_vEEvv
        PUBLIC _ZN14FieldValueBaseI26GPIOB_MODER_MODER15_ValuesIN5GPIOB5MODERELj30ELj2E13ReadWriteModeNS1_14GPIOBMODERBaseEES4_Lj1EE3SetIS3_vEEvv
        PUBLIC _ZN14FieldValueBaseI26GPIOC_MODER_MODER15_ValuesIN5GPIOC5MODERELj12ELj2E13ReadWriteModeNS1_14GPIOCMODERBaseEES4_Lj1EE3SetIS3_vEEvv
        PUBLIC _ZN14FieldValueBaseI26RCC_AHB1ENR_GPIOAEN_ValuesIN3RCC7AHB1ENRELj0ELj1E13ReadWriteModeNS1_14RCCAHB1ENRBaseEES4_Lj1EE3SetIS3_vEEvv
        PUBLIC _ZN14FieldValueBaseI26RCC_AHB1ENR_GPIOAEN_ValuesIN3RCC7AHB1ENRELj0ELj1E13ReadWriteModeNS1_14RCCAHB1ENRBaseEES4_Lj1EE5IsSetIS3_vEEbv
        PUBLIC _ZN14FieldValueBaseI26RCC_AHB1ENR_GPIOCEN_ValuesIN3RCC7AHB1ENRELj2ELj1E13ReadWriteModeNS1_14RCCAHB1ENRBaseEES4_Lj1EE3SetIS3_vEEvv
        PUBLIC _ZN14FieldValueBaseI26RCC_AHB1ENR_GPIOCEN_ValuesIN3RCC7AHB1ENRELj2ELj1E13ReadWriteModeNS1_14RCCAHB1ENRBaseEES4_Lj1EE5IsSetIS3_vEEbv
        PUBLIC _ZN15ButtonEventTaskI6ButtonI3PinI4PortI5GPIOCELh13EEEL_Z5eventEE7ExecuteEv
        PUBLIC _ZN15ButtonEventTaskI6ButtonI3PinI4PortI5GPIOCELh13EEEL_Z5eventEEC1Ev
        PUBLIC _ZN15EPDDriver4inch2IL_Z15spi1TransceiverE3PinI4PortI5GPIOBELh13EES0_IS3_Lh14EES0_IS3_Lh15EES0_IS3_Lh1EEE11SendCommandEc
        PUBLIC _ZN15EPDDriver4inch2IL_Z15spi1TransceiverE3PinI4PortI5GPIOBELh13EES0_IS3_Lh14EES0_IS3_Lh15EES0_IS3_Lh1EEE13CircuitSelectEv
        PUBLIC _ZN15EPDDriver4inch2IL_Z15spi1TransceiverE3PinI4PortI5GPIOBELh13EES0_IS3_Lh14EES0_IS3_Lh15EES0_IS3_Lh1EEE13TurnOnDisplayEv
        PUBLIC _ZN15EPDDriver4inch2IL_Z15spi1TransceiverE3PinI4PortI5GPIOBELh13EES0_IS3_Lh14EES0_IS3_Lh15EES0_IS3_Lh1EEE15CircuitDeselectEv
        PUBLIC _ZN15EPDDriver4inch2IL_Z15spi1TransceiverE3PinI4PortI5GPIOBELh13EES0_IS3_Lh14EES0_IS3_Lh15EES0_IS3_Lh1EEE4DataEv
        PUBLIC _ZN15EPDDriver4inch2IL_Z15spi1TransceiverE3PinI4PortI5GPIOBELh13EES0_IS3_Lh14EES0_IS3_Lh15EES0_IS3_Lh1EEE4InitEv
        PUBLIC _ZN15EPDDriver4inch2IL_Z15spi1TransceiverE3PinI4PortI5GPIOBELh13EES0_IS3_Lh14EES0_IS3_Lh15EES0_IS3_Lh1EEE5ClearEv
        PUBLIC _ZN15EPDDriver4inch2IL_Z15spi1TransceiverE3PinI4PortI5GPIOBELh13EES0_IS3_Lh14EES0_IS3_Lh15EES0_IS3_Lh1EEE5ResetEv
        PUBLIC _ZN15EPDDriver4inch2IL_Z15spi1TransceiverE3PinI4PortI5GPIOBELh13EES0_IS3_Lh14EES0_IS3_Lh15EES0_IS3_Lh1EEE7CommandEv
        PUBLIC _ZN15EPDDriver4inch2IL_Z15spi1TransceiverE3PinI4PortI5GPIOBELh13EES0_IS3_Lh14EES0_IS3_Lh15EES0_IS3_Lh1EEE8Delay_msEy
        PUBLIC _ZN15EPDDriver4inch2IL_Z15spi1TransceiverE3PinI4PortI5GPIOBELh13EES0_IS3_Lh14EES0_IS3_Lh15EES0_IS3_Lh1EEE8ReadBusyEv
        PUBLIC _ZN15EPDDriver4inch2IL_Z15spi1TransceiverE3PinI4PortI5GPIOBELh13EES0_IS3_Lh14EES0_IS3_Lh15EES0_IS3_Lh1EEE8SendDataEc
        PUBLIC _ZN15EPDDriver4inch2IL_Z15spi1TransceiverE3PinI4PortI5GPIOBELh13EES0_IS3_Lh14EES0_IS3_Lh15EES0_IS3_Lh1EEEC1Ev
        PUBLIC _ZN15MeasurementTask11UnitsUpdateEv
        PUBLIC _ZN15MeasurementTask7ExecuteEv
        PUBLIC _ZN15MeasurementTaskC1ERN9OsWrapper5EventE
        PUBLIC _ZN16Exh001ActionBase2DoEv
        PUBLIC _ZN3LedI3PinI4PortI5GPIOAELh5EEE6EnableEv
        PUBLIC _ZN3LedI3PinI4PortI5GPIOAELh5EEE6ToggleEv
        PUBLIC _ZN3LedI3PinI4PortI5GPIOCELh9EEE6EnableEv
        PUBLIC _ZN3LedI3PinI4PortI5GPIOCELh9EEE6ToggleEv
        PUBLIC _ZN3PinI4PortI5GPIOAELh5EE16SelectOutputModeEv
        PUBLIC _ZN3PinI4PortI5GPIOAELh5EE6EnableEv
        PUBLIC _ZN3PinI4PortI5GPIOAELh5EE6ToggleEv
        PUBLIC _ZN3PinI4PortI5GPIOBELh13EE3SetEv
        PUBLIC _ZN3PinI4PortI5GPIOBELh13EE5ResetEv
        PUBLIC _ZN3PinI4PortI5GPIOBELh14EE3SetEv
        PUBLIC _ZN3PinI4PortI5GPIOBELh14EE5ResetEv
        PUBLIC _ZN3PinI4PortI5GPIOBELh15EE3SetEv
        PUBLIC _ZN3PinI4PortI5GPIOBELh15EE5ResetEv
        PUBLIC _ZN3PinI4PortI5GPIOBELh1EE5IsSetEv
        PUBLIC _ZN3PinI4PortI5GPIOCELh13EE15SelectInputModeEv
        PUBLIC _ZN3PinI4PortI5GPIOCELh13EE5IsSetEv
        PUBLIC _ZN3PinI4PortI5GPIOCELh13EE6EnableEv
        PUBLIC _ZN3PinI4PortI5GPIOCELh6EE3SetEv
        PUBLIC _ZN3PinI4PortI5GPIOCELh6EE5ResetEv
        PUBLIC _ZN3PinI4PortI5GPIOCELh9EE16SelectOutputModeEv
        PUBLIC _ZN3PinI4PortI5GPIOCELh9EE6EnableEv
        PUBLIC _ZN3PinI4PortI5GPIOCELh9EE6ToggleEv
        PUBLIC _ZN3SPII4SPI1L_Z15spi1TransceiverEE32TransmiteBufEmptyInterruptEnableEv
        PUBLIC _ZN3SPII4SPI1L_Z15spi1TransceiverEE33ReceiveBufNotEmptyInterruptEnableEv
        PUBLIC _ZN3SPII4SPI2L_Z15spi2TransceiverEE32TransmiteBufEmptyInterruptEnableEv
        PUBLIC _ZN3SPII4SPI2L_Z15spi2TransceiverEE33ReceiveBufNotEmptyInterruptEnableEv
        PUBLIC _ZN4PortI5GPIOAE6EnableEv
        PUBLIC _ZN4PortI5GPIOAE6ToggleEh
        PUBLIC _ZN4PortI5GPIOAE7ModeSetEh5Moder
        PUBLIC _ZN4PortI5GPIOAE8IsEnableEv
        PUBLIC _ZN4PortI5GPIOBE3SetEj
        PUBLIC _ZN4PortI5GPIOBE5IsSetEh
        PUBLIC _ZN4PortI5GPIOBE5ResetEj
        PUBLIC _ZN4PortI5GPIOCE3SetEj
        PUBLIC _ZN4PortI5GPIOCE5IsSetEh
        PUBLIC _ZN4PortI5GPIOCE5ResetEj
        PUBLIC _ZN4PortI5GPIOCE6EnableEv
        PUBLIC _ZN4PortI5GPIOCE6ToggleEh
        PUBLIC _ZN4PortI5GPIOCE7ModeSetEh5Moder
        PUBLIC _ZN4PortI5GPIOCE8IsEnableEv
        PUBLIC _ZN5USARTI6USART2L_Z20bluetoothTransceiverEE15TransmiteEnableEv
        PUBLIC _ZN5USARTI6USART2L_Z20bluetoothTransceiverEE32TransmiteBufEmptyInterruptEnableEv
        PUBLIC _ZN5USARTI6USART2L_Z20bluetoothTransceiverEE8SendByteEh
        PUBLIC _ZN6ButtonI3PinI4PortI5GPIOCELh13EEE10WasPressedEv
        PUBLIC _ZN6ButtonI3PinI4PortI5GPIOCELh13EEE6EnableEv
        PUBLIC _ZN8RegisterILj1073873920ELj32E13ReadWriteModeN5GPIOB14GPIOBMODERBaseEJ10FieldValueI26GPIOB_MODER_MODER15_ValuesINS1_5MODERELj6ELj2ES0_S2_ES2_Lj2EvES3_IS4_IS5_Lj8ELj2ES0_S2_ES2_Lj2EvES3_IS4_IS5_Lj10ELj2ES0_S2_ES2_Lj2EvEEE3SetIS0_vEEvv
        PUBLIC _ZN8RegisterILj1073873952ELj32E13ReadWriteModeN5GPIOB13GPIOBAFRLBaseEJ10FieldValueI23GPIOB_AFRL_AFRL7_ValuesINS1_4AFRLELj12ELj4ES0_S2_ES2_Lj5EvES3_IS4_IS5_Lj16ELj4ES0_S2_ES2_Lj5EvES3_IS4_IS5_Lj20ELj4ES0_S2_ES2_Lj5EvEEE3SetIS0_vEEvv
        PUBLIC _ZN8RegisterILj1073874944ELj32E13ReadWriteModeN5GPIOC14GPIOCMODERBaseEJ10FieldValueI26GPIOC_MODER_MODER15_ValuesINS1_5MODERELj4ELj2ES0_S2_ES2_Lj2EvES3_IS4_IS5_Lj6ELj2ES0_S2_ES2_Lj2EvES3_IS4_IS5_Lj14ELj2ES0_S2_ES2_Lj2EvEEE3SetIS0_vEEvv
        PUBLIC _ZN8RegisterILj1073874976ELj32E13ReadWriteModeN5GPIOC13GPIOCAFRLBaseEJ10FieldValueI23GPIOC_AFRL_AFRL7_ValuesINS1_4AFRLELj8ELj4ES0_S2_ES2_Lj5EvES3_IS4_IS5_Lj12ELj4ES0_S2_ES2_Lj5EvES3_IS4_IS5_Lj28ELj4ES0_S2_ES2_Lj5EvEEE3SetIS0_vEEvv
        PUBLIC _ZN8RegisterILj1073887280ELj32E13ReadWriteModeN3RCC14RCCAHB1ENRBaseEJ10FieldValueI26RCC_AHB1ENR_GPIOCEN_ValuesINS1_7AHB1ENRELj2ELj1ES0_S2_ES2_Lj1EvES3_I26RCC_AHB1ENR_GPIOBEN_ValuesIS5_Lj1ELj1ES0_S2_ES2_Lj1EvES3_I26RCC_AHB1ENR_GPIOAEN_ValuesIS5_Lj0ELj1ES0_S2_ES2_Lj1EvEEE3SetIS0_vEEvv
        PUBLIC _ZN9OsWrapper11RtosWrapper10wWaitEventERKPvjjNS_9EventModeE
        PUBLIC _ZN9OsWrapper11RtosWrapper12wCreateEventER19xSTATIC_EVENT_GROUP
        PUBLIC _ZN9OsWrapper11RtosWrapper12wDeleteEventERPv
        PUBLIC _ZN9OsWrapper11RtosWrapper12wSignalEventERKPvj
        PUBLIC _ZN9OsWrapper11RtosWrapper13wCreateThreadINS_4RtosE13BluetoothTaskEEvRT0_PKcNS_14ThreadPriorityEtPj
        PUBLIC _ZN9OsWrapper11RtosWrapper13wCreateThreadINS_4RtosE15ButtonEventTaskI6ButtonI3PinI4PortI5GPIOCELh13EEEL_Z5eventEEEEvRT0_PKcNS_14ThreadPriorityEtPj
        PUBLIC _ZN9OsWrapper11RtosWrapper13wCreateThreadINS_4RtosE15MeasurementTaskEEvRT0_PKcNS_14ThreadPriorityEtPj
        PUBLIC _ZN9OsWrapper11RtosWrapper6wSleepEj
        PUBLIC _ZN9OsWrapper11RtosWrapper6wStartEv
        PUBLIC _ZN9OsWrapper11RtosWrapper9wGetTicksEv
        PUBLIC _ZN9OsWrapper4Rtos12CreateThreadI13BluetoothTaskEEvRT_PKcNS_14ThreadPriorityE
        PUBLIC _ZN9OsWrapper4Rtos12CreateThreadI15ButtonEventTaskI6ButtonI3PinI4PortI5GPIOCELh13EEEL_Z5eventEEEEvRT_PKcNS_14ThreadPriorityE
        PUBLIC _ZN9OsWrapper4Rtos12CreateThreadI15MeasurementTaskEEvRT_PKcNS_14ThreadPriorityE
        PUBLIC _ZN9OsWrapper4Rtos3RunEPv
        PUBLIC _ZN9OsWrapper4Rtos5StartEv
        PUBLIC _ZN9OsWrapper5Event6SignalEv
        PUBLIC _ZN9OsWrapper5EventC1ENSt6chrono8durationIxSt5ratioILx1ELx1000EEEEj
        PUBLIC _ZN9OsWrapper5EventD1Ev
        PUBLIC _ZN9OsWrapper6ThreadILj128EEC1Ev
        PUBLIC _ZN9OsWrapper6ThreadILj128EEC2Ev
        PUBLIC _ZN9OsWrapper6ThreadILj400EEC1Ev
        PUBLIC _ZN9OsWrapper6ThreadILj400EEC2Ev
        PUBLIC _ZN9OsWrapper7IThread3RunEv
        PUBLIC _ZN9OsWrapper7IThread5SleepENSt6chrono8durationIxSt5ratioILx1ELx1000EEEE
        PUBLIC _ZN9OsWrapper7IThreadC1Ev
        PUBLIC _ZN9OsWrapper7IThreadC2Ev
        PUBLIC _ZN9SingletonI16Exh001ActionBasevJEE8instanceE
        PUBLIC _ZN9SpiDriverI4spi1E19IsMessageTransmitedEv
        PUBLIC _ZN9SpiDriverI4spi1E20SetReceivedMesLengthEj
        PUBLIC _ZN9SpiDriverI4spi1E8SendByteEc
        PUBLIC _ZN9SpiDriverI4spi2E10GetMessageEPc
        PUBLIC _ZN9SpiDriverI4spi2E11SendMessageEPcj
        PUBLIC _ZN9SpiDriverI4spi2E17IsMessageReceivedEv
        PUBLIC _ZN9SpiDriverI4spi2E20SetReceivedMesLengthEj
        PUBLIC _ZN9SpiDriverI4spi2E7GetByteEv
        PUBLIC _ZN9SpiDriverI4spi2E8SendByteEc
        PUBLIC _ZNK9OsWrapper5Event4WaitENS_9EventModeEj
        PUBLIC _ZNKSaIcE8max_sizeEv
        PUBLIC _ZNKSs4sizeEv
        PUBLIC _ZNKSs5c_strEv
        PUBLIC _ZNKSs8max_sizeEv
        PUBLIC _ZNKSt11_String_valISt13_Simple_typesIcEE6_MyptrEv
        PUBLIC _ZNKSt11_Wrap_allocISaIcEE37select_on_container_copy_constructionESt4_Nil
        PUBLIC _ZNKSt11_Wrap_allocISaIcEE8max_sizeESt4_Nil
        PUBLIC _ZNKSt13_String_allocISt18_String_base_typesIcSaIcEEE6_GetalEv
        PUBLIC _ZNKSt13_String_allocISt18_String_base_typesIcSaIcEEE6_MyptrEv
        PUBLIC _ZNKSt13_String_allocISt18_String_base_typesIcSaIcEEE7_MysizeEv
        PUBLIC _ZNKSt13_String_allocISt18_String_base_typesIcSaIcEEE9_Get_dataEv
        PUBLIC _ZNKSt16_Compressed_pairISt11_Wrap_allocISaIcEESt11_String_valISt13_Simple_typesIcEELb1EE10_Get_firstEv
        PUBLIC _ZNKSt16_Compressed_pairISt11_Wrap_allocISaIcEESt11_String_valISt13_Simple_typesIcEELb1EE11_Get_secondEv
        PUBLIC _ZNKSt5arrayIcLj1024EE4sizeEv
        PUBLIC _ZNKSt5arrayIcLj200EE4sizeEv
        PUBLIC _ZNKSt6chrono8durationIjSt5ratioILx10ELx1000EEE5countEv
        PUBLIC _ZNKSt6chrono8durationIxSt5ratioILx1ELx1000EEE5countEv
        PUBLIC _ZNSaIcE10deallocateEPcj
        PUBLIC _ZNSaIcE7destroyIPcEEvPT_
        PUBLIC _ZNSaIcE8allocateEj
        PUBLIC _ZNSaIcE9constructIPcJS1_EEEvPT_DpOT0_
        PUBLIC _ZNSs4_EosEj
        PUBLIC _ZNSs5_CopyEjj
        PUBLIC _ZNSs5_GrowEjb
        PUBLIC _ZNSs5_TidyEbj
        PUBLIC _ZNSs5eraseEj
        PUBLIC _ZNSs5eraseEjj
        PUBLIC _ZNSs6assignEPKc
        PUBLIC _ZNSs6assignEPKcj
        PUBLIC _ZNSs6assignERKSsjj
        PUBLIC _ZNSs7_InsideEPKc
        PUBLIC _ZNSsC1EPKc
        PUBLIC _ZNSsC1ERKSs
        PUBLIC _ZNSsC1Ev
        PUBLIC _ZNSsD1Ev
        PUBLIC _ZNSsaSEPKc
        PUBLIC _ZNSt11_String_valISt13_Simple_typesIcEE6_MyptrEv
        PUBLIC _ZNSt11_String_valISt13_Simple_typesIcEEC1Ev
        PUBLIC _ZNSt11_Wrap_allocISaIcEE10deallocateEPcj
        PUBLIC _ZNSt11_Wrap_allocISaIcEE7destroyIPcEEvPT_
        PUBLIC _ZNSt11_Wrap_allocISaIcEE8allocateEj
        PUBLIC _ZNSt11_Wrap_allocISaIcEE9constructIPcJS3_EEEvPT_DpOT0_
        PUBLIC _ZNSt11_Wrap_allocISaIcEEC1ERKS0_
        PUBLIC _ZNSt11_Wrap_allocISaIcEEC2ERKS0_
        PUBLIC _ZNSt11char_traitsIcE4copyEPcPKcj
        PUBLIC _ZNSt11char_traitsIcE4moveEPcPKcj
        PUBLIC _ZNSt11char_traitsIcE6assignERcRKc
        PUBLIC _ZNSt11char_traitsIcE6lengthEPKc
        PUBLIC _ZNSt13_String_allocISt18_String_base_typesIcSaIcEEE3_BxEv
        PUBLIC _ZNSt13_String_allocISt18_String_base_typesIcSaIcEEE6_GetalEv
        PUBLIC _ZNSt13_String_allocISt18_String_base_typesIcSaIcEEE6_MyptrEv
        PUBLIC _ZNSt13_String_allocISt18_String_base_typesIcSaIcEEE6_MyresEv
        PUBLIC _ZNSt13_String_allocISt18_String_base_typesIcSaIcEEE7_MysizeEv
        PUBLIC _ZNSt13_String_allocISt18_String_base_typesIcSaIcEEE9_Get_dataEv
        PUBLIC _ZNSt13_String_allocISt18_String_base_typesIcSaIcEEEC1ERKS1_
        PUBLIC _ZNSt13_String_allocISt18_String_base_typesIcSaIcEEEC2ERKS1_
        PUBLIC _ZNSt16_Compressed_pairISt11_Wrap_allocISaIcEESt11_String_valISt13_Simple_typesIcEELb1EE10_Get_firstEv
        PUBLIC _ZNSt16_Compressed_pairISt11_Wrap_allocISaIcEESt11_String_valISt13_Simple_typesIcEELb1EE11_Get_secondEv
        PUBLIC _ZNSt16_Compressed_pairISt11_Wrap_allocISaIcEESt11_String_valISt13_Simple_typesIcEELb1EEC1IRKS1_JEEESt25_One_then_variadic_args_tOT_DpOT0_
        PUBLIC _ZNSt16allocator_traitsISaIcEE37select_on_container_copy_constructionERKS0_
        PUBLIC _ZNSt16allocator_traitsISaIcEE7destroyIPcEEvRS0_PT_
        PUBLIC _ZNSt16allocator_traitsISaIcEE8max_sizeERKS0_
        PUBLIC _ZNSt16allocator_traitsISaIcEE9constructIPcJS3_EEEvRS0_PT_DpOT0_
        PUBLIC _ZNSt5arrayIcLj1024EE4dataEv
        PUBLIC _ZNSt5arrayIcLj1024EEixEj
        PUBLIC _ZNSt5arrayIcLj200EE4dataEv
        PUBLIC _ZNSt5arrayIcLj200EE4fillERKc
        PUBLIC _ZNSt5arrayIcLj200EEixEj
        PUBLIC _ZNSt5arrayIjLj128EE4dataEv
        PUBLIC _ZNSt5arrayIjLj400EE4dataEv
        PUBLIC _ZNSt6chrono12steady_clock9is_steadyE
        PUBLIC _ZNSt6chrono12system_clock12is_monotonicE
        PUBLIC _ZNSt6chrono12system_clock9is_steadyE
        PUBLIC _ZNSt6chrono13duration_castINS_8durationIjSt5ratioILx10ELx1000EEEExS2_ILx1ELx1000EEEENSt9enable_ifIXsr3std6chrono12_Is_durationIT_EE5valueES7_E4typeERKNS1_IT0_T1_EE
        PUBLIC _ZNSt6chrono8durationIjSt5ratioILx10ELx1000EEEC1IjvEERKT_
        PUBLIC _ZSt10_AddressofIcEPT_RS0_St17integral_constantIbLb0EE
        PUBLIC _ZSt11_DeallocateIcEvPT_j
        PUBLIC _ZSt4moveIRPcEONSt16remove_referenceIT_E4typeEOS3_
        PUBLIC _ZSt7_Fill_nPcjc
        PUBLIC _ZSt7forwardIPcEOT_RNSt16remove_referenceIS1_E4typeE
        PUBLIC _ZSt7forwardIRKSaIcEEOT_RNSt16remove_referenceIS3_E4typeE
        PUBLIC _ZSt9_AllocateIcEPT_jS1_b
        PUBLIC _ZSt9addressofIcEPT_RS0_
        PUBLIC _ZTI11Measurement
        PUBLIC _ZTI11Temperature
        PUBLIC _ZTI13BluetoothTask
        PUBLIC _ZTI15ButtonEventTaskI6ButtonI3PinI4PortI5GPIOCELh13EEEL_Z5eventEE
        PUBLIC _ZTI15MeasurementTask
        PUBLIC _ZTI16Exh001ActionBase
        PUBLIC _ZTI6Action
        PUBLIC _ZTI9RomObject
        PUBLIC _ZTI9SingletonI16Exh001ActionBasevJEE
        PUBLIC _ZTI9SingletonI16Exh002ActionBasevJEE
        PUBLIC _ZTIN9OsWrapper6ThreadILj128EEE
        PUBLIC _ZTIN9OsWrapper6ThreadILj400EEE
        PUBLIC _ZTIN9OsWrapper7IThreadE
        PUBLIC _ZTISt10ctype_base
        PUBLIC _ZTISt5_IosbIiE
        PUBLIC _ZTS11Measurement
        PUBLIC _ZTS11Temperature
        PUBLIC _ZTS13BluetoothTask
        PUBLIC _ZTS15ButtonEventTaskI6ButtonI3PinI4PortI5GPIOCELh13EEEL_Z5eventEE
        PUBLIC _ZTS15MeasurementTask
        PUBLIC _ZTS16Exh001ActionBase
        PUBLIC _ZTS6Action
        PUBLIC _ZTS9RomObject
        PUBLIC _ZTS9SingletonI16Exh001ActionBasevJEE
        PUBLIC _ZTS9SingletonI16Exh002ActionBasevJEE
        PUBLIC _ZTSN9OsWrapper6ThreadILj128EEE
        PUBLIC _ZTSN9OsWrapper6ThreadILj400EEE
        PUBLIC _ZTSN9OsWrapper7IThreadE
        PUBLIC _ZTSSt10ctype_base
        PUBLIC _ZTSSt5_IosbIiE
        PUBLIC _ZTV11Measurement
        PUBLIC _ZTV11Temperature
        PUBLIC _ZTV13BluetoothTask
        PUBLIC _ZTV15ButtonEventTaskI6ButtonI3PinI4PortI5GPIOCELh13EEEL_Z5eventEE
        PUBLIC _ZTV15MeasurementTask
        PUBLIC _ZTV16Exh001ActionBase
        PUBLIC _ZZN11Measurement12ShowUnitNameE4UnitEs
        PUBLIC _ZZN11Measurement12ShowUnitNameE4UnitEs_0
        PUBLIC _ZZN11Measurement12ShowUnitNameE4UnitEs_1
        PUBLIC _ZZN11Measurement12ShowUnitNameE4UnitEs_2
        PUBLIC _ZZN11Measurement12ShowUnitNameE4UnitEs_3
        PUBLIC _ZZN11Measurement12ShowUnitNameE4UnitEs_5
        PUBLIC _ZZN11Measurement12ShowUnitNameE4UnitEs_6
        PUBLIC _ZZN11Measurement8GetValueE4UnitEs_0
        PUBLIC _ZZN11Measurement8GetValueE4UnitEs_1
        PUBLIC _ZZN11MeasurementC1ESsP4UnitjS0_PFdvEEs_0
        PUBLIC _ZZN11MeasurementC1ESsP4UnitjS0_PFdvEEs_1
        PUBLIC _ZZN11Temperature8GetValueE4UnitEs_0
        PUBLIC _ZZN11Temperature8GetValueE4UnitEs_1
        PUBLIC _ZZN13BluetoothTask7ExecuteEvEs
        PUBLIC _ZZN13RegisterFieldIN6USART23BRRELj4ELj12E13ReadWriteModevE3SetIS2_vEEvjEs
        PUBLIC _ZZN13RegisterFieldIN6USART23BRRELj4ELj12E13ReadWriteModevE3SetIS2_vEEvjEs_0
        PUBLIC _ZZN15MeasurementTask11UnitsUpdateEvE7counter
        PUBLIC _ZZN8RegisterILj1073873920ELj32E13ReadWriteModeN5GPIOB14GPIOBMODERBaseEJ10FieldValueI26GPIOB_MODER_MODER15_ValuesINS1_5MODERELj6ELj2ES0_S2_ES2_Lj2EvES3_IS4_IS5_Lj8ELj2ES0_S2_ES2_Lj2EvES3_IS4_IS5_Lj10ELj2ES0_S2_ES2_Lj2EvEEE3SetIS0_vEEvvE4mask
        PUBLIC _ZZN8RegisterILj1073873920ELj32E13ReadWriteModeN5GPIOB14GPIOBMODERBaseEJ10FieldValueI26GPIOB_MODER_MODER15_ValuesINS1_5MODERELj6ELj2ES0_S2_ES2_Lj2EvES3_IS4_IS5_Lj8ELj2ES0_S2_ES2_Lj2EvES3_IS4_IS5_Lj10ELj2ES0_S2_ES2_Lj2EvEEE3SetIS0_vEEvvE5value
        PUBLIC _ZZN8RegisterILj1073873952ELj32E13ReadWriteModeN5GPIOB13GPIOBAFRLBaseEJ10FieldValueI23GPIOB_AFRL_AFRL7_ValuesINS1_4AFRLELj12ELj4ES0_S2_ES2_Lj5EvES3_IS4_IS5_Lj16ELj4ES0_S2_ES2_Lj5EvES3_IS4_IS5_Lj20ELj4ES0_S2_ES2_Lj5EvEEE3SetIS0_vEEvvE4mask
        PUBLIC _ZZN8RegisterILj1073873952ELj32E13ReadWriteModeN5GPIOB13GPIOBAFRLBaseEJ10FieldValueI23GPIOB_AFRL_AFRL7_ValuesINS1_4AFRLELj12ELj4ES0_S2_ES2_Lj5EvES3_IS4_IS5_Lj16ELj4ES0_S2_ES2_Lj5EvES3_IS4_IS5_Lj20ELj4ES0_S2_ES2_Lj5EvEEE3SetIS0_vEEvvE5value
        PUBLIC _ZZN8RegisterILj1073874944ELj32E13ReadWriteModeN5GPIOC14GPIOCMODERBaseEJ10FieldValueI26GPIOC_MODER_MODER15_ValuesINS1_5MODERELj4ELj2ES0_S2_ES2_Lj2EvES3_IS4_IS5_Lj6ELj2ES0_S2_ES2_Lj2EvES3_IS4_IS5_Lj14ELj2ES0_S2_ES2_Lj2EvEEE3SetIS0_vEEvvE4mask
        PUBLIC _ZZN8RegisterILj1073874944ELj32E13ReadWriteModeN5GPIOC14GPIOCMODERBaseEJ10FieldValueI26GPIOC_MODER_MODER15_ValuesINS1_5MODERELj4ELj2ES0_S2_ES2_Lj2EvES3_IS4_IS5_Lj6ELj2ES0_S2_ES2_Lj2EvES3_IS4_IS5_Lj14ELj2ES0_S2_ES2_Lj2EvEEE3SetIS0_vEEvvE5value
        PUBLIC _ZZN8RegisterILj1073874976ELj32E13ReadWriteModeN5GPIOC13GPIOCAFRLBaseEJ10FieldValueI23GPIOC_AFRL_AFRL7_ValuesINS1_4AFRLELj8ELj4ES0_S2_ES2_Lj5EvES3_IS4_IS5_Lj12ELj4ES0_S2_ES2_Lj5EvES3_IS4_IS5_Lj28ELj4ES0_S2_ES2_Lj5EvEEE3SetIS0_vEEvvE4mask
        PUBLIC _ZZN8RegisterILj1073874976ELj32E13ReadWriteModeN5GPIOC13GPIOCAFRLBaseEJ10FieldValueI23GPIOC_AFRL_AFRL7_ValuesINS1_4AFRLELj8ELj4ES0_S2_ES2_Lj5EvES3_IS4_IS5_Lj12ELj4ES0_S2_ES2_Lj5EvES3_IS4_IS5_Lj28ELj4ES0_S2_ES2_Lj5EvEEE3SetIS0_vEEvvE5value
        PUBLIC _ZZN8RegisterILj1073887280ELj32E13ReadWriteModeN3RCC14RCCAHB1ENRBaseEJ10FieldValueI26RCC_AHB1ENR_GPIOCEN_ValuesINS1_7AHB1ENRELj2ELj1ES0_S2_ES2_Lj1EvES3_I26RCC_AHB1ENR_GPIOBEN_ValuesIS5_Lj1ELj1ES0_S2_ES2_Lj1EvES3_I26RCC_AHB1ENR_GPIOAEN_ValuesIS5_Lj0ELj1ES0_S2_ES2_Lj1EvEEE3SetIS0_vEEvvE4mask
        PUBLIC _ZZN8RegisterILj1073887280ELj32E13ReadWriteModeN3RCC14RCCAHB1ENRBaseEJ10FieldValueI26RCC_AHB1ENR_GPIOCEN_ValuesINS1_7AHB1ENRELj2ELj1ES0_S2_ES2_Lj1EvES3_I26RCC_AHB1ENR_GPIOBEN_ValuesIS5_Lj1ELj1ES0_S2_ES2_Lj1EvES3_I26RCC_AHB1ENR_GPIOAEN_ValuesIS5_Lj0ELj1ES0_S2_ES2_Lj1EvEEE3SetIS0_vEEvvE5value
        PUBLIC _ZnwjPv
        PUBLIC __low_level_init
        PUBLIC bluetoothTask
        PUBLIC bluetoothTransceiver
        PUBLIC bme280
        PUBLIC buttonEventTask
        PUBLIC dewPoint
        PUBLIC epDisplay
        PUBLIC event
        PUBLIC humidity
        PUBLIC main
        PUBLIC measurementTask
        PUBLIC measurements
        PUBLIC pressure
        PUBLIC spi1Transceiver
        PUBLIC spi2Transceiver
        PUBLIC temperature
        PUBLIC temperatureUnits
        PUBLIC userUnits
        
          CFI Names cfiNames0
          CFI StackFrame CFA R13 DATA
          CFI Resource R0:32, R1:32, R2:32, R3:32, R4:32, R5:32, R6:32, R7:32
          CFI Resource R8:32, R9:32, R10:32, R11:32, R12:32, R13:32, R14:32
          CFI Resource D0:64, D1:64, D2:64, D3:64, D4:64, D5:64, D6:64, D7:64
          CFI Resource D8:64, D9:64, D10:64, D11:64, D12:64, D13:64, D14:64
          CFI Resource D15:64
          CFI EndNames cfiNames0
        
          CFI Common cfiCommon0 Using cfiNames0
          CFI CodeAlign 2
          CFI DataAlign 4
          CFI ReturnAddress R14 CODE
          CFI CFA R13+0
          CFI R0 Undefined
          CFI R1 Undefined
          CFI R2 Undefined
          CFI R3 Undefined
          CFI R4 SameValue
          CFI R5 SameValue
          CFI R6 SameValue
          CFI R7 SameValue
          CFI R8 SameValue
          CFI R9 SameValue
          CFI R10 SameValue
          CFI R11 SameValue
          CFI R12 Undefined
          CFI R14 SameValue
          CFI D0 Undefined
          CFI D1 Undefined
          CFI D2 Undefined
          CFI D3 Undefined
          CFI D4 Undefined
          CFI D5 Undefined
          CFI D6 Undefined
          CFI D7 Undefined
          CFI D8 SameValue
          CFI D9 SameValue
          CFI D10 SameValue
          CFI D11 SameValue
          CFI D12 SameValue
          CFI D13 SameValue
          CFI D14 SameValue
          CFI D15 SameValue
          CFI EndCommon cfiCommon0
        

        SECTION `.rodata`:CONST:REORDER:NOROOT(2)
        SECTION_GROUP _ZTIN9OsWrapper7IThreadE
        DATA
// __absolute __class_type_info const <Typeinfo for OsWrapper::IThread>
_ZTIN9OsWrapper7IThreadE:
        DATA32
        DC32 _ZTVN10__cxxabiv117__class_type_infoE + 0x8
        DC32 _ZTSN9OsWrapper7IThreadE

        SECTION `.rodata`:CONST:REORDER:NOROOT(2)
        SECTION_GROUP _ZTV11Measurement
        DATA
// __absolute void (*const Measurement::__vtbl[4])()
_ZTV11Measurement:
        DATA32
        DC32 0x0, _ZTI11Measurement, _ZN11Measurement8GetValueEv
        DC32 _ZN11Measurement8GetValueE4Unit

        SECTION `.rodata`:CONST:REORDER:NOROOT(2)
        SECTION_GROUP _ZZN11MeasurementC1ESsP4UnitjS0_PFdvEEs_0
        DATA
// __absolute char const <_ZZN11MeasurementC1ESsP4UnitjS0_PFdvEEs_0>[71]
_ZZN11MeasurementC1ESsP4UnitjS0_PFdvEEs_0:
        DATA8
        DC8 0x43, 0x68, 0x65, 0x63, 0x6B, 0x55, 0x6E, 0x69
        DC8 0x74, 0x28, 0x64, 0x65, 0x66, 0x61, 0x75, 0x6C
        DC8 0x74, 0x55, 0x6E, 0x69, 0x74, 0x29, 0x20, 0x26
        DC8 0x26, 0x22, 0x20, 0x64, 0x65, 0x66, 0x61, 0x6C
        DC8 0x74, 0x20, 0x75, 0x6E, 0x69, 0x74, 0x20, 0x6D
        DC8 0x75, 0x73, 0x74, 0x20, 0x6D, 0x61, 0x74, 0x63
        DC8 0x68, 0x20, 0x6D, 0x65, 0x61, 0x73, 0x75, 0x72
        DC8 0x65, 0x6D, 0x65, 0x6E, 0x74, 0x27, 0x73, 0x20
        DC8 0x75, 0x6E, 0x69, 0x74, 0x73, 0x22, 0
        DC8 0

        SECTION `.rodata`:CONST:REORDER:NOROOT(2)
        SECTION_GROUP _ZZN11MeasurementC1ESsP4UnitjS0_PFdvEEs_1
        DATA
// __absolute char const <_ZZN11MeasurementC1ESsP4UnitjS0_PFdvEEs_1>[111]
_ZZN11MeasurementC1ESsP4UnitjS0_PFdvEEs_1:
        DATA8
        DC8 0x43, 0x3A, 0x5C, 0x55, 0x73, 0x65, 0x72, 0x73
        DC8 0x5C, 0xD0, 0x9D, 0xD0, 0xB8, 0xD0, 0xBA, 0xD0
        DC8 0xBE, 0xD0, 0xBB, 0xD0, 0xB0, 0xD0, 0xBE, 0xD1
        DC8 0x81, 0x5C, 0x44, 0x6F, 0x63, 0x75, 0x6D, 0x65
        DC8 0x6E, 0x74, 0x73, 0x5C, 0x4D, 0x79, 0x49, 0x41
        DC8 0x52, 0x70, 0x72, 0x6F, 0x6A, 0x65, 0x63, 0x74
        DC8 0x73, 0x5C, 0x4B, 0x75, 0x72, 0x73, 0x6F, 0x76
        DC8 0x6F, 0x69, 0x4B, 0x5F, 0x5C, 0x52, 0x74, 0x6F
        DC8 0x73, 0x57, 0x72, 0x61, 0x70, 0x70, 0x65, 0x72
        DC8 0x5C, 0x41, 0x70, 0x70, 0x6C, 0x69, 0x63, 0x61
        DC8 0x74, 0x69, 0x6F, 0x6E, 0x5C, 0x4D, 0x65, 0x61
        DC8 0x73, 0x75, 0x72, 0x65, 0x6D, 0x65, 0x6E, 0x74
        DC8 0x5C, 0x4D, 0x65, 0x61, 0x73, 0x75, 0x72, 0x65
        DC8 0x6D, 0x65, 0x6E, 0x74, 0x2E, 0x68, 0
        DC8 0

        SECTION `.rodata`:CONST:REORDER:NOROOT(2)
        SECTION_GROUP _ZZN11Measurement8GetValueE4UnitEs_0
        DATA
// __absolute char const <_ZZN11Measurement8GetValueE4UnitEs_0>[63]
_ZZN11Measurement8GetValueE4UnitEs_0:
        DATA8
        DC8 0x43, 0x68, 0x65, 0x63, 0x6B, 0x55, 0x6E, 0x69
        DC8 0x74, 0x28, 0x75, 0x6E, 0x69, 0x74, 0x29, 0x26
        DC8 0x26, 0x22, 0x20, 0x64, 0x65, 0x66, 0x61, 0x6C
        DC8 0x74, 0x20, 0x75, 0x6E, 0x69, 0x74, 0x20, 0x6D
        DC8 0x75, 0x73, 0x74, 0x20, 0x6D, 0x61, 0x74, 0x63
        DC8 0x68, 0x20, 0x6D, 0x65, 0x61, 0x73, 0x75, 0x72
        DC8 0x65, 0x6D, 0x65, 0x6E, 0x74, 0x27, 0x73, 0x20
        DC8 0x75, 0x6E, 0x69, 0x74, 0x73, 0x22, 0
        DC8 0

        SECTION `.rodata`:CONST:REORDER:NOROOT(2)
        SECTION_GROUP _ZZN11Measurement8GetValueE4UnitEs_1
        DATA
// __absolute char const <_ZZN11Measurement8GetValueE4UnitEs_1>[111]
_ZZN11Measurement8GetValueE4UnitEs_1:
        DATA8
        DC8 0x43, 0x3A, 0x5C, 0x55, 0x73, 0x65, 0x72, 0x73
        DC8 0x5C, 0xD0, 0x9D, 0xD0, 0xB8, 0xD0, 0xBA, 0xD0
        DC8 0xBE, 0xD0, 0xBB, 0xD0, 0xB0, 0xD0, 0xBE, 0xD1
        DC8 0x81, 0x5C, 0x44, 0x6F, 0x63, 0x75, 0x6D, 0x65
        DC8 0x6E, 0x74, 0x73, 0x5C, 0x4D, 0x79, 0x49, 0x41
        DC8 0x52, 0x70, 0x72, 0x6F, 0x6A, 0x65, 0x63, 0x74
        DC8 0x73, 0x5C, 0x4B, 0x75, 0x72, 0x73, 0x6F, 0x76
        DC8 0x6F, 0x69, 0x4B, 0x5F, 0x5C, 0x52, 0x74, 0x6F
        DC8 0x73, 0x57, 0x72, 0x61, 0x70, 0x70, 0x65, 0x72
        DC8 0x5C, 0x41, 0x70, 0x70, 0x6C, 0x69, 0x63, 0x61
        DC8 0x74, 0x69, 0x6F, 0x6E, 0x5C, 0x4D, 0x65, 0x61
        DC8 0x73, 0x75, 0x72, 0x65, 0x6D, 0x65, 0x6E, 0x74
        DC8 0x5C, 0x4D, 0x65, 0x61, 0x73, 0x75, 0x72, 0x65
        DC8 0x6D, 0x65, 0x6E, 0x74, 0x2E, 0x68, 0
        DC8 0

        SECTION `.rodata`:CONST:REORDER:NOROOT(1)
        SECTION_GROUP _ZZN11Measurement12ShowUnitNameE4UnitEs
        DATA
// __absolute char const <_ZZN11Measurement12ShowUnitNameE4UnitEs>[2]
_ZZN11Measurement12ShowUnitNameE4UnitEs:
        DATA8
        DC8 "K"

        SECTION `.rodata`:CONST:REORDER:NOROOT(1)
        SECTION_GROUP _ZZN11Measurement12ShowUnitNameE4UnitEs_0
        DATA
// __absolute char const <_ZZN11Measurement12ShowUnitNameE4UnitEs_0>[2]
_ZZN11Measurement12ShowUnitNameE4UnitEs_0:
        DATA8
        DC8 "F"

        SECTION `.rodata`:CONST:REORDER:NOROOT(1)
        SECTION_GROUP _ZZN11Measurement12ShowUnitNameE4UnitEs_1
        DATA
// __absolute char const <_ZZN11Measurement12ShowUnitNameE4UnitEs_1>[2]
_ZZN11Measurement12ShowUnitNameE4UnitEs_1:
        DATA8
        DC8 "C"

        SECTION `.rodata`:CONST:REORDER:NOROOT(2)
        SECTION_GROUP _ZZN11Measurement12ShowUnitNameE4UnitEs_2
        DATA
// __absolute char const <_ZZN11Measurement12ShowUnitNameE4UnitEs_2>[4]
_ZZN11Measurement12ShowUnitNameE4UnitEs_2:
        DATA8
        DC8 "hPa"

        SECTION `.rodata`:CONST:REORDER:NOROOT(1)
        SECTION_GROUP _ZZN11Measurement12ShowUnitNameE4UnitEs_3
        DATA
// __absolute char const <_ZZN11Measurement12ShowUnitNameE4UnitEs_3>[2]
_ZZN11Measurement12ShowUnitNameE4UnitEs_3:
        DATA8
        DC8 "%"

        SECTION `.rodata`:CONST:REORDER:NOROOT(2)
        SECTION_GROUP _ZZN11Measurement12ShowUnitNameE4UnitEs_5
        DATA
// __absolute char const <_ZZN11Measurement12ShowUnitNameE4UnitEs_5>[47]
_ZZN11Measurement12ShowUnitNameE4UnitEs_5:
        DATA8
        DC8 "false &&\" unit must match measurement's units\""
        DC8 0

        SECTION `.rodata`:CONST:REORDER:NOROOT(2)
        SECTION_GROUP _ZZN11Measurement12ShowUnitNameE4UnitEs_6
        DATA
// __absolute char const <_ZZN11Measurement12ShowUnitNameE4UnitEs_6>[111]
_ZZN11Measurement12ShowUnitNameE4UnitEs_6:
        DATA8
        DC8 0x43, 0x3A, 0x5C, 0x55, 0x73, 0x65, 0x72, 0x73
        DC8 0x5C, 0xD0, 0x9D, 0xD0, 0xB8, 0xD0, 0xBA, 0xD0
        DC8 0xBE, 0xD0, 0xBB, 0xD0, 0xB0, 0xD0, 0xBE, 0xD1
        DC8 0x81, 0x5C, 0x44, 0x6F, 0x63, 0x75, 0x6D, 0x65
        DC8 0x6E, 0x74, 0x73, 0x5C, 0x4D, 0x79, 0x49, 0x41
        DC8 0x52, 0x70, 0x72, 0x6F, 0x6A, 0x65, 0x63, 0x74
        DC8 0x73, 0x5C, 0x4B, 0x75, 0x72, 0x73, 0x6F, 0x76
        DC8 0x6F, 0x69, 0x4B, 0x5F, 0x5C, 0x52, 0x74, 0x6F
        DC8 0x73, 0x57, 0x72, 0x61, 0x70, 0x70, 0x65, 0x72
        DC8 0x5C, 0x41, 0x70, 0x70, 0x6C, 0x69, 0x63, 0x61
        DC8 0x74, 0x69, 0x6F, 0x6E, 0x5C, 0x4D, 0x65, 0x61
        DC8 0x73, 0x75, 0x72, 0x65, 0x6D, 0x65, 0x6E, 0x74
        DC8 0x5C, 0x4D, 0x65, 0x61, 0x73, 0x75, 0x72, 0x65
        DC8 0x6D, 0x65, 0x6E, 0x74, 0x2E, 0x68, 0
        DC8 0

        SECTION `.rodata`:CONST:REORDER:NOROOT(2)
        SECTION_GROUP _ZTV11Temperature
        DATA
// __absolute void (*const Temperature::__vtbl[4])()
_ZTV11Temperature:
        DATA32
        DC32 0x0, _ZTI11Temperature, _ZN11Temperature8GetValueEv
        DC32 _ZN11Temperature8GetValueE4Unit

        SECTION `.rodata`:CONST:REORDER:NOROOT(2)
        SECTION_GROUP _ZTI11Temperature
        DATA
// __absolute __si_class_type_info const <Typeinfo for Temperature>
_ZTI11Temperature:
        DATA32
        DC32 _ZTVN10__cxxabiv120__si_class_type_infoE + 0x8, _ZTS11Temperature
        DC32 _ZTI11Measurement

        SECTION `.rodata`:CONST:REORDER:NOROOT(2)
        SECTION_GROUP _ZZN11Temperature8GetValueE4UnitEs_0
        DATA
// __absolute char const <_ZZN11Temperature8GetValueE4UnitEs_0>[46]
_ZZN11Temperature8GetValueE4UnitEs_0:
        DATA8
        DC8 "false &&\"unit must match measurement's units\""
        DATA16
        DC8 0, 0

        SECTION `.rodata`:CONST:REORDER:NOROOT(2)
        SECTION_GROUP _ZZN11Temperature8GetValueE4UnitEs_1
        DATA
// __absolute char const <_ZZN11Temperature8GetValueE4UnitEs_1>[111]
_ZZN11Temperature8GetValueE4UnitEs_1:
        DATA8
        DC8 0x43, 0x3A, 0x5C, 0x55, 0x73, 0x65, 0x72, 0x73
        DC8 0x5C, 0xD0, 0x9D, 0xD0, 0xB8, 0xD0, 0xBA, 0xD0
        DC8 0xBE, 0xD0, 0xBB, 0xD0, 0xB0, 0xD0, 0xBE, 0xD1
        DC8 0x81, 0x5C, 0x44, 0x6F, 0x63, 0x75, 0x6D, 0x65
        DC8 0x6E, 0x74, 0x73, 0x5C, 0x4D, 0x79, 0x49, 0x41
        DC8 0x52, 0x70, 0x72, 0x6F, 0x6A, 0x65, 0x63, 0x74
        DC8 0x73, 0x5C, 0x4B, 0x75, 0x72, 0x73, 0x6F, 0x76
        DC8 0x6F, 0x69, 0x4B, 0x5F, 0x5C, 0x52, 0x74, 0x6F
        DC8 0x73, 0x57, 0x72, 0x61, 0x70, 0x70, 0x65, 0x72
        DC8 0x5C, 0x41, 0x70, 0x70, 0x6C, 0x69, 0x63, 0x61
        DC8 0x74, 0x69, 0x6F, 0x6E, 0x5C, 0x4D, 0x65, 0x61
        DC8 0x73, 0x75, 0x72, 0x65, 0x6D, 0x65, 0x6E, 0x74
        DC8 0x5C, 0x54, 0x65, 0x6D, 0x70, 0x65, 0x72, 0x61
        DC8 0x74, 0x75, 0x72, 0x65, 0x2E, 0x68, 0
        DC8 0

        SECTION `.rodata`:CONST:REORDER:NOROOT(2)
        SECTION_GROUP _ZTV13BluetoothTask
        DATA
// __absolute void (*const BluetoothTask::__vtbl[3])()
_ZTV13BluetoothTask:
        DATA32
        DC32 0x0, _ZTI13BluetoothTask, _ZN13BluetoothTask7ExecuteEv

        SECTION `.rodata`:CONST:REORDER:NOROOT(2)
        SECTION_GROUP _ZZN13BluetoothTask7ExecuteEvEs
        DATA
// __absolute char const <_ZZN13BluetoothTask7ExecuteEvEs>[19]
_ZZN13BluetoothTask7ExecuteEvEs:
        DATA8
        DC8 "%11s : %5.2f %5s \012"
        DC8 0

        SECTION `.rodata`:CONST:REORDER:NOROOT(2)
        SECTION_GROUP _ZTI11Measurement
        DATA
// __absolute __class_type_info const <Typeinfo for Measurement>
_ZTI11Measurement:
        DATA32
        DC32 _ZTVN10__cxxabiv117__class_type_infoE + 0x8, _ZTS11Measurement

        SECTION `.rodata`:CONST:REORDER:NOROOT(2)
        SECTION_GROUP _ZTV15MeasurementTask
        DATA
// __absolute void (*const MeasurementTask::__vtbl[3])()
_ZTV15MeasurementTask:
        DATA32
        DC32 0x0, _ZTI15MeasurementTask, _ZN15MeasurementTask7ExecuteEv

        SECTION `.rodata`:CONST:REORDER:NOROOT(2)
        SECTION_GROUP _ZTV16Exh001ActionBase
        DATA
// __absolute void (*const Exh001ActionBase::__vtbl[3])()
_ZTV16Exh001ActionBase:
        DATA32
        DC32 0x0, _ZTI16Exh001ActionBase, _ZN16Exh001ActionBase2DoEv

        SECTION `.rodata`:CONST:REORDER:NOROOT(2)
        SECTION_GROUP _ZZN13RegisterFieldIN6USART23BRRELj4ELj12E13ReadWriteModevE3SetIS2_vEEvjEs
        DATA
// __absolute char const <_ZZN13RegisterFieldIN6USART23BRRELj4ELj12E13ReadWriteModevE3SetIS2_vEEvjEs>[156]
_ZZN13RegisterFieldIN6USART23BRRELj4ELj12E13ReadWriteModevE3SetIS2_vEEvjEs:
        DATA8
        DC8 0x28, 0x73, 0x69, 0x7A, 0x65, 0x20, 0x3C, 0x20
        DC8 0x73, 0x69, 0x7A, 0x65, 0x6F, 0x66, 0x28, 0x52
        DC8 0x65, 0x67, 0x54, 0x79, 0x70, 0x65, 0x29, 0x20
        DC8 0x2A, 0x20, 0x38, 0x55, 0x29, 0x20, 0x3F, 0x20
        DC8 0x28, 0x76, 0x61, 0x6C, 0x75, 0x65, 0x20, 0x3C
        DC8 0x3D, 0x20, 0x28, 0x28, 0x73, 0x74, 0x61, 0x74
        DC8 0x69, 0x63, 0x5F, 0x63, 0x61, 0x73, 0x74, 0x3C
        DC8 0x52, 0x65, 0x67, 0x54, 0x79, 0x70, 0x65, 0x3E
        DC8 0x28, 0x31, 0x55, 0x29, 0x20, 0x3C, 0x3C, 0x20
        DC8 0x73, 0x69, 0x7A, 0x65, 0x29, 0x20, 0x2D, 0x20
        DC8 0x73, 0x74, 0x61, 0x74, 0x69, 0x63, 0x5F, 0x63
        DC8 0x61, 0x73, 0x74, 0x3C, 0x52, 0x65, 0x67, 0x54
        DC8 0x79, 0x70, 0x65, 0x3E, 0x28, 0x31, 0x55, 0x29
        DC8 0x29, 0x29, 0x20, 0x3A, 0x20, 0x28, 0x76, 0x61
        DC8 0x6C, 0x75, 0x65, 0x20, 0x3C, 0x3D, 0x20, 0x73
        DC8 0x74, 0x64, 0x3A, 0x3A, 0x6E, 0x75, 0x6D, 0x65
        DC8 0x72, 0x69, 0x63, 0x5F, 0x6C, 0x69, 0x6D, 0x69
        DC8 0x74, 0x73, 0x3C, 0x52, 0x65, 0x67, 0x54, 0x79
        DC8 0x70, 0x65, 0x3E, 0x3A, 0x3A, 0x6D, 0x61, 0x78
        DC8 0x28, 0x29, 0x29, 0

        SECTION `.rodata`:CONST:REORDER:NOROOT(2)
        SECTION_GROUP _ZZN13RegisterFieldIN6USART23BRRELj4ELj12E13ReadWriteModevE3SetIS2_vEEvjEs_0
        DATA
// __absolute char const <_ZZN13RegisterFieldIN6USART23BRRELj4ELj12E13ReadWriteModevE3SetIS2_vEEvjEs_0>[116]
_ZZN13RegisterFieldIN6USART23BRRELj4ELj12E13ReadWriteModevE3SetIS2_vEEvjEs_0:
        DATA8
        DC8 0x43, 0x3A, 0x5C, 0x55, 0x73, 0x65, 0x72, 0x73
        DC8 0x5C, 0xD0, 0x9D, 0xD0, 0xB8, 0xD0, 0xBA, 0xD0
        DC8 0xBE, 0xD0, 0xBB, 0xD0, 0xB0, 0xD0, 0xBE, 0xD1
        DC8 0x81, 0x5C, 0x44, 0x6F, 0x63, 0x75, 0x6D, 0x65
        DC8 0x6E, 0x74, 0x73, 0x5C, 0x4D, 0x79, 0x49, 0x41
        DC8 0x52, 0x70, 0x72, 0x6F, 0x6A, 0x65, 0x63, 0x74
        DC8 0x73, 0x5C, 0x4B, 0x75, 0x72, 0x73, 0x6F, 0x76
        DC8 0x6F, 0x69, 0x4B, 0x5F, 0x5C, 0x43, 0x6F, 0x72
        DC8 0x74, 0x65, 0x78, 0x4C, 0x69, 0x62, 0x5C, 0x41
        DC8 0x62, 0x73, 0x74, 0x72, 0x61, 0x63, 0x74, 0x48
        DC8 0x61, 0x72, 0x64, 0x77, 0x61, 0x72, 0x65, 0x5C
        DC8 0x52, 0x65, 0x67, 0x69, 0x73, 0x74, 0x65, 0x72
        DC8 0x73, 0x5C, 0x72, 0x65, 0x67, 0x69, 0x73, 0x74
        DC8 0x65, 0x72, 0x66, 0x69, 0x65, 0x6C, 0x64, 0x2E
        DC8 0x68, 0x70, 0x70, 0

        SECTION `.rodata`:CONST:REORDER:NOROOT(2)
        SECTION_GROUP _ZTV15ButtonEventTaskI6ButtonI3PinI4PortI5GPIOCELh13EEEL_Z5eventEE
        DATA
// __absolute void (*const ButtonEventTask<UserButton, event>::__vtbl[3])()
_ZTV15ButtonEventTaskI6ButtonI3PinI4PortI5GPIOCELh13EEEL_Z5eventEE:
        DATA32
        DC32 0x0
        DC32 _ZTI15ButtonEventTaskI6ButtonI3PinI4PortI5GPIOCELh13EEEL_Z5eventEE
        DC32 _ZN15ButtonEventTaskI6ButtonI3PinI4PortI5GPIOCELh13EEEL_Z5eventEE7ExecuteEv

        SECTION `.rodata`:CONST:REORDER:NOROOT(2)
        SECTION_GROUP _ZTI13BluetoothTask
        DATA
// __absolute __si_class_type_info const <Typeinfo for BluetoothTask>
_ZTI13BluetoothTask:
        DATA32
        DC32 _ZTVN10__cxxabiv120__si_class_type_infoE + 0x8
        DC32 _ZTS13BluetoothTask, _ZTIN9OsWrapper6ThreadILj400EEE

        SECTION `.rodata`:CONST:REORDER:NOROOT(2)
        SECTION_GROUP _ZTIN9OsWrapper6ThreadILj400EEE
        DATA
// __absolute __si_class_type_info const <Typeinfo for OsWrapper::Thread<(unsigned int)400>>
_ZTIN9OsWrapper6ThreadILj400EEE:
        DATA32
        DC32 _ZTVN10__cxxabiv120__si_class_type_infoE + 0x8
        DC32 _ZTSN9OsWrapper6ThreadILj400EEE, _ZTIN9OsWrapper7IThreadE

        SECTION `.rodata`:CONST:REORDER:NOROOT(2)
        SECTION_GROUP _ZTI15MeasurementTask
        DATA
// __absolute __si_class_type_info const <Typeinfo for MeasurementTask>
_ZTI15MeasurementTask:
        DATA32
        DC32 _ZTVN10__cxxabiv120__si_class_type_infoE + 0x8
        DC32 _ZTS15MeasurementTask, _ZTIN9OsWrapper6ThreadILj128EEE

        SECTION `.rodata`:CONST:REORDER:NOROOT(2)
        SECTION_GROUP _ZTIN9OsWrapper6ThreadILj128EEE
        DATA
// __absolute __si_class_type_info const <Typeinfo for OsWrapper::Thread<(unsigned int)128>>
_ZTIN9OsWrapper6ThreadILj128EEE:
        DATA32
        DC32 _ZTVN10__cxxabiv120__si_class_type_infoE + 0x8
        DC32 _ZTSN9OsWrapper6ThreadILj128EEE, _ZTIN9OsWrapper7IThreadE

        SECTION `.rodata`:CONST:REORDER:NOROOT(2)
        SECTION_GROUP _ZTI6Action
        DATA
// __absolute __class_type_info const <Typeinfo for Action>
_ZTI6Action:
        DATA32
        DC32 _ZTVN10__cxxabiv117__class_type_infoE + 0x8, _ZTS6Action

        SECTION `.rodata`:CONST:REORDER:NOROOT(2)
        SECTION_GROUP _ZTI16Exh001ActionBase
        DATA
// __absolute __si_class_type_info const <Typeinfo for Exh001ActionBase>
_ZTI16Exh001ActionBase:
        DATA32
        DC32 _ZTVN10__cxxabiv120__si_class_type_infoE + 0x8
        DC32 _ZTS16Exh001ActionBase, _ZTI6Action

        SECTION `.rodata`:CONST:REORDER:NOROOT(2)
        SECTION_GROUP _ZTI15ButtonEventTaskI6ButtonI3PinI4PortI5GPIOCELh13EEEL_Z5eventEE
        DATA
// __absolute __si_class_type_info const <Typeinfo for ButtonEventTask<Button<Pin<Port<GPIOC>, (unsigned char)13>>, event>>
_ZTI15ButtonEventTaskI6ButtonI3PinI4PortI5GPIOCELh13EEEL_Z5eventEE:
        DATA32
        DC32 _ZTVN10__cxxabiv120__si_class_type_infoE + 0x8
        DC32 _ZTS15ButtonEventTaskI6ButtonI3PinI4PortI5GPIOCELh13EEEL_Z5eventEE
        DC32 _ZTIN9OsWrapper6ThreadILj128EEE

        SECTION `.rodata`:CONST:REORDER:NOROOT(2)
        SECTION_GROUP _ZTS11Measurement
        DATA
// __absolute char const <Typeinfo name for Measurement>[14]
_ZTS11Measurement:
        DATA8
        DC8 "11Measurement"
        DATA16
        DC8 0, 0

        SECTION `.rodata`:CONST:REORDER:NOROOT(2)
        SECTION_GROUP _ZTS11Temperature
        DATA
// __absolute char const <Typeinfo name for Temperature>[14]
_ZTS11Temperature:
        DATA8
        DC8 "11Temperature"
        DATA16
        DC8 0, 0

        SECTION `.rodata`:CONST:REORDER:NOROOT(2)
        SECTION_GROUP _ZTSN9OsWrapper7IThreadE
        DATA
// __absolute char const <Typeinfo name for OsWrapper::IThread>[21]
_ZTSN9OsWrapper7IThreadE:
        DATA8
        DC8 "N9OsWrapper7IThreadE"
        DATA
        DC8 0, 0, 0

        SECTION `.rodata`:CONST:REORDER:NOROOT(2)
        SECTION_GROUP _ZTSN9OsWrapper6ThreadILj400EEE
        DATA
// __absolute char const <Typeinfo name for OsWrapper::Thread<(unsigned int)400>>[28]
_ZTSN9OsWrapper6ThreadILj400EEE:
        DATA8
        DC8 "N9OsWrapper6ThreadILj400EEE"

        SECTION `.rodata`:CONST:REORDER:NOROOT(2)
        SECTION_GROUP _ZTS13BluetoothTask
        DATA
// __absolute char const <Typeinfo name for BluetoothTask>[16]
_ZTS13BluetoothTask:
        DATA8
        DC8 "13BluetoothTask"

        SECTION `.rodata`:CONST:REORDER:NOROOT(2)
        SECTION_GROUP _ZTSN9OsWrapper6ThreadILj128EEE
        DATA
// __absolute char const <Typeinfo name for OsWrapper::Thread<(unsigned int)128>>[28]
_ZTSN9OsWrapper6ThreadILj128EEE:
        DATA8
        DC8 "N9OsWrapper6ThreadILj128EEE"

        SECTION `.rodata`:CONST:REORDER:NOROOT(2)
        SECTION_GROUP _ZTS15MeasurementTask
        DATA
// __absolute char const <Typeinfo name for MeasurementTask>[18]
_ZTS15MeasurementTask:
        DATA8
        DC8 "15MeasurementTask"
        DATA16
        DC8 0, 0

        SECTION `.rodata`:CONST:REORDER:NOROOT(2)
        SECTION_GROUP _ZTS6Action
        DATA
// __absolute char const <Typeinfo name for Action>[8]
_ZTS6Action:
        DATA8
        DC8 "6Action"

        SECTION `.rodata`:CONST:REORDER:NOROOT(2)
        SECTION_GROUP _ZTS16Exh001ActionBase
        DATA
// __absolute char const <Typeinfo name for Exh001ActionBase>[19]
_ZTS16Exh001ActionBase:
        DATA8
        DC8 "16Exh001ActionBase"
        DC8 0

        SECTION `.rodata`:CONST:REORDER:NOROOT(2)
        SECTION_GROUP _ZTI9SingletonI16Exh001ActionBasevJEE
        DATA
// __absolute __class_type_info const <Typeinfo for Singleton<Exh001ActionBase, void, >>
_ZTI9SingletonI16Exh001ActionBasevJEE:
        DATA32
        DC32 _ZTVN10__cxxabiv117__class_type_infoE + 0x8
        DC32 _ZTS9SingletonI16Exh001ActionBasevJEE

        SECTION `.rodata`:CONST:REORDER:NOROOT(2)
        SECTION_GROUP _ZTS9SingletonI16Exh001ActionBasevJEE
        DATA
// __absolute char const <Typeinfo name for Singleton<Exh001ActionBase, void, >>[34]
_ZTS9SingletonI16Exh001ActionBasevJEE:
        DATA8
        DC8 "9SingletonI16Exh001ActionBasevJEE"
        DATA16
        DC8 0, 0

        SECTION `.rodata`:CONST:REORDER:NOROOT(2)
        SECTION_GROUP _ZTI9RomObject
        DATA
// __absolute __class_type_info const <Typeinfo for RomObject>
_ZTI9RomObject:
        DATA32
        DC32 _ZTVN10__cxxabiv117__class_type_infoE + 0x8, _ZTS9RomObject

        SECTION `.rodata`:CONST:REORDER:NOROOT(2)
        SECTION_GROUP _ZTS9RomObject
        DATA
// __absolute char const <Typeinfo name for RomObject>[11]
_ZTS9RomObject:
        DATA8
        DC8 "9RomObject"
        DC8 0

        SECTION `.rodata`:CONST:REORDER:NOROOT(2)
        SECTION_GROUP _ZTI9SingletonI16Exh002ActionBasevJEE
        DATA
// __absolute __class_type_info const <Typeinfo for Singleton<Exh002ActionBase, void, >>
_ZTI9SingletonI16Exh002ActionBasevJEE:
        DATA32
        DC32 _ZTVN10__cxxabiv117__class_type_infoE + 0x8
        DC32 _ZTS9SingletonI16Exh002ActionBasevJEE

        SECTION `.rodata`:CONST:REORDER:NOROOT(2)
        SECTION_GROUP _ZTS9SingletonI16Exh002ActionBasevJEE
        DATA
// __absolute char const <Typeinfo name for Singleton<Exh002ActionBase, void, >>[34]
_ZTS9SingletonI16Exh002ActionBasevJEE:
        DATA8
        DC8 "9SingletonI16Exh002ActionBasevJEE"
        DATA16
        DC8 0, 0

        SECTION `.rodata`:CONST:REORDER:NOROOT(2)
        SECTION_GROUP _ZTS15ButtonEventTaskI6ButtonI3PinI4PortI5GPIOCELh13EEEL_Z5eventEE
        DATA
// __absolute char const <Typeinfo name for ButtonEventTask<Button<Pin<Port<GPIOC>, (unsigned char)13>>, event>>[63]
_ZTS15ButtonEventTaskI6ButtonI3PinI4PortI5GPIOCELh13EEEL_Z5eventEE:
        DATA8
        DC8 0x31, 0x35, 0x42, 0x75, 0x74, 0x74, 0x6F, 0x6E
        DC8 0x45, 0x76, 0x65, 0x6E, 0x74, 0x54, 0x61, 0x73
        DC8 0x6B, 0x49, 0x36, 0x42, 0x75, 0x74, 0x74, 0x6F
        DC8 0x6E, 0x49, 0x33, 0x50, 0x69, 0x6E, 0x49, 0x34
        DC8 0x50, 0x6F, 0x72, 0x74, 0x49, 0x35, 0x47, 0x50
        DC8 0x49, 0x4F, 0x43, 0x45, 0x4C, 0x68, 0x31, 0x33
        DC8 0x45, 0x45, 0x45, 0x4C, 0x5F, 0x5A, 0x35, 0x65
        DC8 0x76, 0x65, 0x6E, 0x74, 0x45, 0x45, 0
        DC8 0

        SECTION `.rodata`:CONST:REORDER:NOROOT(2)
        SECTION_GROUP _ZTISt10ctype_base
        DATA
// __absolute __class_type_info const <Typeinfo for std::ctype_base>
_ZTISt10ctype_base:
        DATA32
        DC32 _ZTVN10__cxxabiv117__class_type_infoE + 0x8, _ZTSSt10ctype_base

        SECTION `.rodata`:CONST:REORDER:NOROOT(2)
        SECTION_GROUP _ZTSSt10ctype_base
        DATA
// __absolute char const <Typeinfo name for std::ctype_base>[15]
_ZTSSt10ctype_base:
        DATA8
        DC8 "St10ctype_base"
        DC8 0

        SECTION `.rodata`:CONST:REORDER:NOROOT(2)
        SECTION_GROUP _ZTISt5_IosbIiE
        DATA
// __absolute __class_type_info const <Typeinfo for std::_Iosb<int>>
_ZTISt5_IosbIiE:
        DATA32
        DC32 _ZTVN10__cxxabiv117__class_type_infoE + 0x8, _ZTSSt5_IosbIiE

        SECTION `.rodata`:CONST:REORDER:NOROOT(2)
        SECTION_GROUP _ZTSSt5_IosbIiE
        DATA
// __absolute char const <Typeinfo name for std::_Iosb<int>>[12]
_ZTSSt5_IosbIiE:
        DATA8
        DC8 "St5_IosbIiE"

        SECTION `.rodata`:CONST:REORDER:NOROOT(2)
        DATA
?_0:
        DATA8
        DC8 "measurementTask"

        SECTION `.rodata`:CONST:REORDER:NOROOT(2)
        DATA
?_1:
        DATA8
        DC8 "bluetoothTask"
        DATA16
        DC8 0, 0

        SECTION `.rodata`:CONST:REORDER:NOROOT(2)
        DATA
?_2:
        DATA8
        DC8 "buttonEventTask"

        SECTION `.rodata`:CONST:REORDER:NOROOT(3)
        DATA
?_3:
        DATA64
        DC64 300

        SECTION `.rodata`:CONST:REORDER:NOROOT(2)
        DATA
?_4:
        DATA8
        DC8 "Temperature"

        SECTION `.rodata`:CONST:REORDER:NOROOT(2)
        DATA
?_5:
        DATA8
        DC8 "Pressure"
        DATA
        DC8 0, 0, 0

        SECTION `.rodata`:CONST:REORDER:NOROOT(2)
        DATA
?_6:
        DATA8
        DC8 "Humidity"
        DATA
        DC8 0, 0, 0

        SECTION `.rodata`:CONST:REORDER:NOROOT(2)
        DATA
?_7:
        DATA8
        DC8 "Dew point"
        DATA16
        DC8 0, 0

        SECTION `.rodata`:CONST:REORDER:NOROOT(0)
        DATA
// C:\Users\@@@@@@@@\Documents\MyIARprojects\KursovoiK_\RtosWrapper\main.cpp
//    1 #include "rtos.hpp"         // for Rtos
?_8:
        DATA8
        DC8 0

        SECTION `.rodata`:CONST:REORDER:NOROOT(0)
        SECTION_GROUP _ZNSt6chrono12system_clock9is_steadyE
        DATA
// __absolute bool const std::chrono::system_clock::is_steady
_ZNSt6chrono12system_clock9is_steadyE:
        DATA8
        DC8 0

        SECTION `.rodata`:CONST:REORDER:NOROOT(0)
        SECTION_GROUP _ZNSt6chrono12system_clock12is_monotonicE
        DATA
// __absolute bool const std::chrono::system_clock::is_monotonic
_ZNSt6chrono12system_clock12is_monotonicE:
        DATA8
        DC8 0

        SECTION `.rodata`:CONST:REORDER:NOROOT(0)
        SECTION_GROUP _ZNSt6chrono12steady_clock9is_steadyE
        DATA
// __absolute bool const std::chrono::steady_clock::is_steady
_ZNSt6chrono12steady_clock9is_steadyE:
        DATA8
        DC8 1
//    2 #include "event.hpp"        // for Event
//    3 #include "ledconfig.h"

        SECTION `.rodata`:CONST:REORDER:NOROOT(2)
        SECTION_GROUP _ZZN8RegisterILj1073887280ELj32E13ReadWriteModeN3RCC14RCCAHB1ENRBaseEJ10FieldValueI26RCC_AHB1ENR_GPIOCEN_ValuesINS1_7AHB1ENRELj2ELj1ES0_S2_ES2_Lj1EvES3_I26RCC_AHB1ENR_GPIOBEN_ValuesIS5_Lj1ELj1ES0_S2_ES2_Lj1EvES3_I26RCC_AHB1ENR_GPIOAEN_ValuesIS5_Lj0ELj1ES0_S2_ES2_Lj1EvEEE3SetIS0_vEEvvE4mask
        DATA
// __absolute unsigned int const mask
_ZZN8RegisterILj1073887280ELj32E13ReadWriteModeN3RCC14RCCAHB1ENRBaseEJ10FieldValueI26RCC_AHB1ENR_GPIOCEN_ValuesINS1_7AHB1ENRELj2ELj1ES0_S2_ES2_Lj1EvES3_I26RCC_AHB1ENR_GPIOBEN_ValuesIS5_Lj1ELj1ES0_S2_ES2_Lj1EvES3_I26RCC_AHB1ENR_GPIOAEN_ValuesIS5_Lj0ELj1ES0_S2_ES2_Lj1EvEEE3SetIS0_vEEvvE4mask:
        DATA32
        DC32 7

        SECTION `.rodata`:CONST:REORDER:NOROOT(2)
        SECTION_GROUP _ZZN8RegisterILj1073874944ELj32E13ReadWriteModeN5GPIOC14GPIOCMODERBaseEJ10FieldValueI26GPIOC_MODER_MODER15_ValuesINS1_5MODERELj4ELj2ES0_S2_ES2_Lj2EvES3_IS4_IS5_Lj6ELj2ES0_S2_ES2_Lj2EvES3_IS4_IS5_Lj14ELj2ES0_S2_ES2_Lj2EvEEE3SetIS0_vEEvvE4mask
        DATA
// __absolute unsigned int const mask
_ZZN8RegisterILj1073874944ELj32E13ReadWriteModeN5GPIOC14GPIOCMODERBaseEJ10FieldValueI26GPIOC_MODER_MODER15_ValuesINS1_5MODERELj4ELj2ES0_S2_ES2_Lj2EvES3_IS4_IS5_Lj6ELj2ES0_S2_ES2_Lj2EvES3_IS4_IS5_Lj14ELj2ES0_S2_ES2_Lj2EvEEE3SetIS0_vEEvvE4mask:
        DATA32
        DC32 49'392

        SECTION `.rodata`:CONST:REORDER:NOROOT(2)
        SECTION_GROUP _ZZN8RegisterILj1073874976ELj32E13ReadWriteModeN5GPIOC13GPIOCAFRLBaseEJ10FieldValueI23GPIOC_AFRL_AFRL7_ValuesINS1_4AFRLELj8ELj4ES0_S2_ES2_Lj5EvES3_IS4_IS5_Lj12ELj4ES0_S2_ES2_Lj5EvES3_IS4_IS5_Lj28ELj4ES0_S2_ES2_Lj5EvEEE3SetIS0_vEEvvE4mask
        DATA
// __absolute unsigned int const mask
_ZZN8RegisterILj1073874976ELj32E13ReadWriteModeN5GPIOC13GPIOCAFRLBaseEJ10FieldValueI23GPIOC_AFRL_AFRL7_ValuesINS1_4AFRLELj8ELj4ES0_S2_ES2_Lj5EvES3_IS4_IS5_Lj12ELj4ES0_S2_ES2_Lj5EvES3_IS4_IS5_Lj28ELj4ES0_S2_ES2_Lj5EvEEE3SetIS0_vEEvvE4mask:
        DATA32
        DC32 4'026'597'120

        SECTION `.rodata`:CONST:REORDER:NOROOT(2)
        SECTION_GROUP _ZZN8RegisterILj1073873920ELj32E13ReadWriteModeN5GPIOB14GPIOBMODERBaseEJ10FieldValueI26GPIOB_MODER_MODER15_ValuesINS1_5MODERELj6ELj2ES0_S2_ES2_Lj2EvES3_IS4_IS5_Lj8ELj2ES0_S2_ES2_Lj2EvES3_IS4_IS5_Lj10ELj2ES0_S2_ES2_Lj2EvEEE3SetIS0_vEEvvE4mask
        DATA
// __absolute unsigned int const mask
_ZZN8RegisterILj1073873920ELj32E13ReadWriteModeN5GPIOB14GPIOBMODERBaseEJ10FieldValueI26GPIOB_MODER_MODER15_ValuesINS1_5MODERELj6ELj2ES0_S2_ES2_Lj2EvES3_IS4_IS5_Lj8ELj2ES0_S2_ES2_Lj2EvES3_IS4_IS5_Lj10ELj2ES0_S2_ES2_Lj2EvEEE3SetIS0_vEEvvE4mask:
        DATA32
        DC32 4'032

        SECTION `.rodata`:CONST:REORDER:NOROOT(2)
        SECTION_GROUP _ZZN8RegisterILj1073873952ELj32E13ReadWriteModeN5GPIOB13GPIOBAFRLBaseEJ10FieldValueI23GPIOB_AFRL_AFRL7_ValuesINS1_4AFRLELj12ELj4ES0_S2_ES2_Lj5EvES3_IS4_IS5_Lj16ELj4ES0_S2_ES2_Lj5EvES3_IS4_IS5_Lj20ELj4ES0_S2_ES2_Lj5EvEEE3SetIS0_vEEvvE4mask
        DATA
// __absolute unsigned int const mask
_ZZN8RegisterILj1073873952ELj32E13ReadWriteModeN5GPIOB13GPIOBAFRLBaseEJ10FieldValueI23GPIOB_AFRL_AFRL7_ValuesINS1_4AFRLELj12ELj4ES0_S2_ES2_Lj5EvES3_IS4_IS5_Lj16ELj4ES0_S2_ES2_Lj5EvES3_IS4_IS5_Lj20ELj4ES0_S2_ES2_Lj5EvEEE3SetIS0_vEEvvE4mask:
        DATA32
        DC32 16'773'120

        SECTION `.rodata`:CONST:REORDER:NOROOT(2)
        SECTION_GROUP _ZZN8RegisterILj1073887280ELj32E13ReadWriteModeN3RCC14RCCAHB1ENRBaseEJ10FieldValueI26RCC_AHB1ENR_GPIOCEN_ValuesINS1_7AHB1ENRELj2ELj1ES0_S2_ES2_Lj1EvES3_I26RCC_AHB1ENR_GPIOBEN_ValuesIS5_Lj1ELj1ES0_S2_ES2_Lj1EvES3_I26RCC_AHB1ENR_GPIOAEN_ValuesIS5_Lj0ELj1ES0_S2_ES2_Lj1EvEEE3SetIS0_vEEvvE5value
        DATA
// __absolute unsigned int const value
_ZZN8RegisterILj1073887280ELj32E13ReadWriteModeN3RCC14RCCAHB1ENRBaseEJ10FieldValueI26RCC_AHB1ENR_GPIOCEN_ValuesINS1_7AHB1ENRELj2ELj1ES0_S2_ES2_Lj1EvES3_I26RCC_AHB1ENR_GPIOBEN_ValuesIS5_Lj1ELj1ES0_S2_ES2_Lj1EvES3_I26RCC_AHB1ENR_GPIOAEN_ValuesIS5_Lj0ELj1ES0_S2_ES2_Lj1EvEEE3SetIS0_vEEvvE5value:
        DATA32
        DC32 7

        SECTION `.rodata`:CONST:REORDER:NOROOT(2)
        SECTION_GROUP _ZZN8RegisterILj1073874944ELj32E13ReadWriteModeN5GPIOC14GPIOCMODERBaseEJ10FieldValueI26GPIOC_MODER_MODER15_ValuesINS1_5MODERELj4ELj2ES0_S2_ES2_Lj2EvES3_IS4_IS5_Lj6ELj2ES0_S2_ES2_Lj2EvES3_IS4_IS5_Lj14ELj2ES0_S2_ES2_Lj2EvEEE3SetIS0_vEEvvE5value
        DATA
// __absolute unsigned int const value
_ZZN8RegisterILj1073874944ELj32E13ReadWriteModeN5GPIOC14GPIOCMODERBaseEJ10FieldValueI26GPIOC_MODER_MODER15_ValuesINS1_5MODERELj4ELj2ES0_S2_ES2_Lj2EvES3_IS4_IS5_Lj6ELj2ES0_S2_ES2_Lj2EvES3_IS4_IS5_Lj14ELj2ES0_S2_ES2_Lj2EvEEE3SetIS0_vEEvvE5value:
        DATA32
        DC32 32'928

        SECTION `.rodata`:CONST:REORDER:NOROOT(2)
        SECTION_GROUP _ZZN8RegisterILj1073874976ELj32E13ReadWriteModeN5GPIOC13GPIOCAFRLBaseEJ10FieldValueI23GPIOC_AFRL_AFRL7_ValuesINS1_4AFRLELj8ELj4ES0_S2_ES2_Lj5EvES3_IS4_IS5_Lj12ELj4ES0_S2_ES2_Lj5EvES3_IS4_IS5_Lj28ELj4ES0_S2_ES2_Lj5EvEEE3SetIS0_vEEvvE5value
        DATA
// __absolute unsigned int const value
_ZZN8RegisterILj1073874976ELj32E13ReadWriteModeN5GPIOC13GPIOCAFRLBaseEJ10FieldValueI23GPIOC_AFRL_AFRL7_ValuesINS1_4AFRLELj8ELj4ES0_S2_ES2_Lj5EvES3_IS4_IS5_Lj12ELj4ES0_S2_ES2_Lj5EvES3_IS4_IS5_Lj28ELj4ES0_S2_ES2_Lj5EvEEE3SetIS0_vEEvvE5value:
        DATA32
        DC32 1'342'199'040

        SECTION `.rodata`:CONST:REORDER:NOROOT(2)
        SECTION_GROUP _ZZN8RegisterILj1073873920ELj32E13ReadWriteModeN5GPIOB14GPIOBMODERBaseEJ10FieldValueI26GPIOB_MODER_MODER15_ValuesINS1_5MODERELj6ELj2ES0_S2_ES2_Lj2EvES3_IS4_IS5_Lj8ELj2ES0_S2_ES2_Lj2EvES3_IS4_IS5_Lj10ELj2ES0_S2_ES2_Lj2EvEEE3SetIS0_vEEvvE5value
        DATA
// __absolute unsigned int const value
_ZZN8RegisterILj1073873920ELj32E13ReadWriteModeN5GPIOB14GPIOBMODERBaseEJ10FieldValueI26GPIOB_MODER_MODER15_ValuesINS1_5MODERELj6ELj2ES0_S2_ES2_Lj2EvES3_IS4_IS5_Lj8ELj2ES0_S2_ES2_Lj2EvES3_IS4_IS5_Lj10ELj2ES0_S2_ES2_Lj2EvEEE3SetIS0_vEEvvE5value:
        DATA32
        DC32 2'688

        SECTION `.rodata`:CONST:REORDER:NOROOT(2)
        SECTION_GROUP _ZZN8RegisterILj1073873952ELj32E13ReadWriteModeN5GPIOB13GPIOBAFRLBaseEJ10FieldValueI23GPIOB_AFRL_AFRL7_ValuesINS1_4AFRLELj12ELj4ES0_S2_ES2_Lj5EvES3_IS4_IS5_Lj16ELj4ES0_S2_ES2_Lj5EvES3_IS4_IS5_Lj20ELj4ES0_S2_ES2_Lj5EvEEE3SetIS0_vEEvvE5value
        DATA
// __absolute unsigned int const value
_ZZN8RegisterILj1073873952ELj32E13ReadWriteModeN5GPIOB13GPIOBAFRLBaseEJ10FieldValueI23GPIOB_AFRL_AFRL7_ValuesINS1_4AFRLELj12ELj4ES0_S2_ES2_Lj5EvES3_IS4_IS5_Lj16ELj4ES0_S2_ES2_Lj5EvES3_IS4_IS5_Lj20ELj4ES0_S2_ES2_Lj5EvEEE3SetIS0_vEEvvE5value:
        DATA32
        DC32 5'591'040
//    4 #include "Button.h"
//    5 #include "BluetoothTask.h"

        SECTION `.text`:CODE:NOROOT(1)
          CFI Block cfiBlock0 Using cfiCommon0
          CFI Function __sti__routine
        THUMB
// static __intrinsic __interwork __vfp void __sti__routine()
__sti__routine:
        PUSH     {R4,LR}
          CFI R14 Frame(CFA, -4)
          CFI R4 Frame(CFA, -8)
          CFI CFA R13+8
        SUB      SP,SP,#+96
          CFI CFA R13+104
        LDR.N    R1,??DataTable6
        LDRB     R0,[R1, #+0]
        CMP      R0,#+0
        BNE.N    ??__sti__routine_0
        MOVS     R0,#+1
        STRB     R0,[R1, #+0]
        LDR.N    R0,??DataTable6_1
          CFI FunCall _ZN11usartDriverI6usart2EC1Ev
        BL       _ZN11usartDriverI6usart2EC1Ev
??__sti__routine_0:
        LDR.N    R1,??DataTable6_2
        LDRB     R0,[R1, #+0]
        CMP      R0,#+0
        BNE.N    ??__sti__routine_1
        MOVS     R0,#+1
        STRB     R0,[R1, #+0]
        LDR.N    R0,??DataTable6_3
          CFI FunCall _ZN12BME280DriverIL_Z15spi2TransceiverE3PinI4PortI5GPIOCELh6EEEC1Ev
        BL       _ZN12BME280DriverIL_Z15spi2TransceiverE3PinI4PortI5GPIOCELh6EEEC1Ev
??__sti__routine_1:
        LDR.N    R1,??DataTable6_4
        LDRB     R0,[R1, #+0]
        CMP      R0,#+0
        BNE.N    ??__sti__routine_2
        MOVS     R0,#+1
        STRB     R0,[R1, #+0]
        LDR.N    R1,??DataTable6_5
        ADD      R0,SP,#+72
          CFI FunCall _ZNSsC1EPKc
        BL       _ZNSsC1EPKc
        MOVS     R1,R0
        ADR.W    R2,_Z7fcnTempv
        LDR.N    R0,??DataTable6_6
          CFI FunCall _ZN11TemperatureC1ESsPFdvE
        BL       _ZN11TemperatureC1ESsPFdvE
        LDR.N    R2,??DataTable6_7
        LDR.N    R1,??DataTable6_8
          CFI FunCall __aeabi_atexit
        BL       __aeabi_atexit
        ADD      R0,SP,#+72
          CFI FunCall _ZNSsD1Ev
        BL       _ZNSsD1Ev
??__sti__routine_2:
        LDR.N    R1,??DataTable6_9
        LDRB     R0,[R1, #+0]
        CMP      R0,#+0
        BNE.N    ??__sti__routine_3
        MOVS     R0,#+1
        STRB     R0,[R1, #+0]
        LDR.N    R1,??DataTable6_10
        ADD      R0,SP,#+48
          CFI FunCall _ZNSsC1EPKc
        BL       _ZNSsC1EPKc
        ADR.W    R3,_Z8fcnPressv
        MOVS     R2,#+3
        MOVS     R1,R0
        LDR.N    R0,??DataTable6_11
          CFI FunCall _ZN11MeasurementC1ESs4UnitPFdvE
        BL       _ZN11MeasurementC1ESs4UnitPFdvE
        LDR.N    R2,??DataTable6_7
        LDR.N    R1,??DataTable6_12
          CFI FunCall __aeabi_atexit
        BL       __aeabi_atexit
        ADD      R0,SP,#+48
          CFI FunCall _ZNSsD1Ev
        BL       _ZNSsD1Ev
??__sti__routine_3:
        LDR.N    R1,??DataTable6_13
        LDRB     R0,[R1, #+0]
        CMP      R0,#+0
        BNE.N    ??__sti__routine_4
        MOVS     R0,#+1
        STRB     R0,[R1, #+0]
        LDR.N    R1,??DataTable6_14
        ADD      R0,SP,#+24
          CFI FunCall _ZNSsC1EPKc
        BL       _ZNSsC1EPKc
        ADR.W    R3,_Z6fcnHumv
        MOVS     R2,#+4
        MOVS     R1,R0
        LDR.N    R0,??DataTable6_15
          CFI FunCall _ZN11MeasurementC1ESs4UnitPFdvE
        BL       _ZN11MeasurementC1ESs4UnitPFdvE
        LDR.N    R2,??DataTable6_7
        LDR.N    R1,??DataTable6_12
          CFI FunCall __aeabi_atexit
        BL       __aeabi_atexit
        ADD      R0,SP,#+24
          CFI FunCall _ZNSsD1Ev
        BL       _ZNSsD1Ev
??__sti__routine_4:
        LDR.N    R1,??DataTable6_16
        LDRB     R0,[R1, #+0]
        CMP      R0,#+0
        BNE.N    ??__sti__routine_5
        MOVS     R0,#+1
        STRB     R0,[R1, #+0]
        LDR.N    R1,??DataTable6_17
        MOV      R0,SP
          CFI FunCall _ZNSsC1EPKc
        BL       _ZNSsC1EPKc
        ADR.W    R2,_Z7fcnDewPv
        MOVS     R1,R0
        LDR.N    R0,??DataTable6_18
          CFI FunCall _ZN11TemperatureC1ESsPFdvE
        BL       _ZN11TemperatureC1ESsPFdvE
        LDR.N    R2,??DataTable6_7
        LDR.N    R1,??DataTable6_8
          CFI FunCall __aeabi_atexit
        BL       __aeabi_atexit
        MOV      R0,SP
          CFI FunCall _ZNSsD1Ev
        BL       _ZNSsD1Ev
??__sti__routine_5:
        LDR.N    R1,??DataTable6_19
        LDRB     R0,[R1, #+0]
        CMP      R0,#+0
        BNE.N    ??__sti__routine_6
        MOVS     R0,#+1
        STRB     R0,[R1, #+0]
//    6 #include "ButtonEventTask.h"
//    7 #include "MeasurementTask.h"
//    8 #include "rccregisters.hpp" // for RCC
//    9 
//   10 #include "Application/Diagnostic/GlobalStatus.hpp"
//   11 #include <gpioaregisters.hpp>  // for GPIOA
//   12 #include <gpiobregisters.hpp>  // for GPIOB
//   13 #include <gpiocregisters.hpp>  // for GPIOC
//   14 
//   15 #include "Measurementconfig.h"
//   16 #include "epddriverconfig.h"
        LDR.N    R0,??DataTable6_20
          CFI FunCall _ZN15EPDDriver4inch2IL_Z15spi1TransceiverE3PinI4PortI5GPIOBELh13EES0_IS3_Lh14EES0_IS3_Lh15EES0_IS3_Lh1EEEC1Ev
        BL       _ZN15EPDDriver4inch2IL_Z15spi1TransceiverE3PinI4PortI5GPIOBELh13EES0_IS3_Lh14EES0_IS3_Lh15EES0_IS3_Lh1EEEC1Ev
??__sti__routine_6:
        LDR.N    R4,??DataTable6_21
        MOVS     R0,#+1
        STR      R0,[SP, #+0]
        LDR.N    R0,??DataTable6_22
        LDRD     R2,R3,[R0, #+0]
        MOVS     R0,R4
          CFI FunCall _ZN9OsWrapper5EventC1ENSt6chrono8durationIxSt5ratioILx1ELx1000EEEEj
        BL       _ZN9OsWrapper5EventC1ENSt6chrono8durationIxSt5ratioILx1ELx1000EEEEj
        LDR.N    R2,??DataTable6_7
        LDR.N    R1,??DataTable6_23
          CFI FunCall __aeabi_atexit
        BL       __aeabi_atexit
        LDR.N    R0,??DataTable6_24
          CFI FunCall _ZN15ButtonEventTaskI6ButtonI3PinI4PortI5GPIOCELh13EEEL_Z5eventEEC1Ev
        BL       _ZN15ButtonEventTaskI6ButtonI3PinI4PortI5GPIOCELh13EEEL_Z5eventEEC1Ev
        LDR.N    R0,??DataTable6_25
          CFI FunCall _ZN13BluetoothTaskC1Ev
        BL       _ZN13BluetoothTaskC1Ev
        MOVS     R1,R4
        LDR.N    R0,??DataTable6_26
          CFI FunCall _ZN15MeasurementTaskC1ERN9OsWrapper5EventE
        BL       _ZN15MeasurementTaskC1ERN9OsWrapper5EventE
        ADD      SP,SP,#+96
          CFI CFA R13+8
        POP      {R4,PC}          ;; return
          CFI EndBlock cfiBlock0

        SECTION `.bss`:DATA:REORDER:NOROOT(0)
        SECTION_GROUP _ZGV20bluetoothTransceiver
        DATA
// __absolute unsigned char <_ZGV20bluetoothTransceiver>
_ZGV20bluetoothTransceiver:
        DS8 1

        SECTION `.bss`:DATA:REORDER:NOROOT(0)
        SECTION_GROUP _ZGV6bme280
        DATA
// __absolute unsigned char <_ZGV6bme280>
_ZGV6bme280:
        DS8 1

        SECTION `.bss`:DATA:REORDER:NOROOT(0)
        SECTION_GROUP _ZGV11temperature
        DATA
// __absolute unsigned char <_ZGV11temperature>
_ZGV11temperature:
        DS8 1

        SECTION `.bss`:DATA:REORDER:NOROOT(0)
        SECTION_GROUP _ZGV8pressure
        DATA
// __absolute unsigned char <_ZGV8pressure>
_ZGV8pressure:
        DS8 1

        SECTION `.bss`:DATA:REORDER:NOROOT(0)
        SECTION_GROUP _ZGV8humidity
        DATA
// __absolute unsigned char <_ZGV8humidity>
_ZGV8humidity:
        DS8 1

        SECTION `.bss`:DATA:REORDER:NOROOT(0)
        SECTION_GROUP _ZGV8dewPoint
        DATA
// __absolute unsigned char <_ZGV8dewPoint>
_ZGV8dewPoint:
        DS8 1

        SECTION `.bss`:DATA:REORDER:NOROOT(0)
        SECTION_GROUP _ZGV9epDisplay
        DATA
// __absolute unsigned char <_ZGV9epDisplay>
_ZGV9epDisplay:
        DS8 1

        SECTION `.bss`:DATA:REORDER:NOROOT(2)
        SECTION_GROUP bluetoothTransceiver
        DATA
// __absolute usartDriver<usart2> bluetoothTransceiver
bluetoothTransceiver:
        DS8 2'068

        SECTION `.data`:DATA:REORDER:NOROOT(2)
        SECTION_GROUP spi2Transceiver
        DATA
// __absolute SpiDriver<spi2> spi2Transceiver
spi2Transceiver:
        DATA8
        DC8 0, 0, 0, 0, 0, 0, 0, 0, 0, 0, 0, 0, 0, 0, 0, 0, 0, 0, 0, 0, 0, 0, 0
        DC8 0, 0, 0, 0, 0, 0, 0, 0, 0, 0, 0, 0, 0, 0, 0, 0, 0, 0, 0, 0, 0, 0, 0
        DC8 0, 0, 0, 0, 0, 0, 0, 0, 0, 0, 0, 0, 0, 0, 0, 0, 0, 0, 0, 0, 0, 0, 0
        DC8 0, 0, 0, 0, 0, 0, 0, 0, 0, 0, 0, 0, 0, 0, 0, 0, 0, 0, 0, 0, 0, 0, 0
        DC8 0, 0, 0, 0, 0, 0, 0, 0, 0, 0, 0, 0, 0, 0, 0, 0, 0, 0, 0, 0, 0, 0, 0
        DC8 0, 0, 0, 0, 0, 0, 0, 0, 0, 0, 0, 0, 0, 0, 0, 0, 0, 0, 0, 0, 0, 0, 0
        DC8 0, 0, 0, 0, 0, 0, 0, 0, 0, 0, 0, 0, 0, 0, 0, 0, 0, 0, 0, 0, 0, 0, 0
        DC8 0, 0, 0, 0, 0, 0, 0, 0, 0, 0, 0, 0, 0, 0, 0, 0, 0, 0, 0, 0, 0, 0, 0
        DC8 0, 0, 0, 0, 0, 0, 0, 0, 0, 0, 0, 0, 0, 0, 0, 0, 0, 0, 0, 0, 0, 0, 0
        DC8 0, 0, 0, 0, 0, 0, 0, 0, 0, 0, 0, 0, 0, 0, 0, 0, 0, 0, 0, 0, 0, 0, 0
        DC8 0, 0, 0, 0, 0, 0, 0, 0, 0, 0, 0, 0, 0, 0, 0, 0, 0, 0, 0, 0, 0, 0, 0
        DC8 0, 0, 0, 0, 0, 0, 0, 0, 0, 0, 0, 0, 0, 0, 0, 0, 0, 0, 0, 0, 0, 0, 0
        DC8 0, 0, 0, 0, 0, 0, 0, 0, 0, 0, 0, 0, 0, 0, 0, 0, 0, 0, 0, 0, 0, 0, 0
        DC8 0, 0, 0, 0, 0, 0, 0, 0, 0, 0, 0, 0, 0, 0, 0, 0, 0, 0, 0, 0, 0, 0, 0
        DC8 0, 0, 0, 0, 0, 0, 0, 0, 0, 0, 0, 0, 0, 0, 0, 0, 0, 0, 0, 0, 0, 0, 0
        DC8 0, 0, 0, 0, 0, 0, 0, 0, 0, 0, 0, 0, 0, 0, 0, 0, 0, 0, 0, 0, 0, 0, 0
        DC8 0, 0, 0, 0, 0, 0, 0, 0, 0, 0, 0, 0, 0, 0, 0, 0, 0, 0, 0, 0, 0, 0, 0
        DC8 0, 0, 0, 0, 0, 0, 0, 0, 0
        DATA32
        DC32 1, 1
        DATA8
        DC8 0, 0, 0, 0
        DATA32
        DC32 0, 0

        SECTION `.data`:DATA:REORDER:NOROOT(2)
        SECTION_GROUP spi1Transceiver
        DATA
// __absolute SpiDriver<spi1> spi1Transceiver
spi1Transceiver:
        DATA8
        DC8 0, 0, 0, 0, 0, 0, 0, 0, 0, 0, 0, 0, 0, 0, 0, 0, 0, 0, 0, 0, 0, 0, 0
        DC8 0, 0, 0, 0, 0, 0, 0, 0, 0, 0, 0, 0, 0, 0, 0, 0, 0, 0, 0, 0, 0, 0, 0
        DC8 0, 0, 0, 0, 0, 0, 0, 0, 0, 0, 0, 0, 0, 0, 0, 0, 0, 0, 0, 0, 0, 0, 0
        DC8 0, 0, 0, 0, 0, 0, 0, 0, 0, 0, 0, 0, 0, 0, 0, 0, 0, 0, 0, 0, 0, 0, 0
        DC8 0, 0, 0, 0, 0, 0, 0, 0, 0, 0, 0, 0, 0, 0, 0, 0, 0, 0, 0, 0, 0, 0, 0
        DC8 0, 0, 0, 0, 0, 0, 0, 0, 0, 0, 0, 0, 0, 0, 0, 0, 0, 0, 0, 0, 0, 0, 0
        DC8 0, 0, 0, 0, 0, 0, 0, 0, 0, 0, 0, 0, 0, 0, 0, 0, 0, 0, 0, 0, 0, 0, 0
        DC8 0, 0, 0, 0, 0, 0, 0, 0, 0, 0, 0, 0, 0, 0, 0, 0, 0, 0, 0, 0, 0, 0, 0
        DC8 0, 0, 0, 0, 0, 0, 0, 0, 0, 0, 0, 0, 0, 0, 0, 0, 0, 0, 0, 0, 0, 0, 0
        DC8 0, 0, 0, 0, 0, 0, 0, 0, 0, 0, 0, 0, 0, 0, 0, 0, 0, 0, 0, 0, 0, 0, 0
        DC8 0, 0, 0, 0, 0, 0, 0, 0, 0, 0, 0, 0, 0, 0, 0, 0, 0, 0, 0, 0, 0, 0, 0
        DC8 0, 0, 0, 0, 0, 0, 0, 0, 0, 0, 0, 0, 0, 0, 0, 0, 0, 0, 0, 0, 0, 0, 0
        DC8 0, 0, 0, 0, 0, 0, 0, 0, 0, 0, 0, 0, 0, 0, 0, 0, 0, 0, 0, 0, 0, 0, 0
        DC8 0, 0, 0, 0, 0, 0, 0, 0, 0, 0, 0, 0, 0, 0, 0, 0, 0, 0, 0, 0, 0, 0, 0
        DC8 0, 0, 0, 0, 0, 0, 0, 0, 0, 0, 0, 0, 0, 0, 0, 0, 0, 0, 0, 0, 0, 0, 0
        DC8 0, 0, 0, 0, 0, 0, 0, 0, 0, 0, 0, 0, 0, 0, 0, 0, 0, 0, 0, 0, 0, 0, 0
        DC8 0, 0, 0, 0, 0, 0, 0, 0, 0, 0, 0, 0, 0, 0, 0, 0, 0, 0, 0, 0, 0, 0, 0
        DC8 0, 0, 0, 0, 0, 0, 0, 0, 0
        DATA32
        DC32 1, 1
        DATA8
        DC8 0, 0, 0, 0
        DATA32
        DC32 0, 0

        SECTION `.bss`:DATA:REORDER:NOROOT(3)
        SECTION_GROUP bme280
        DATA
// __absolute BME280Driver<spi2Transceiver, PinCSforBME280> bme280
bme280:
        DS8 96

        SECTION `.data`:DATA:REORDER:NOROOT(2)
        DATA
// __absolute Unit temperatureUnits[3]
temperatureUnits:
        DATA8
        DC8 0, 2, 1, 0

        SECTION `.text`:CODE:NOROOT(2)
          CFI Block cfiBlock1 Using cfiCommon0
          CFI Function _Z7fcnTempv
          CFI NoCalls
        THUMB
// __interwork __vfp double fcnTemp()
_Z7fcnTempv:
        LDR.N    R0,??DataTable6_3
        LDR      R0,[R0, #+80]
        VLDR     D0,[R0, #0]
        BX       LR               ;; return
          CFI EndBlock cfiBlock1

        SECTION `.text`:CODE:NOROOT(2)
          CFI Block cfiBlock2 Using cfiCommon0
          CFI Function _Z8fcnPressv
          CFI NoCalls
        THUMB
// __interwork __vfp double fcnPress()
_Z8fcnPressv:
        LDR.N    R0,??DataTable6_3
        LDR      R0,[R0, #+84]
        VLDR     D0,[R0, #0]
        BX       LR               ;; return
          CFI EndBlock cfiBlock2

        SECTION `.text`:CODE:NOROOT(2)
          CFI Block cfiBlock3 Using cfiCommon0
          CFI Function _Z6fcnHumv
          CFI NoCalls
        THUMB
// __interwork __vfp double fcnHum()
_Z6fcnHumv:
        LDR.N    R0,??DataTable6_3
        LDR      R0,[R0, #+88]
        VLDR     D0,[R0, #0]
        BX       LR               ;; return
          CFI EndBlock cfiBlock3

        SECTION `.text`:CODE:NOROOT(2)
          CFI Block cfiBlock4 Using cfiCommon0
          CFI Function _Z7fcnDewPv
          CFI NoCalls
        THUMB
// __interwork __vfp double fcnDewP()
_Z7fcnDewPv:
        LDR.N    R0,??DataTable6_3
        LDR      R0,[R0, #+92]
        VLDR     D0,[R0, #0]
        BX       LR               ;; return
          CFI EndBlock cfiBlock4

        SECTION `.bss`:DATA:REORDER:NOROOT(2)
        SECTION_GROUP temperature
        DATA
// __absolute Temperature temperature
temperature:
        DS8 44

        SECTION `.bss`:DATA:REORDER:NOROOT(2)
        SECTION_GROUP pressure
        DATA
// __absolute Measurement pressure
pressure:
        DS8 44

        SECTION `.bss`:DATA:REORDER:NOROOT(2)
        SECTION_GROUP humidity
        DATA
// __absolute Measurement humidity
humidity:
        DS8 44

        SECTION `.bss`:DATA:REORDER:NOROOT(2)
        SECTION_GROUP dewPoint
        DATA
// __absolute Temperature dewPoint
dewPoint:
        DS8 44

        SECTION `.data`:DATA:REORDER:NOROOT(2)
        SECTION_GROUP measurements
        DATA
// __absolute Measurement *measurements[4]
measurements:
        DATA32
        DC32 temperature, pressure, humidity, dewPoint

        SECTION `.data`:DATA:REORDER:NOROOT(2)
        SECTION_GROUP userUnits
        DATA
// __absolute Unit userUnits[4]
userUnits:
        DATA8
        DC8 1, 3, 4, 1

        SECTION `.rodata`:CONST:REORDER:NOROOT(3)
        DATA
?_9:
        DATA64
        DC64 1'000

        SECTION `.rodata`:CONST:REORDER:NOROOT(3)
        DATA
?_10:
        DATA64
        DC64 100

        SECTION `.bss`:DATA:REORDER:NOROOT(2)
        SECTION_GROUP _ZZN15MeasurementTask11UnitsUpdateEvE7counter
        DATA
// __absolute int counter
_ZZN15MeasurementTask11UnitsUpdateEvE7counter:
        DS8 4

        SECTION `.data`:DATA:REORDER:NOROOT(2)
        SECTION_GROUP _ZN9SingletonI16Exh001ActionBasevJEE8instanceE
        DATA
// __absolute Exh001ActionBase Singleton<Exh001ActionBase>::instance
_ZN9SingletonI16Exh001ActionBasevJEE8instanceE:
        DATA32
        DC32 _ZTV16Exh001ActionBase + 0x8

        SECTION `.rodata`:CONST:REORDER:NOROOT(3)
        SECTION_GROUP _ZN12GlobalStatus7actionsE
        DATA
// __absolute GlobalStatus::tActionArray const GlobalStatus::actions
_ZN12GlobalStatus7actionsE:
        DATA32
        DC32 _ZN9SingletonI16Exh001ActionBasevJEE8instanceE
        DC8 0, 0, 0, 0
        DATA64
        DC64 1
        DATA32
        DC32 _ZN9SingletonI16Exh001ActionBasevJEE8instanceE
        DC8 0, 0, 0, 0
        DATA64
        DC64 1

        SECTION `.text`:CODE:NOROOT(2)
          CFI Block cfiBlock5 Using cfiCommon0
          CFI Function SysCtlDelay
          CFI NoCalls
        THUMB
// __interwork __vfp void SysCtlDelay(unsigned long)
SysCtlDelay:
        subs    r0, #1
        bne.n   SysCtlDelay
        bx      lr
        BX       LR               ;; return
          CFI EndBlock cfiBlock5

        SECTION `.bss`:DATA:REORDER:NOROOT(0)
        SECTION_GROUP epDisplay
        DATA
// __absolute EPDDriver4inch2<spi1Transceiver, PinCSforEPD, PinDCforEPD, PinRSTforEPD, PinBSYforEPD> epDisplay
epDisplay:
        DS8 1

        SECTION `.data`:DATA:REORDER:NOROOT(2)
        DATA
//   17 std::uint32_t SystemCoreClock = 16'000'000U;
SystemCoreClock:
        DATA32
        DC32 16'000'000
//   18 #include "stdio.h"
//   19 #include <iostream>
//   20 #include "usart2registers.hpp"
//   21 #include "nvicregisters.hpp"
//   22 #include "spi1registers.hpp"
//   23 #include "spi2registers.hpp"
//   24 
//   25 
//   26 extern "C" {

        SECTION `.text`:CODE:NOROOT(1)
          CFI Block cfiBlock6 Using cfiCommon0
          CFI Function __low_level_init
        THUMB
//   27 int __low_level_init(void)
//   28 {
__low_level_init:
        PUSH     {R4-R6,LR}
          CFI R14 Frame(CFA, -4)
          CFI R6 Frame(CFA, -8)
          CFI R5 Frame(CFA, -12)
          CFI R4 Frame(CFA, -16)
          CFI CFA R13+16
//   29   //Switch on external 16 MHz oscillator
//   30   RCC::CR::HSION::On::Set();
          CFI FunCall _ZN14FieldValueBaseI19RCC_CR_HSION_ValuesIN3RCC2CRELj0ELj1E13ReadWriteModeNS1_9RCCCRBaseEES4_Lj1EE3SetIS3_vEEvv
        BL       _ZN14FieldValueBaseI19RCC_CR_HSION_ValuesIN3RCC2CRELj0ELj1E13ReadWriteModeNS1_9RCCCRBaseEES4_Lj1EE3SetIS3_vEEvv
//   31   while (RCC::CR::HSIRDY::NotReady::IsSet())
??__low_level_init_0:
          CFI FunCall _ZN14FieldValueBaseI20RCC_CR_HSIRDY_ValuesIN3RCC2CRELj1ELj1E8ReadModeNS1_9RCCCRBaseEES4_Lj0EE5IsSetIS3_vEEbv
        BL       _ZN14FieldValueBaseI20RCC_CR_HSIRDY_ValuesIN3RCC2CRELj1ELj1E8ReadModeNS1_9RCCCRBaseEES4_Lj0EE5IsSetIS3_vEEbv
        CMP      R0,#+0
        BNE.N    ??__low_level_init_0
//   32   {
//   33     
//   34   }
//   35   //Switch system clock on external oscillator
//   36   RCC::CFGR::SW::Hsi::Set();
          CFI FunCall _ZN14FieldValueBaseI18RCC_CFGR_SW_ValuesIN3RCC4CFGRELj0ELj2E13ReadWriteModeNS1_11RCCCFGRBaseEES4_Lj0EE3SetIS3_vEEvv
        BL       _ZN14FieldValueBaseI18RCC_CFGR_SW_ValuesIN3RCC4CFGRELj0ELj2E13ReadWriteModeNS1_11RCCCFGRBaseEES4_Lj0EE3SetIS3_vEEvv
//   37   while (!RCC::CFGR::SWS::Hsi::IsSet())
??__low_level_init_1:
          CFI FunCall _ZN14FieldValueBaseI19RCC_CFGR_SWS_ValuesIN3RCC4CFGRELj2ELj2E8ReadModeNS1_11RCCCFGRBaseEES4_Lj0EE5IsSetIS3_vEEbv
        BL       _ZN14FieldValueBaseI19RCC_CFGR_SWS_ValuesIN3RCC4CFGRELj2ELj2E8ReadModeNS1_11RCCCFGRBaseEES4_Lj0EE5IsSetIS3_vEEbv
        CMP      R0,#+0
        BEQ.N    ??__low_level_init_1
//   38   {
//   39     
//   40   }
//   41   
//   42   RCC::AHB1ENR::GPIOAEN::Enable::Set();
          CFI FunCall _ZN14FieldValueBaseI26RCC_AHB1ENR_GPIOAEN_ValuesIN3RCC7AHB1ENRELj0ELj1E13ReadWriteModeNS1_14RCCAHB1ENRBaseEES4_Lj1EE3SetIS3_vEEvv
        BL       _ZN14FieldValueBaseI26RCC_AHB1ENR_GPIOAEN_ValuesIN3RCC7AHB1ENRELj0ELj1E13ReadWriteModeNS1_14RCCAHB1ENRBaseEES4_Lj1EE3SetIS3_vEEvv
//   43    //USART config
//   44   RCC::APB1ENR::USART2EN::Enable::Set();
          CFI FunCall _ZN14FieldValueBaseI25RCC_AHB1ENR_DMA2EN_ValuesIN3RCC7APB1ENRELj17ELj1E13ReadWriteModeNS1_14RCCAPB1ENRBaseEES4_Lj1EE3SetIS3_vEEvv
        BL       _ZN14FieldValueBaseI25RCC_AHB1ENR_DMA2EN_ValuesIN3RCC7APB1ENRELj17ELj1E13ReadWriteModeNS1_14RCCAPB1ENRBaseEES4_Lj1EE3SetIS3_vEEvv
//   45   GPIOA::MODER::MODER3::Alternate::Set();
          CFI FunCall _ZN14FieldValueBaseI26GPIOA_MODER_MODER15_ValuesIN5GPIOA5MODERELj6ELj2E13ReadWriteModeNS1_14GPIOAMODERBaseEES4_Lj2EE3SetIS3_vEEvv
        BL       _ZN14FieldValueBaseI26GPIOA_MODER_MODER15_ValuesIN5GPIOA5MODERELj6ELj2E13ReadWriteModeNS1_14GPIOAMODERBaseEES4_Lj2EE3SetIS3_vEEvv
//   46   GPIOA::MODER::MODER2::Alternate::Set();
          CFI FunCall _ZN14FieldValueBaseI26GPIOA_MODER_MODER15_ValuesIN5GPIOA5MODERELj4ELj2E13ReadWriteModeNS1_14GPIOAMODERBaseEES4_Lj2EE3SetIS3_vEEvv
        BL       _ZN14FieldValueBaseI26GPIOA_MODER_MODER15_ValuesIN5GPIOA5MODERELj4ELj2E13ReadWriteModeNS1_14GPIOAMODERBaseEES4_Lj2EE3SetIS3_vEEvv
//   47   GPIOA::AFRL::AFRL3::Af7::Set();
          CFI FunCall _ZN14FieldValueBaseI23GPIOA_AFRL_AFRL7_ValuesIN5GPIOA4AFRLELj12ELj4E13ReadWriteModeNS1_13GPIOAAFRLBaseEES4_Lj7EE3SetIS3_vEEvv
        BL       _ZN14FieldValueBaseI23GPIOA_AFRL_AFRL7_ValuesIN5GPIOA4AFRLELj12ELj4E13ReadWriteModeNS1_13GPIOAAFRLBaseEES4_Lj7EE3SetIS3_vEEvv
//   48   GPIOA::AFRL::AFRL2::Af7::Set();
          CFI FunCall _ZN14FieldValueBaseI23GPIOA_AFRL_AFRL7_ValuesIN5GPIOA4AFRLELj8ELj4E13ReadWriteModeNS1_13GPIOAAFRLBaseEES4_Lj7EE3SetIS3_vEEvv
        BL       _ZN14FieldValueBaseI23GPIOA_AFRL_AFRL7_ValuesIN5GPIOA4AFRLELj8ELj4E13ReadWriteModeNS1_13GPIOAAFRLBaseEES4_Lj7EE3SetIS3_vEEvv
//   49   GPIOA::PUPDR::PUPDR2::NoPullUpNoPullDown::Set();
          CFI FunCall _ZN14FieldValueBaseI26GPIOA_PUPDR_PUPDR15_ValuesIN5GPIOA5PUPDRELj4ELj2E13ReadWriteModeNS1_14GPIOAPUPDRBaseEES4_Lj0EE3SetIS3_vEEvv
        BL       _ZN14FieldValueBaseI26GPIOA_PUPDR_PUPDR15_ValuesIN5GPIOA5PUPDRELj4ELj2E13ReadWriteModeNS1_14GPIOAPUPDRBaseEES4_Lj0EE3SetIS3_vEEvv
//   50   GPIOA::PUPDR::PUPDR3::PullUp::Set();
          CFI FunCall _ZN14FieldValueBaseI26GPIOA_PUPDR_PUPDR15_ValuesIN5GPIOA5PUPDRELj6ELj2E13ReadWriteModeNS1_14GPIOAPUPDRBaseEES4_Lj1EE3SetIS3_vEEvv
        BL       _ZN14FieldValueBaseI26GPIOA_PUPDR_PUPDR15_ValuesIN5GPIOA5PUPDRELj6ELj2E13ReadWriteModeNS1_14GPIOAPUPDRBaseEES4_Lj1EE3SetIS3_vEEvv
//   51   USART2::CR1::OVER8::OversamplingBy16::Set();
          CFI FunCall _ZN14FieldValueBaseI23USART2_CR1_OVER8_ValuesIN6USART23CR1ELj15ELj1E13ReadWriteModeNS1_13USART2CR1BaseEES4_Lj0EE3SetIS3_vEEvv
        BL       _ZN14FieldValueBaseI23USART2_CR1_OVER8_ValuesIN6USART23CR1ELj15ELj1E13ReadWriteModeNS1_13USART2CR1BaseEES4_Lj0EE3SetIS3_vEEvv
//   52   USART2::CR1::M::Data8bits::Set();
          CFI FunCall _ZN14FieldValueBaseI19USART2_CR1_M_ValuesIN6USART23CR1ELj12ELj1E13ReadWriteModeNS1_13USART2CR1BaseEES4_Lj0EE3SetIS3_vEEvv
        BL       _ZN14FieldValueBaseI19USART2_CR1_M_ValuesIN6USART23CR1ELj12ELj1E13ReadWriteModeNS1_13USART2CR1BaseEES4_Lj0EE3SetIS3_vEEvv
//   53   USART2::CR2::STOP::OneStopBit::Set();
          CFI FunCall _ZN14FieldValueBaseI22USART2_CR2_STOP_ValuesIN6USART23CR2ELj12ELj2E13ReadWriteModeNS1_13USART2CR2BaseEES4_Lj0EE3SetIS3_vEEvv
        BL       _ZN14FieldValueBaseI22USART2_CR2_STOP_ValuesIN6USART23CR2ELj12ELj2E13ReadWriteModeNS1_13USART2CR2BaseEES4_Lj0EE3SetIS3_vEEvv
//   54   USART2::CR1::PCE::ParityControlDisable::Set();
          CFI FunCall _ZN14FieldValueBaseI21USART2_CR1_PCE_ValuesIN6USART23CR1ELj10ELj1E13ReadWriteModeNS1_13USART2CR1BaseEES4_Lj0EE3SetIS3_vEEvv
        BL       _ZN14FieldValueBaseI21USART2_CR1_PCE_ValuesIN6USART23CR1ELj10ELj1E13ReadWriteModeNS1_13USART2CR1BaseEES4_Lj0EE3SetIS3_vEEvv
//   55   USART2::CR1::RE::Enable::Set();
          CFI FunCall _ZN14FieldValueBaseI20USART2_CR1_RE_ValuesIN6USART23CR1ELj2ELj1E13ReadWriteModeNS1_13USART2CR1BaseEES4_Lj1EE3SetIS3_vEEvv
        BL       _ZN14FieldValueBaseI20USART2_CR1_RE_ValuesIN6USART23CR1ELj2ELj1E13ReadWriteModeNS1_13USART2CR1BaseEES4_Lj1EE3SetIS3_vEEvv
//   56   NVIC::ISER1::Write(1<<6);
        MOVS     R0,#+64
          CFI FunCall _ZN12RegisterBaseILj3758153988ELj32E13ReadWriteModeE5WriteIS0_vEEvj
        BL       _ZN12RegisterBaseILj3758153988ELj32E13ReadWriteModeE5WriteIS0_vEEvj
//   57   USART2::CR1::RXNEIE::InterruptWhenRXNE::Set();
          CFI FunCall _ZN14FieldValueBaseI24USART2_CR1_RXNEIE_ValuesIN6USART23CR1ELj5ELj1E13ReadWriteModeNS1_13USART2CR1BaseEES4_Lj1EE3SetIS3_vEEvv
        BL       _ZN14FieldValueBaseI24USART2_CR1_RXNEIE_ValuesIN6USART23CR1ELj5ELj1E13ReadWriteModeNS1_13USART2CR1BaseEES4_Lj1EE3SetIS3_vEEvv
//   58   constexpr uint32_t CLC = 16'000'000U;
        LDR.N    R4,??DataTable6_27  ;; 0xf42400
//   59   constexpr uint32_t BaudRate=9600;
        MOV      R5,#+9600
//   60   uint32_t USART_DIV = CLC/(BaudRate*8*(2 - USART2::CR1::OVER8::Get()));
          CFI FunCall _ZN13RegisterFieldIN6USART23CR1ELj15ELj1E13ReadWriteModevE3GetIS2_vEEjv
        BL       _ZN13RegisterFieldIN6USART23CR1ELj15ELj1E13ReadWriteModevE3GetIS2_vEEjv
        RSBS     R0,R0,#+2
        MOVS     R1,#+76800
        MULS     R0,R1,R0
        LDR.N    R1,??DataTable6_27  ;; 0xf42400
        UDIV     R6,R1,R0
//   61   USART2::BRR::DIV_Mantissa::Set(USART_DIV);
        MOVS     R0,R6
          CFI FunCall _ZN13RegisterFieldIN6USART23BRRELj4ELj12E13ReadWriteModevE3SetIS2_vEEvj
        BL       _ZN13RegisterFieldIN6USART23BRRELj4ELj12E13ReadWriteModevE3SetIS2_vEEvj
//   62  
//   63   
//   64   //SPI2 config
//   65   RCC::APB1ENR::SPI2EN::Enable::Set();
          CFI FunCall _ZN14FieldValueBaseI25RCC_AHB1ENR_DMA2EN_ValuesIN3RCC7APB1ENRELj14ELj1E13ReadWriteModeNS1_14RCCAPB1ENRBaseEES4_Lj1EE3SetIS3_vEEvv
        BL       _ZN14FieldValueBaseI25RCC_AHB1ENR_DMA2EN_ValuesIN3RCC7APB1ENRELj14ELj1E13ReadWriteModeNS1_14RCCAPB1ENRBaseEES4_Lj1EE3SetIS3_vEEvv
//   66   NVIC::ISER1::Write(1<<4);
        MOVS     R0,#+16
          CFI FunCall _ZN12RegisterBaseILj3758153988ELj32E13ReadWriteModeE5WriteIS0_vEEvj
        BL       _ZN12RegisterBaseILj3758153988ELj32E13ReadWriteModeE5WriteIS0_vEEvj
//   67   SPI2::CR1::MSTR::Master::Set();
          CFI FunCall _ZN14FieldValueBaseI20SPI2_CR1_MSTR_ValuesIN4SPI23CR1ELj2ELj1E13ReadWriteModeNS1_11SPI2CR1BaseEES4_Lj1EE3SetIS3_vEEvv
        BL       _ZN14FieldValueBaseI20SPI2_CR1_MSTR_ValuesIN4SPI23CR1ELj2ELj1E13ReadWriteModeNS1_11SPI2CR1BaseEES4_Lj1EE3SetIS3_vEEvv
//   68   SPI2::CR1::DFF::Data8bit::Set();
          CFI FunCall _ZN14FieldValueBaseI19SPI2_CR1_DFF_ValuesIN4SPI23CR1ELj11ELj1E13ReadWriteModeNS1_11SPI2CR1BaseEES4_Lj0EE3SetIS3_vEEvv
        BL       _ZN14FieldValueBaseI19SPI2_CR1_DFF_ValuesIN4SPI23CR1ELj11ELj1E13ReadWriteModeNS1_11SPI2CR1BaseEES4_Lj0EE3SetIS3_vEEvv
//   69   SPI2::CR1::BR::PclockDiv2::Set();
          CFI FunCall _ZN14FieldValueBaseI18SPI2_CR1_BR_ValuesIN4SPI23CR1ELj3ELj3E13ReadWriteModeNS1_11SPI2CR1BaseEES4_Lj0EE3SetIS3_vEEvv
        BL       _ZN14FieldValueBaseI18SPI2_CR1_BR_ValuesIN4SPI23CR1ELj3ELj3E13ReadWriteModeNS1_11SPI2CR1BaseEES4_Lj0EE3SetIS3_vEEvv
//   70   SPI2::CR1::CRCEN::CrcCalcDisable::Set();
          CFI FunCall _ZN14FieldValueBaseI21SPI2_CR1_CRCEN_ValuesIN4SPI23CR1ELj13ELj1E13ReadWriteModeNS1_11SPI2CR1BaseEES4_Lj0EE3SetIS3_vEEvv
        BL       _ZN14FieldValueBaseI21SPI2_CR1_CRCEN_ValuesIN4SPI23CR1ELj13ELj1E13ReadWriteModeNS1_11SPI2CR1BaseEES4_Lj0EE3SetIS3_vEEvv
//   71   SPI2::CR1::CPOL::High::Set();
          CFI FunCall _ZN14FieldValueBaseI20SPI2_CR1_CPOL_ValuesIN4SPI23CR1ELj1ELj1E13ReadWriteModeNS1_11SPI2CR1BaseEES4_Lj1EE3SetIS3_vEEvv
        BL       _ZN14FieldValueBaseI20SPI2_CR1_CPOL_ValuesIN4SPI23CR1ELj1ELj1E13ReadWriteModeNS1_11SPI2CR1BaseEES4_Lj1EE3SetIS3_vEEvv
//   72   SPI2::CR1::CPHA::Phase2edge::Set();
          CFI FunCall _ZN14FieldValueBaseI20SPI2_CR1_CPHA_ValuesIN4SPI23CR1ELj0ELj1E13ReadWriteModeNS1_11SPI2CR1BaseEES4_Lj1EE3SetIS3_vEEvv
        BL       _ZN14FieldValueBaseI20SPI2_CR1_CPHA_ValuesIN4SPI23CR1ELj0ELj1E13ReadWriteModeNS1_11SPI2CR1BaseEES4_Lj1EE3SetIS3_vEEvv
//   73   SPI2::CR1::LSBFIRST::MsbFisrt::Set();
          CFI FunCall _ZN14FieldValueBaseI24SPI2_CR1_LSBFIRST_ValuesIN4SPI23CR1ELj7ELj1E13ReadWriteModeNS1_11SPI2CR1BaseEES4_Lj0EE3SetIS3_vEEvv
        BL       _ZN14FieldValueBaseI24SPI2_CR1_LSBFIRST_ValuesIN4SPI23CR1ELj7ELj1E13ReadWriteModeNS1_11SPI2CR1BaseEES4_Lj0EE3SetIS3_vEEvv
//   74   SPI2::CR2::SSOE::SsOutputEnable::Set(); 
          CFI FunCall _ZN14FieldValueBaseI20SPI2_CR2_SSOE_ValuesIN4SPI23CR2ELj2ELj1E13ReadWriteModeNS1_11SPI2CR2BaseEES4_Lj1EE3SetIS3_vEEvv
        BL       _ZN14FieldValueBaseI20SPI2_CR2_SSOE_ValuesIN4SPI23CR2ELj2ELj1E13ReadWriteModeNS1_11SPI2CR2BaseEES4_Lj1EE3SetIS3_vEEvv
//   75   SPI2::CR1::SSM::NssSoftwareEnable::Set();
          CFI FunCall _ZN14FieldValueBaseI19SPI2_CR1_SSM_ValuesIN4SPI23CR1ELj9ELj1E13ReadWriteModeNS1_11SPI2CR1BaseEES4_Lj1EE3SetIS3_vEEvv
        BL       _ZN14FieldValueBaseI19SPI2_CR1_SSM_ValuesIN4SPI23CR1ELj9ELj1E13ReadWriteModeNS1_11SPI2CR1BaseEES4_Lj1EE3SetIS3_vEEvv
//   76   SPI2::CR1::SSI::Value1::Set();
          CFI FunCall _ZN14FieldValueBaseI19SPI2_CR1_SSI_ValuesIN4SPI23CR1ELj8ELj1E13ReadWriteModeNS1_11SPI2CR1BaseEES4_Lj1EE3SetIS3_vEEvv
        BL       _ZN14FieldValueBaseI19SPI2_CR1_SSI_ValuesIN4SPI23CR1ELj8ELj1E13ReadWriteModeNS1_11SPI2CR1BaseEES4_Lj1EE3SetIS3_vEEvv
//   77 
//   78   RCC::AHB1ENRPack<
//   79       RCC::AHB1ENR::GPIOCEN::Enable,
//   80       RCC::AHB1ENR::GPIOBEN::Enable,
//   81       RCC::AHB1ENR::GPIOAEN::Enable
//   82       >::Set();
          CFI FunCall _ZN8RegisterILj1073887280ELj32E13ReadWriteModeN3RCC14RCCAHB1ENRBaseEJ10FieldValueI26RCC_AHB1ENR_GPIOCEN_ValuesINS1_7AHB1ENRELj2ELj1ES0_S2_ES2_Lj1EvES3_I26RCC_AHB1ENR_GPIOBEN_ValuesIS5_Lj1ELj1ES0_S2_ES2_Lj1EvES3_I26RCC_AHB1ENR_GPIOAEN_ValuesIS5_Lj0ELj1ES0_S2_ES2_Lj1EvEEE3SetIS0_vEEvv
        BL       _ZN8RegisterILj1073887280ELj32E13ReadWriteModeN3RCC14RCCAHB1ENRBaseEJ10FieldValueI26RCC_AHB1ENR_GPIOCEN_ValuesINS1_7AHB1ENRELj2ELj1ES0_S2_ES2_Lj1EvES3_I26RCC_AHB1ENR_GPIOBEN_ValuesIS5_Lj1ELj1ES0_S2_ES2_Lj1EvES3_I26RCC_AHB1ENR_GPIOAEN_ValuesIS5_Lj0ELj1ES0_S2_ES2_Lj1EvEEE3SetIS0_vEEvv
//   83   GPIOC::MODERPack<
//   84     GPIOC::MODER::MODER2::Alternate,
//   85     GPIOC::MODER::MODER3::Alternate,
//   86     GPIOC::MODER::MODER7::Alternate,
//   87     >::Set();
          CFI FunCall _ZN8RegisterILj1073874944ELj32E13ReadWriteModeN5GPIOC14GPIOCMODERBaseEJ10FieldValueI26GPIOC_MODER_MODER15_ValuesINS1_5MODERELj4ELj2ES0_S2_ES2_Lj2EvES3_IS4_IS5_Lj6ELj2ES0_S2_ES2_Lj2EvES3_IS4_IS5_Lj14ELj2ES0_S2_ES2_Lj2EvEEE3SetIS0_vEEvv
        BL       _ZN8RegisterILj1073874944ELj32E13ReadWriteModeN5GPIOC14GPIOCMODERBaseEJ10FieldValueI26GPIOC_MODER_MODER15_ValuesINS1_5MODERELj4ELj2ES0_S2_ES2_Lj2EvES3_IS4_IS5_Lj6ELj2ES0_S2_ES2_Lj2EvES3_IS4_IS5_Lj14ELj2ES0_S2_ES2_Lj2EvEEE3SetIS0_vEEvv
//   88   
//   89   GPIOC::AFRLPack<
//   90     GPIOC::AFRL::AFRL2::Af5,
//   91     GPIOC::AFRL::AFRL3::Af5,
//   92     GPIOC::AFRL::AFRL7::Af5,
//   93     >::Set();  
          CFI FunCall _ZN8RegisterILj1073874976ELj32E13ReadWriteModeN5GPIOC13GPIOCAFRLBaseEJ10FieldValueI23GPIOC_AFRL_AFRL7_ValuesINS1_4AFRLELj8ELj4ES0_S2_ES2_Lj5EvES3_IS4_IS5_Lj12ELj4ES0_S2_ES2_Lj5EvES3_IS4_IS5_Lj28ELj4ES0_S2_ES2_Lj5EvEEE3SetIS0_vEEvv
        BL       _ZN8RegisterILj1073874976ELj32E13ReadWriteModeN5GPIOC13GPIOCAFRLBaseEJ10FieldValueI23GPIOC_AFRL_AFRL7_ValuesINS1_4AFRLELj8ELj4ES0_S2_ES2_Lj5EvES3_IS4_IS5_Lj12ELj4ES0_S2_ES2_Lj5EvES3_IS4_IS5_Lj28ELj4ES0_S2_ES2_Lj5EvEEE3SetIS0_vEEvv
//   94   GPIOC::MODER::MODER6::Output::Set();
          CFI FunCall _ZN14FieldValueBaseI26GPIOC_MODER_MODER15_ValuesIN5GPIOC5MODERELj12ELj2E13ReadWriteModeNS1_14GPIOCMODERBaseEES4_Lj1EE3SetIS3_vEEvv
        BL       _ZN14FieldValueBaseI26GPIOC_MODER_MODER15_ValuesIN5GPIOC5MODERELj12ELj2E13ReadWriteModeNS1_14GPIOCMODERBaseEES4_Lj1EE3SetIS3_vEEvv
//   95   GPIOC::BSRR::Write(1<<6);
        MOVS     R0,#+64
          CFI FunCall _ZN12RegisterBaseILj1073874968ELj32E9WriteModeE5WriteIS0_vEEvj
        BL       _ZN12RegisterBaseILj1073874968ELj32E9WriteModeE5WriteIS0_vEEvj
//   96 
//   97 
//   98   //SPI1 config
//   99   RCC::APB2ENR::SPI1EN::Enable::Set();
          CFI FunCall _ZN14FieldValueBaseI25RCC_AHB1ENR_DMA2EN_ValuesIN3RCC7APB2ENRELj12ELj1E13ReadWriteModeNS1_14RCCAPB2ENRBaseEES4_Lj1EE3SetIS3_vEEvv
        BL       _ZN14FieldValueBaseI25RCC_AHB1ENR_DMA2EN_ValuesIN3RCC7APB2ENRELj12ELj1E13ReadWriteModeNS1_14RCCAPB2ENRBaseEES4_Lj1EE3SetIS3_vEEvv
//  100   NVIC::ISER1::Write(1<<3);
        MOVS     R0,#+8
          CFI FunCall _ZN12RegisterBaseILj3758153988ELj32E13ReadWriteModeE5WriteIS0_vEEvj
        BL       _ZN12RegisterBaseILj3758153988ELj32E13ReadWriteModeE5WriteIS0_vEEvj
//  101   SPI1::CR1::MSTR::Master::Set();
          CFI FunCall _ZN14FieldValueBaseI20SPI1_CR1_MSTR_ValuesIN4SPI13CR1ELj2ELj1E13ReadWriteModeNS1_11SPI1CR1BaseEES4_Lj1EE3SetIS3_vEEvv
        BL       _ZN14FieldValueBaseI20SPI1_CR1_MSTR_ValuesIN4SPI13CR1ELj2ELj1E13ReadWriteModeNS1_11SPI1CR1BaseEES4_Lj1EE3SetIS3_vEEvv
//  102   SPI1::CR1::DFF::Data8bit::Set();
          CFI FunCall _ZN14FieldValueBaseI19SPI1_CR1_DFF_ValuesIN4SPI13CR1ELj11ELj1E13ReadWriteModeNS1_11SPI1CR1BaseEES4_Lj0EE3SetIS3_vEEvv
        BL       _ZN14FieldValueBaseI19SPI1_CR1_DFF_ValuesIN4SPI13CR1ELj11ELj1E13ReadWriteModeNS1_11SPI1CR1BaseEES4_Lj0EE3SetIS3_vEEvv
//  103   SPI1::CR1::BR::PclockDiv64::Set();
          CFI FunCall _ZN14FieldValueBaseI18SPI1_CR1_BR_ValuesIN4SPI13CR1ELj3ELj3E13ReadWriteModeNS1_11SPI1CR1BaseEES4_Lj5EE3SetIS3_vEEvv
        BL       _ZN14FieldValueBaseI18SPI1_CR1_BR_ValuesIN4SPI13CR1ELj3ELj3E13ReadWriteModeNS1_11SPI1CR1BaseEES4_Lj5EE3SetIS3_vEEvv
//  104   SPI1::CR1::CRCEN::CrcCalcDisable::Set();
          CFI FunCall _ZN14FieldValueBaseI21SPI1_CR1_CRCEN_ValuesIN4SPI13CR1ELj13ELj1E13ReadWriteModeNS1_11SPI1CR1BaseEES4_Lj0EE3SetIS3_vEEvv
        BL       _ZN14FieldValueBaseI21SPI1_CR1_CRCEN_ValuesIN4SPI13CR1ELj13ELj1E13ReadWriteModeNS1_11SPI1CR1BaseEES4_Lj0EE3SetIS3_vEEvv
//  105   SPI1::CR1::CPOL::Low::Set();
          CFI FunCall _ZN14FieldValueBaseI20SPI1_CR1_CPOL_ValuesIN4SPI13CR1ELj1ELj1E13ReadWriteModeNS1_11SPI1CR1BaseEES4_Lj0EE3SetIS3_vEEvv
        BL       _ZN14FieldValueBaseI20SPI1_CR1_CPOL_ValuesIN4SPI13CR1ELj1ELj1E13ReadWriteModeNS1_11SPI1CR1BaseEES4_Lj0EE3SetIS3_vEEvv
//  106   SPI1::CR1::CPHA::Phase1edge::Set();
          CFI FunCall _ZN14FieldValueBaseI20SPI1_CR1_CPHA_ValuesIN4SPI13CR1ELj0ELj1E13ReadWriteModeNS1_11SPI1CR1BaseEES4_Lj0EE3SetIS3_vEEvv
        BL       _ZN14FieldValueBaseI20SPI1_CR1_CPHA_ValuesIN4SPI13CR1ELj0ELj1E13ReadWriteModeNS1_11SPI1CR1BaseEES4_Lj0EE3SetIS3_vEEvv
//  107   SPI1::CR1::LSBFIRST::MsbFisrt::Set();
          CFI FunCall _ZN14FieldValueBaseI24SPI1_CR1_LSBFIRST_ValuesIN4SPI13CR1ELj7ELj1E13ReadWriteModeNS1_11SPI1CR1BaseEES4_Lj0EE3SetIS3_vEEvv
        BL       _ZN14FieldValueBaseI24SPI1_CR1_LSBFIRST_ValuesIN4SPI13CR1ELj7ELj1E13ReadWriteModeNS1_11SPI1CR1BaseEES4_Lj0EE3SetIS3_vEEvv
//  108   SPI1::CR2::SSOE::SsOutputEnable::Set(); 
          CFI FunCall _ZN14FieldValueBaseI20SPI1_CR2_SSOE_ValuesIN4SPI13CR2ELj2ELj1E13ReadWriteModeNS1_11SPI1CR2BaseEES4_Lj1EE3SetIS3_vEEvv
        BL       _ZN14FieldValueBaseI20SPI1_CR2_SSOE_ValuesIN4SPI13CR2ELj2ELj1E13ReadWriteModeNS1_11SPI1CR2BaseEES4_Lj1EE3SetIS3_vEEvv
//  109   SPI1::CR1::SSM::NssSoftwareEnable::Set();
          CFI FunCall _ZN14FieldValueBaseI19SPI1_CR1_SSM_ValuesIN4SPI13CR1ELj9ELj1E13ReadWriteModeNS1_11SPI1CR1BaseEES4_Lj1EE3SetIS3_vEEvv
        BL       _ZN14FieldValueBaseI19SPI1_CR1_SSM_ValuesIN4SPI13CR1ELj9ELj1E13ReadWriteModeNS1_11SPI1CR1BaseEES4_Lj1EE3SetIS3_vEEvv
//  110   SPI1::CR1::SSI::Value1::Set();
          CFI FunCall _ZN14FieldValueBaseI19SPI1_CR1_SSI_ValuesIN4SPI13CR1ELj8ELj1E13ReadWriteModeNS1_11SPI1CR1BaseEES4_Lj1EE3SetIS3_vEEvv
        BL       _ZN14FieldValueBaseI19SPI1_CR1_SSI_ValuesIN4SPI13CR1ELj8ELj1E13ReadWriteModeNS1_11SPI1CR1BaseEES4_Lj1EE3SetIS3_vEEvv
//  111 
//  112   GPIOB::MODERPack<
//  113     GPIOB::MODER::MODER3::Alternate,
//  114     GPIOB::MODER::MODER4::Alternate,
//  115     GPIOB::MODER::MODER5::Alternate,
//  116     >::Set();
          CFI FunCall _ZN8RegisterILj1073873920ELj32E13ReadWriteModeN5GPIOB14GPIOBMODERBaseEJ10FieldValueI26GPIOB_MODER_MODER15_ValuesINS1_5MODERELj6ELj2ES0_S2_ES2_Lj2EvES3_IS4_IS5_Lj8ELj2ES0_S2_ES2_Lj2EvES3_IS4_IS5_Lj10ELj2ES0_S2_ES2_Lj2EvEEE3SetIS0_vEEvv
        BL       _ZN8RegisterILj1073873920ELj32E13ReadWriteModeN5GPIOB14GPIOBMODERBaseEJ10FieldValueI26GPIOB_MODER_MODER15_ValuesINS1_5MODERELj6ELj2ES0_S2_ES2_Lj2EvES3_IS4_IS5_Lj8ELj2ES0_S2_ES2_Lj2EvES3_IS4_IS5_Lj10ELj2ES0_S2_ES2_Lj2EvEEE3SetIS0_vEEvv
//  117   
//  118   GPIOB::AFRLPack<
//  119     GPIOB::AFRL::AFRL3::Af5,
//  120     GPIOB::AFRL::AFRL4::Af5,
//  121     GPIOB::AFRL::AFRL5::Af5,
//  122     >::Set();  
          CFI FunCall _ZN8RegisterILj1073873952ELj32E13ReadWriteModeN5GPIOB13GPIOBAFRLBaseEJ10FieldValueI23GPIOB_AFRL_AFRL7_ValuesINS1_4AFRLELj12ELj4ES0_S2_ES2_Lj5EvES3_IS4_IS5_Lj16ELj4ES0_S2_ES2_Lj5EvES3_IS4_IS5_Lj20ELj4ES0_S2_ES2_Lj5EvEEE3SetIS0_vEEvv
        BL       _ZN8RegisterILj1073873952ELj32E13ReadWriteModeN5GPIOB13GPIOBAFRLBaseEJ10FieldValueI23GPIOB_AFRL_AFRL7_ValuesINS1_4AFRLELj12ELj4ES0_S2_ES2_Lj5EvES3_IS4_IS5_Lj16ELj4ES0_S2_ES2_Lj5EvES3_IS4_IS5_Lj20ELj4ES0_S2_ES2_Lj5EvEEE3SetIS0_vEEvv
//  123   GPIOB::MODER::MODER13::Output::Set();
          CFI FunCall _ZN14FieldValueBaseI26GPIOB_MODER_MODER15_ValuesIN5GPIOB5MODERELj26ELj2E13ReadWriteModeNS1_14GPIOBMODERBaseEES4_Lj1EE3SetIS3_vEEvv
        BL       _ZN14FieldValueBaseI26GPIOB_MODER_MODER15_ValuesIN5GPIOB5MODERELj26ELj2E13ReadWriteModeNS1_14GPIOBMODERBaseEES4_Lj1EE3SetIS3_vEEvv
//  124   GPIOB::BSRR::Write(1<<13);
        MOV      R0,#+8192
          CFI FunCall _ZN12RegisterBaseILj1073873944ELj32E9WriteModeE5WriteIS0_vEEvj
        BL       _ZN12RegisterBaseILj1073873944ELj32E9WriteModeE5WriteIS0_vEEvj
//  125   GPIOB::MODER::MODER14::Output::Set();
          CFI FunCall _ZN14FieldValueBaseI26GPIOB_MODER_MODER15_ValuesIN5GPIOB5MODERELj28ELj2E13ReadWriteModeNS1_14GPIOBMODERBaseEES4_Lj1EE3SetIS3_vEEvv
        BL       _ZN14FieldValueBaseI26GPIOB_MODER_MODER15_ValuesIN5GPIOB5MODERELj28ELj2E13ReadWriteModeNS1_14GPIOBMODERBaseEES4_Lj1EE3SetIS3_vEEvv
//  126   GPIOB::MODER::MODER15::Output::Set();
          CFI FunCall _ZN14FieldValueBaseI26GPIOB_MODER_MODER15_ValuesIN5GPIOB5MODERELj30ELj2E13ReadWriteModeNS1_14GPIOBMODERBaseEES4_Lj1EE3SetIS3_vEEvv
        BL       _ZN14FieldValueBaseI26GPIOB_MODER_MODER15_ValuesIN5GPIOB5MODERELj30ELj2E13ReadWriteModeNS1_14GPIOBMODERBaseEES4_Lj1EE3SetIS3_vEEvv
//  127   GPIOB::MODER::MODER1::Input::Set();
          CFI FunCall _ZN14FieldValueBaseI26GPIOB_MODER_MODER15_ValuesIN5GPIOB5MODERELj2ELj2E13ReadWriteModeNS1_14GPIOBMODERBaseEES4_Lj0EE3SetIS3_vEEvv
        BL       _ZN14FieldValueBaseI26GPIOB_MODER_MODER15_ValuesIN5GPIOB5MODERELj2ELj2E13ReadWriteModeNS1_14GPIOBMODERBaseEES4_Lj0EE3SetIS3_vEEvv
//  128 
//  129   
//  130   return 1;
        MOVS     R0,#+1
        POP      {R4-R6,PC}       ;; return
//  131 }
          CFI EndBlock cfiBlock6
//  132 }

        SECTION `.bss`:DATA:REORDER:NOROOT(2)
        DATA
//  133   OsWrapper::Event event(100ms, 1);
event:
        DS8 36

        SECTION `.rodata`:CONST:REORDER:NOROOT(3)
        DATA
?_11:
        DATA64
        DC64 100

        SECTION `.bss`:DATA:REORDER:NOROOT(2)
        DATA
//  134   ButtonEventTask<UserButton, event> buttonEventTask;
buttonEventTask:
        DS8 604

        SECTION `.bss`:DATA:REORDER:NOROOT(3)
        DATA
//  135   BluetoothTask bluetoothTask;
bluetoothTask:
        DS8 1'704

        SECTION `.bss`:DATA:REORDER:NOROOT(3)
        DATA
//  136   MeasurementTask measurementTask(event);
measurementTask:
        DS8 616
//  137   

        SECTION `.text`:CODE:NOROOT(1)
          CFI Block cfiBlock7 Using cfiCommon0
          CFI Function main
        THUMB
//  138   int main()
//  139   {
main:
        PUSH     {R4,LR}
          CFI R14 Frame(CFA, -4)
          CFI R4 Frame(CFA, -8)
          CFI CFA R13+8
//  140     Led1::Enable();
          CFI FunCall _ZN3LedI3PinI4PortI5GPIOAELh5EEE6EnableEv
        BL       _ZN3LedI3PinI4PortI5GPIOAELh5EEE6EnableEv
//  141     Led2::Enable();
          CFI FunCall _ZN3LedI3PinI4PortI5GPIOCELh9EEE6EnableEv
        BL       _ZN3LedI3PinI4PortI5GPIOCELh9EEE6EnableEv
//  142     USART2::CR1::UE::Enable::Set();
          CFI FunCall _ZN14FieldValueBaseI20USART2_CR1_UE_ValuesIN6USART23CR1ELj13ELj1E13ReadWriteModeNS1_13USART2CR1BaseEES4_Lj1EE3SetIS3_vEEvv
        BL       _ZN14FieldValueBaseI20USART2_CR1_UE_ValuesIN6USART23CR1ELj13ELj1E13ReadWriteModeNS1_13USART2CR1BaseEES4_Lj1EE3SetIS3_vEEvv
//  143     SPI2::CR1::SPE::Enable::Set();
          CFI FunCall _ZN14FieldValueBaseI19SPI2_CR1_SPE_ValuesIN4SPI23CR1ELj6ELj1E13ReadWriteModeNS1_11SPI2CR1BaseEES4_Lj1EE3SetIS3_vEEvv
        BL       _ZN14FieldValueBaseI19SPI2_CR1_SPE_ValuesIN4SPI23CR1ELj6ELj1E13ReadWriteModeNS1_11SPI2CR1BaseEES4_Lj1EE3SetIS3_vEEvv
//  144     SPI1::CR1::SPE::Enable::Set();
          CFI FunCall _ZN14FieldValueBaseI19SPI1_CR1_SPE_ValuesIN4SPI13CR1ELj6ELj1E13ReadWriteModeNS1_11SPI1CR1BaseEES4_Lj1EE3SetIS3_vEEvv
        BL       _ZN14FieldValueBaseI19SPI1_CR1_SPE_ValuesIN4SPI13CR1ELj6ELj1E13ReadWriteModeNS1_11SPI1CR1BaseEES4_Lj1EE3SetIS3_vEEvv
//  145     bme280.InitializeCalibrateData();
        LDR.N    R4,??DataTable6_3
        MOVS     R0,R4
          CFI FunCall _ZN12BME280DriverIL_Z15spi2TransceiverE3PinI4PortI5GPIOCELh6EEE23InitializeCalibrateDataEv
        BL       _ZN12BME280DriverIL_Z15spi2TransceiverE3PinI4PortI5GPIOCELh6EEE23InitializeCalibrateDataEv
//  146     bme280.StartMeasurements();
        MOVS     R0,R4
          CFI FunCall _ZN12BME280DriverIL_Z15spi2TransceiverE3PinI4PortI5GPIOCELh6EEE17StartMeasurementsEv
        BL       _ZN12BME280DriverIL_Z15spi2TransceiverE3PinI4PortI5GPIOCELh6EEE17StartMeasurementsEv
//  147     epDisplay.Init();
        LDR.N    R4,??DataTable6_20
        MOVS     R0,R4
          CFI FunCall _ZN15EPDDriver4inch2IL_Z15spi1TransceiverE3PinI4PortI5GPIOBELh13EES0_IS3_Lh14EES0_IS3_Lh15EES0_IS3_Lh1EEE4InitEv
        BL       _ZN15EPDDriver4inch2IL_Z15spi1TransceiverE3PinI4PortI5GPIOBELh13EES0_IS3_Lh14EES0_IS3_Lh15EES0_IS3_Lh1EEE4InitEv
//  148     epDisplay.Clear();
        MOVS     R0,R4
          CFI FunCall _ZN15EPDDriver4inch2IL_Z15spi1TransceiverE3PinI4PortI5GPIOBELh13EES0_IS3_Lh14EES0_IS3_Lh15EES0_IS3_Lh1EEE5ClearEv
        BL       _ZN15EPDDriver4inch2IL_Z15spi1TransceiverE3PinI4PortI5GPIOBELh13EES0_IS3_Lh14EES0_IS3_Lh15EES0_IS3_Lh1EEE5ClearEv
//  149     
//  150     using namespace OsWrapper;
//  151     Rtos::CreateThread(measurementTask,"measurementTask", ThreadPriority::normal);
        MOVS     R2,#+30
        LDR.N    R1,??DataTable6_28
        LDR.N    R0,??DataTable6_26
          CFI FunCall _ZN9OsWrapper4Rtos12CreateThreadI15MeasurementTaskEEvRT_PKcNS_14ThreadPriorityE
        BL       _ZN9OsWrapper4Rtos12CreateThreadI15MeasurementTaskEEvRT_PKcNS_14ThreadPriorityE
//  152     Rtos::CreateThread(bluetoothTask,"bluetoothTask", ThreadPriority::lowest);
        MOVS     R2,#+10
        LDR.N    R1,??DataTable6_29
        LDR.N    R0,??DataTable6_25
          CFI FunCall _ZN9OsWrapper4Rtos12CreateThreadI13BluetoothTaskEEvRT_PKcNS_14ThreadPriorityE
        BL       _ZN9OsWrapper4Rtos12CreateThreadI13BluetoothTaskEEvRT_PKcNS_14ThreadPriorityE
//  153     Rtos::CreateThread(buttonEventTask,"buttonEventTask", ThreadPriority::belowNormal);
        MOVS     R2,#+20
        LDR.N    R1,??DataTable6_30
        LDR.N    R0,??DataTable6_24
          CFI FunCall _ZN9OsWrapper4Rtos12CreateThreadI15ButtonEventTaskI6ButtonI3PinI4PortI5GPIOCELh13EEEL_Z5eventEEEEvRT_PKcNS_14ThreadPriorityE
        BL       _ZN9OsWrapper4Rtos12CreateThreadI15ButtonEventTaskI6ButtonI3PinI4PortI5GPIOCELh13EEEL_Z5eventEEEEvRT_PKcNS_14ThreadPriorityE
//  154     Rtos::Start();
          CFI FunCall _ZN9OsWrapper4Rtos5StartEv
        BL       _ZN9OsWrapper4Rtos5StartEv
//  155     return 0;
        MOVS     R0,#+0
        POP      {R4,PC}          ;; return
//  156   }
          CFI EndBlock cfiBlock7

        SECTION `.text`:CODE:NOROOT(2)
        SECTION_TYPE SHT_PROGBITS, 0
        DATA
??DataTable6:
        DATA32
        DC32     _ZGV20bluetoothTransceiver

        SECTION `.text`:CODE:NOROOT(2)
        SECTION_TYPE SHT_PROGBITS, 0
        DATA
??DataTable6_1:
        DATA32
        DC32     bluetoothTransceiver

        SECTION `.text`:CODE:NOROOT(2)
        SECTION_TYPE SHT_PROGBITS, 0
        DATA
??DataTable6_2:
        DATA32
        DC32     _ZGV6bme280

        SECTION `.text`:CODE:NOROOT(2)
        SECTION_TYPE SHT_PROGBITS, 0
        DATA
??DataTable6_3:
        DATA32
        DC32     bme280

        SECTION `.text`:CODE:NOROOT(2)
        SECTION_TYPE SHT_PROGBITS, 0
        DATA
??DataTable6_4:
        DATA32
        DC32     _ZGV11temperature

        SECTION `.text`:CODE:NOROOT(2)
        SECTION_TYPE SHT_PROGBITS, 0
        DATA
??DataTable6_5:
        DATA32
        DC32     ?_4

        SECTION `.text`:CODE:NOROOT(2)
        SECTION_TYPE SHT_PROGBITS, 0
        DATA
??DataTable6_6:
        DATA32
        DC32     temperature

        SECTION `.text`:CODE:NOROOT(2)
        SECTION_TYPE SHT_PROGBITS, 0
        DATA
??DataTable6_7:
        DATA32
        DC32     __dso_handle

        SECTION `.text`:CODE:NOROOT(2)
        SECTION_TYPE SHT_PROGBITS, 0
        DATA
??DataTable6_8:
        DATA32
        DC32     _ZN11TemperatureD1Ev

        SECTION `.text`:CODE:NOROOT(2)
        SECTION_TYPE SHT_PROGBITS, 0
        DATA
??DataTable6_9:
        DATA32
        DC32     _ZGV8pressure

        SECTION `.text`:CODE:NOROOT(2)
        SECTION_TYPE SHT_PROGBITS, 0
        DATA
??DataTable6_10:
        DATA32
        DC32     ?_5

        SECTION `.text`:CODE:NOROOT(2)
        SECTION_TYPE SHT_PROGBITS, 0
        DATA
??DataTable6_11:
        DATA32
        DC32     pressure

        SECTION `.text`:CODE:NOROOT(2)
        SECTION_TYPE SHT_PROGBITS, 0
        DATA
??DataTable6_12:
        DATA32
        DC32     _ZN11MeasurementD1Ev

        SECTION `.text`:CODE:NOROOT(2)
        SECTION_TYPE SHT_PROGBITS, 0
        DATA
??DataTable6_13:
        DATA32
        DC32     _ZGV8humidity

        SECTION `.text`:CODE:NOROOT(2)
        SECTION_TYPE SHT_PROGBITS, 0
        DATA
??DataTable6_14:
        DATA32
        DC32     ?_6

        SECTION `.text`:CODE:NOROOT(2)
        SECTION_TYPE SHT_PROGBITS, 0
        DATA
??DataTable6_15:
        DATA32
        DC32     humidity

        SECTION `.text`:CODE:NOROOT(2)
        SECTION_TYPE SHT_PROGBITS, 0
        DATA
??DataTable6_16:
        DATA32
        DC32     _ZGV8dewPoint

        SECTION `.text`:CODE:NOROOT(2)
        SECTION_TYPE SHT_PROGBITS, 0
        DATA
??DataTable6_17:
        DATA32
        DC32     ?_7

        SECTION `.text`:CODE:NOROOT(2)
        SECTION_TYPE SHT_PROGBITS, 0
        DATA
??DataTable6_18:
        DATA32
        DC32     dewPoint

        SECTION `.text`:CODE:NOROOT(2)
        SECTION_TYPE SHT_PROGBITS, 0
        DATA
??DataTable6_19:
        DATA32
        DC32     _ZGV9epDisplay

        SECTION `.text`:CODE:NOROOT(2)
        SECTION_TYPE SHT_PROGBITS, 0
        DATA
??DataTable6_20:
        DATA32
        DC32     epDisplay

        SECTION `.text`:CODE:NOROOT(2)
        SECTION_TYPE SHT_PROGBITS, 0
        DATA
??DataTable6_21:
        DATA32
        DC32     event

        SECTION `.text`:CODE:NOROOT(2)
        SECTION_TYPE SHT_PROGBITS, 0
        DATA
??DataTable6_22:
        DATA32
        DC32     ?_11

        SECTION `.text`:CODE:NOROOT(2)
        SECTION_TYPE SHT_PROGBITS, 0
        DATA
??DataTable6_23:
        DATA32
        DC32     _ZN9OsWrapper5EventD1Ev

        SECTION `.text`:CODE:NOROOT(2)
        SECTION_TYPE SHT_PROGBITS, 0
        DATA
??DataTable6_24:
        DATA32
        DC32     buttonEventTask

        SECTION `.text`:CODE:NOROOT(2)
        SECTION_TYPE SHT_PROGBITS, 0
        DATA
??DataTable6_25:
        DATA32
        DC32     bluetoothTask

        SECTION `.text`:CODE:NOROOT(2)
        SECTION_TYPE SHT_PROGBITS, 0
        DATA
??DataTable6_26:
        DATA32
        DC32     measurementTask

        SECTION `.text`:CODE:NOROOT(2)
        SECTION_TYPE SHT_PROGBITS, 0
        DATA
??DataTable6_27:
        DATA32
        DC32     0xf42400

        SECTION `.text`:CODE:NOROOT(2)
        SECTION_TYPE SHT_PROGBITS, 0
        DATA
??DataTable6_28:
        DATA32
        DC32     ?_0

        SECTION `.text`:CODE:NOROOT(2)
        SECTION_TYPE SHT_PROGBITS, 0
        DATA
??DataTable6_29:
        DATA32
        DC32     ?_1

        SECTION `.text`:CODE:NOROOT(2)
        SECTION_TYPE SHT_PROGBITS, 0
        DATA
??DataTable6_30:
        DATA32
        DC32     ?_2

        SECTION `.text`:CODE:REORDER:NOROOT(1)
        SECTION_GROUP _ZSt10_AddressofIcEPT_RS0_St17integral_constantIbLb0EE
          CFI Block cfiBlock8 Using cfiCommon0
          CFI Function _ZSt10_AddressofIcEPT_RS0_St17integral_constantIbLb0EE
          CFI NoCalls
        THUMB
// __interwork __vfp char *std::_Addressof<char>(char &, std::false_type)
_ZSt10_AddressofIcEPT_RS0_St17integral_constantIbLb0EE:
        BX       LR               ;; return
          CFI EndBlock cfiBlock8

        SECTION `.text`:CODE:REORDER:NOROOT(1)
        SECTION_GROUP _ZSt9addressofIcEPT_RS0_
          CFI Block cfiBlock9 Using cfiCommon0
          CFI Function _ZSt9addressofIcEPT_RS0_
        THUMB
// __interwork __vfp char *std::addressof<char>(char &)
_ZSt9addressofIcEPT_RS0_:
        PUSH     {R4,LR}
          CFI R14 Frame(CFA, -4)
          CFI R4 Frame(CFA, -8)
          CFI CFA R13+8
        MOVS     R4,R0
        MOVS     R0,R4
          CFI FunCall _ZSt10_AddressofIcEPT_RS0_St17integral_constantIbLb0EE
        BL       _ZSt10_AddressofIcEPT_RS0_St17integral_constantIbLb0EE
        POP      {R4,PC}          ;; return
          CFI EndBlock cfiBlock9

        SECTION `.text`:CODE:REORDER:NOROOT(1)
        SECTION_GROUP _ZSt7forwardIRKSaIcEEOT_RNSt16remove_referenceIS3_E4typeE
          CFI Block cfiBlock10 Using cfiCommon0
          CFI Function _ZSt7forwardIRKSaIcEEOT_RNSt16remove_referenceIS3_E4typeE
          CFI NoCalls
        THUMB
// __interwork __vfp std::allocator<char> const &std::forward<std::allocator<char> const &>(std::allocator<char> const &)
_ZSt7forwardIRKSaIcEEOT_RNSt16remove_referenceIS3_E4typeE:
        BX       LR               ;; return
          CFI EndBlock cfiBlock10

        SECTION `.text`:CODE:REORDER:NOROOT(1)
        SECTION_GROUP _ZSt7forwardIPcEOT_RNSt16remove_referenceIS1_E4typeE
          CFI Block cfiBlock11 Using cfiCommon0
          CFI Function _ZSt7forwardIPcEOT_RNSt16remove_referenceIS1_E4typeE
          CFI NoCalls
        THUMB
// __interwork __vfp char * &&std::forward<char *>(char * &)
_ZSt7forwardIPcEOT_RNSt16remove_referenceIS1_E4typeE:
        BX       LR               ;; return
          CFI EndBlock cfiBlock11

        SECTION `.text`:CODE:REORDER:NOROOT(1)
        SECTION_GROUP _ZSt4moveIRPcEONSt16remove_referenceIT_E4typeEOS3_
          CFI Block cfiBlock12 Using cfiCommon0
          CFI Function _ZSt4moveIRPcEONSt16remove_referenceIT_E4typeEOS3_
          CFI NoCalls
        THUMB
// __interwork __vfp char * &&std::move<char * &>(char * &)
_ZSt4moveIRPcEONSt16remove_referenceIT_E4typeEOS3_:
        BX       LR               ;; return
          CFI EndBlock cfiBlock12

        SECTION `.text`:CODE:REORDER:NOROOT(1)
        SECTION_GROUP _ZnwjPv
          CFI Block cfiBlock13 Using cfiCommon0
          CFI Function _ZnwjPv
          CFI NoCalls
        THUMB
// __interwork __vfp void *operator new(unsigned int, void *)
_ZnwjPv:
        MOVS     R0,R1
        BX       LR               ;; return
          CFI EndBlock cfiBlock13

        SECTION `.text`:CODE:REORDER:NOROOT(1)
        SECTION_GROUP _ZNSt11char_traitsIcE6lengthEPKc
          CFI Block cfiBlock14 Using cfiCommon0
          CFI Function _ZNSt11char_traitsIcE6lengthEPKc
        THUMB
// __interwork __vfp size_t std::char_traits<char>::length(char const *)
_ZNSt11char_traitsIcE6lengthEPKc:
        PUSH     {R4,LR}
          CFI R14 Frame(CFA, -4)
          CFI R4 Frame(CFA, -8)
          CFI CFA R13+8
        MOVS     R4,R0
        LDRB     R0,[R4, #+0]
        CMP      R0,#+0
        BNE.N    ??length_0
        MOVS     R0,#+0
        B.N      ??length_1
??length_0:
        MOVS     R0,R4
          CFI FunCall strlen
        BL       strlen
??length_1:
        POP      {R4,PC}          ;; return
          CFI EndBlock cfiBlock14

        SECTION `.text`:CODE:REORDER:NOROOT(1)
        SECTION_GROUP _ZNSt11char_traitsIcE4copyEPcPKcj
          CFI Block cfiBlock15 Using cfiCommon0
          CFI Function _ZNSt11char_traitsIcE4copyEPcPKcj
        THUMB
// __interwork __vfp char *std::char_traits<char>::copy(char *, char const *, size_t)
_ZNSt11char_traitsIcE4copyEPcPKcj:
        PUSH     {R3-R9,LR}
          CFI R14 Frame(CFA, -4)
          CFI R9 Frame(CFA, -8)
          CFI R8 Frame(CFA, -12)
          CFI R7 Frame(CFA, -16)
          CFI R6 Frame(CFA, -20)
          CFI R5 Frame(CFA, -24)
          CFI R4 Frame(CFA, -28)
          CFI CFA R13+32
        MOVS     R5,R0
        MOVS     R6,R1
        MOVS     R4,R2
        CMP      R4,#+0
        BNE.N    ??copy_0
        MOVS     R7,R5
        B.N      ??copy_1
??copy_0:
        MOV      R8,R4
        MOV      R9,R6
        MOVS     R7,R5
        MOV      R2,R8
        MOV      R1,R9
        MOVS     R0,R7
          CFI FunCall __aeabi_memcpy
        BL       __aeabi_memcpy
??copy_1:
        MOVS     R0,R7
        POP      {R1,R4-R9,PC}    ;; return
          CFI EndBlock cfiBlock15

        SECTION `.text`:CODE:REORDER:NOROOT(1)
        SECTION_GROUP _ZNSt11char_traitsIcE4moveEPcPKcj
          CFI Block cfiBlock16 Using cfiCommon0
          CFI Function _ZNSt11char_traitsIcE4moveEPcPKcj
        THUMB
// __interwork __vfp char *std::char_traits<char>::move(char *, char const *, size_t)
_ZNSt11char_traitsIcE4moveEPcPKcj:
        PUSH     {R3-R9,LR}
          CFI R14 Frame(CFA, -4)
          CFI R9 Frame(CFA, -8)
          CFI R8 Frame(CFA, -12)
          CFI R7 Frame(CFA, -16)
          CFI R6 Frame(CFA, -20)
          CFI R5 Frame(CFA, -24)
          CFI R4 Frame(CFA, -28)
          CFI CFA R13+32
        MOVS     R5,R0
        MOVS     R6,R1
        MOVS     R4,R2
        CMP      R4,#+0
        BNE.N    ??move_0
        MOVS     R7,R5
        B.N      ??move_1
??move_0:
        MOV      R8,R4
        MOV      R9,R6
        MOVS     R7,R5
        MOV      R2,R8
        MOV      R1,R9
        MOVS     R0,R7
          CFI FunCall __aeabi_memmove
        BL       __aeabi_memmove
??move_1:
        MOVS     R0,R7
        POP      {R1,R4-R9,PC}    ;; return
          CFI EndBlock cfiBlock16

        SECTION `.text`:CODE:REORDER:NOROOT(1)
        SECTION_GROUP _ZNSt11char_traitsIcE6assignERcRKc
          CFI Block cfiBlock17 Using cfiCommon0
          CFI Function _ZNSt11char_traitsIcE6assignERcRKc
          CFI NoCalls
        THUMB
// __interwork __vfp void std::char_traits<char>::assign(char &, char const &)
_ZNSt11char_traitsIcE6assignERcRKc:
        LDRB     R2,[R1, #+0]
        STRB     R2,[R0, #+0]
        BX       LR               ;; return
          CFI EndBlock cfiBlock17

        SECTION `.text`:CODE:REORDER:NOROOT(1)
        SECTION_GROUP _ZNSt16_Compressed_pairISt11_Wrap_allocISaIcEESt11_String_valISt13_Simple_typesIcEELb1EEC1IRKS1_JEEESt25_One_then_variadic_args_tOT_DpOT0_
          CFI Block cfiBlock18 Using cfiCommon0
          CFI Function _ZNSt16_Compressed_pairISt11_Wrap_allocISaIcEESt11_String_valISt13_Simple_typesIcEELb1EEC1IRKS1_JEEESt25_One_then_variadic_args_tOT_DpOT0_
        THUMB
// __code __interwork __vfp std::_Compressed_pair<std::_Wrap_alloc<std::allocator<char>>, std::_String_val<std::_Simple_types<char>>>::_Compressed_pair<std::allocator<char> const &>(std::_One_then_variadic_args_t, std::allocator<char> const &)
_ZNSt16_Compressed_pairISt11_Wrap_allocISaIcEESt11_String_valISt13_Simple_typesIcEELb1EEC1IRKS1_JEEESt25_One_then_variadic_args_tOT_DpOT0_:
        PUSH     {R3-R5,LR}
          CFI R14 Frame(CFA, -4)
          CFI R5 Frame(CFA, -8)
          CFI R4 Frame(CFA, -12)
          CFI CFA R13+16
        MOVS     R4,R0
        MOVS     R5,R2
        MOVS     R0,R5
          CFI FunCall _ZSt7forwardIRKSaIcEEOT_RNSt16remove_referenceIS3_E4typeE
        BL       _ZSt7forwardIRKSaIcEEOT_RNSt16remove_referenceIS3_E4typeE
        MOVS     R1,R0
        MOVS     R0,R4
          CFI FunCall _ZNSt11_Wrap_allocISaIcEEC2ERKS0_
        BL       _ZNSt11_Wrap_allocISaIcEEC2ERKS0_
        MOVS     R0,R4
          CFI FunCall _ZNSt11_String_valISt13_Simple_typesIcEEC1Ev
        BL       _ZNSt11_String_valISt13_Simple_typesIcEEC1Ev
        MOVS     R0,R4
        POP      {R1,R4,R5,PC}    ;; return
          CFI EndBlock cfiBlock18

        SECTION `.text`:CODE:REORDER:NOROOT(1)
        SECTION_GROUP _ZNSt16_Compressed_pairISt11_Wrap_allocISaIcEESt11_String_valISt13_Simple_typesIcEELb1EE10_Get_firstEv
          CFI Block cfiBlock19 Using cfiCommon0
          CFI Function _ZNSt16_Compressed_pairISt11_Wrap_allocISaIcEESt11_String_valISt13_Simple_typesIcEELb1EE10_Get_firstEv
          CFI NoCalls
        THUMB
// __interwork __vfp std::_Wrap_alloc<std::allocator<char>> &std::_Compressed_pair<std::_Wrap_alloc<std::allocator<char>>, std::_String_val<std::_Simple_types<char>>>::_Get_first()
_ZNSt16_Compressed_pairISt11_Wrap_allocISaIcEESt11_String_valISt13_Simple_typesIcEELb1EE10_Get_firstEv:
        BX       LR               ;; return
          CFI EndBlock cfiBlock19

        SECTION `.text`:CODE:REORDER:NOROOT(1)
        SECTION_GROUP _ZNKSt16_Compressed_pairISt11_Wrap_allocISaIcEESt11_String_valISt13_Simple_typesIcEELb1EE10_Get_firstEv
          CFI Block cfiBlock20 Using cfiCommon0
          CFI Function _ZNKSt16_Compressed_pairISt11_Wrap_allocISaIcEESt11_String_valISt13_Simple_typesIcEELb1EE10_Get_firstEv
          CFI NoCalls
        THUMB
// __interwork __vfp std::_Wrap_alloc<std::allocator<char>> const &std::_Compressed_pair<std::_Wrap_alloc<std::allocator<char>>, std::_String_val<std::_Simple_types<char>>>::_Get_first() const
_ZNKSt16_Compressed_pairISt11_Wrap_allocISaIcEESt11_String_valISt13_Simple_typesIcEELb1EE10_Get_firstEv:
        BX       LR               ;; return
          CFI EndBlock cfiBlock20

        SECTION `.text`:CODE:REORDER:NOROOT(1)
        SECTION_GROUP _ZNSt16_Compressed_pairISt11_Wrap_allocISaIcEESt11_String_valISt13_Simple_typesIcEELb1EE11_Get_secondEv
          CFI Block cfiBlock21 Using cfiCommon0
          CFI Function _ZNSt16_Compressed_pairISt11_Wrap_allocISaIcEESt11_String_valISt13_Simple_typesIcEELb1EE11_Get_secondEv
          CFI NoCalls
        THUMB
// __interwork __vfp std::_String_val<std::_Simple_types<char>> &std::_Compressed_pair<std::_Wrap_alloc<std::allocator<char>>, std::_String_val<std::_Simple_types<char>>>::_Get_second()
_ZNSt16_Compressed_pairISt11_Wrap_allocISaIcEESt11_String_valISt13_Simple_typesIcEELb1EE11_Get_secondEv:
        BX       LR               ;; return
          CFI EndBlock cfiBlock21

        SECTION `.text`:CODE:REORDER:NOROOT(1)
        SECTION_GROUP _ZNKSt16_Compressed_pairISt11_Wrap_allocISaIcEESt11_String_valISt13_Simple_typesIcEELb1EE11_Get_secondEv
          CFI Block cfiBlock22 Using cfiCommon0
          CFI Function _ZNKSt16_Compressed_pairISt11_Wrap_allocISaIcEESt11_String_valISt13_Simple_typesIcEELb1EE11_Get_secondEv
          CFI NoCalls
        THUMB
// __interwork __vfp std::_String_val<std::_Simple_types<char>> const &std::_Compressed_pair<std::_Wrap_alloc<std::allocator<char>>, std::_String_val<std::_Simple_types<char>>>::_Get_second() const
_ZNKSt16_Compressed_pairISt11_Wrap_allocISaIcEESt11_String_valISt13_Simple_typesIcEELb1EE11_Get_secondEv:
        BX       LR               ;; return
          CFI EndBlock cfiBlock22

        SECTION `.text`:CODE:REORDER:NOROOT(1)
        SECTION_GROUP _ZSt7_Fill_nPcjc
          CFI Block cfiBlock23 Using cfiCommon0
          CFI Function _ZSt7_Fill_nPcjc
        THUMB
// __interwork __vfp char *std::_Fill_n(char *, size_t, char)
_ZSt7_Fill_nPcjc:
        PUSH     {R3-R9,LR}
          CFI R14 Frame(CFA, -4)
          CFI R9 Frame(CFA, -8)
          CFI R8 Frame(CFA, -12)
          CFI R7 Frame(CFA, -16)
          CFI R6 Frame(CFA, -20)
          CFI R5 Frame(CFA, -24)
          CFI R4 Frame(CFA, -28)
          CFI CFA R13+32
        MOVS     R4,R0
        MOVS     R5,R1
        MOVS     R6,R2
        MOVS     R7,R5
        MOV      R8,R6
        UXTB     R8,R8            ;; ZeroExt  R8,R8,#+24,#+24
        MOV      R9,R4
        MOV      R2,R8
        MOVS     R1,R7
        MOV      R0,R9
          CFI FunCall __aeabi_memset
        BL       __aeabi_memset
        ADD      R0,R4,R5
        POP      {R1,R4-R9,PC}    ;; return
          CFI EndBlock cfiBlock23

        SECTION `.text`:CODE:REORDER:NOROOT(1)
        SECTION_GROUP _ZSt9_AllocateIcEPT_jS1_b
          CFI Block cfiBlock24 Using cfiCommon0
          CFI Function _ZSt9_AllocateIcEPT_jS1_b
        THUMB
// __interwork __vfp char *std::_Allocate<char>(size_t, char *, bool)
_ZSt9_AllocateIcEPT_jS1_b:
        PUSH     {R3-R7,LR}
          CFI R14 Frame(CFA, -4)
          CFI R7 Frame(CFA, -8)
          CFI R6 Frame(CFA, -12)
          CFI R5 Frame(CFA, -16)
          CFI R4 Frame(CFA, -20)
          CFI CFA R13+24
        MOVS     R4,R0
        MOVS     R5,R2
        MOVS     R6,#+0
        CMP      R4,#+0
        BNE.N    ??_Allocate_0
        MOVS     R0,R6
        B.N      ??_Allocate_1
??_Allocate_0:
        MOVS     R7,R4
        MOVS     R0,R7
          CFI FunCall _Znwj
        BL       _Znwj
??_Allocate_1:
        POP      {R1,R4-R7,PC}    ;; return
          CFI EndBlock cfiBlock24

        SECTION `.text`:CODE:REORDER:NOROOT(1)
        SECTION_GROUP _ZSt11_DeallocateIcEvPT_j
          CFI Block cfiBlock25 Using cfiCommon0
          CFI Function _ZSt11_DeallocateIcEvPT_j
        THUMB
// __interwork __vfp void std::_Deallocate<char>(char *, size_t)
_ZSt11_DeallocateIcEvPT_j:
        PUSH     {R3-R5,LR}
          CFI R14 Frame(CFA, -4)
          CFI R5 Frame(CFA, -8)
          CFI R4 Frame(CFA, -12)
          CFI CFA R13+16
        MOVS     R4,R0
        MOVS     R5,R1
        MOVS     R0,R4
          CFI FunCall _ZdlPv
        BL       _ZdlPv
        POP      {R0,R4,R5,PC}    ;; return
          CFI EndBlock cfiBlock25

        SECTION `.text`:CODE:REORDER:NOROOT(1)
        SECTION_GROUP _ZNSaIcE10deallocateEPcj
          CFI Block cfiBlock26 Using cfiCommon0
          CFI Function _ZNSaIcE10deallocateEPcj
        THUMB
// __interwork __vfp void std::allocator<char>::deallocate(char *, size_t)
_ZNSaIcE10deallocateEPcj:
        PUSH     {R4-R6,LR}
          CFI R14 Frame(CFA, -4)
          CFI R6 Frame(CFA, -8)
          CFI R5 Frame(CFA, -12)
          CFI R4 Frame(CFA, -16)
          CFI CFA R13+16
        MOVS     R4,R0
        MOVS     R5,R1
        MOVS     R6,R2
        MOVS     R1,R6
        MOVS     R0,R5
          CFI FunCall _ZSt11_DeallocateIcEvPT_j
        BL       _ZSt11_DeallocateIcEvPT_j
        POP      {R4-R6,PC}       ;; return
          CFI EndBlock cfiBlock26

        SECTION `.text`:CODE:REORDER:NOROOT(1)
        SECTION_GROUP _ZNSaIcE8allocateEj
          CFI Block cfiBlock27 Using cfiCommon0
          CFI Function _ZNSaIcE8allocateEj
        THUMB
// __interwork __vfp char * std::allocator<char>::allocate(size_t)
_ZNSaIcE8allocateEj:
        PUSH     {R3-R5,LR}
          CFI R14 Frame(CFA, -4)
          CFI R5 Frame(CFA, -8)
          CFI R4 Frame(CFA, -12)
          CFI CFA R13+16
        MOVS     R4,R0
        MOVS     R5,R1
        MOVS     R2,#+1
        MOVS     R1,#+0
        MOVS     R0,R5
          CFI FunCall _ZSt9_AllocateIcEPT_jS1_b
        BL       _ZSt9_AllocateIcEPT_jS1_b
        POP      {R1,R4,R5,PC}    ;; return
          CFI EndBlock cfiBlock27

        SECTION `.text`:CODE:REORDER:NOROOT(1)
        SECTION_GROUP _ZNSaIcE9constructIPcJS1_EEEvPT_DpOT0_
          CFI Block cfiBlock28 Using cfiCommon0
          CFI Function _ZNSaIcE9constructIPcJS1_EEEvPT_DpOT0_
        THUMB
// __interwork __vfp void std::allocator<char>::construct<char *, char *>(char * *, char * &&)
_ZNSaIcE9constructIPcJS1_EEEvPT_DpOT0_:
        PUSH     {R3-R7,LR}
          CFI R14 Frame(CFA, -4)
          CFI R7 Frame(CFA, -8)
          CFI R6 Frame(CFA, -12)
          CFI R5 Frame(CFA, -16)
          CFI R4 Frame(CFA, -20)
          CFI CFA R13+24
        MOVS     R5,R0
        MOVS     R6,R1
        MOVS     R7,R2
        MOVS     R1,R6
        MOVS     R0,#+4
          CFI FunCall _ZnwjPv
        BL       _ZnwjPv
        MOVS     R4,R0
        CMP      R4,#+0
        BEQ.N    ??construct_0
        MOVS     R0,R7
          CFI FunCall _ZSt7forwardIPcEOT_RNSt16remove_referenceIS1_E4typeE
        BL       _ZSt7forwardIPcEOT_RNSt16remove_referenceIS1_E4typeE
        LDR      R0,[R0, #+0]
        STR      R0,[R4, #+0]
        B.N      ??construct_1
??construct_0:
        MOVS     R0,#+0
??construct_1:
        POP      {R0,R4-R7,PC}    ;; return
          CFI EndBlock cfiBlock28

        SECTION `.text`:CODE:REORDER:NOROOT(1)
        SECTION_GROUP _ZNSaIcE7destroyIPcEEvPT_
          CFI Block cfiBlock29 Using cfiCommon0
          CFI Function _ZNSaIcE7destroyIPcEEvPT_
          CFI NoCalls
        THUMB
// __interwork __vfp void std::allocator<char>::destroy<char *>(char * *)
_ZNSaIcE7destroyIPcEEvPT_:
        BX       LR               ;; return
          CFI EndBlock cfiBlock29

        SECTION `.text`:CODE:REORDER:NOROOT(1)
        SECTION_GROUP _ZNKSaIcE8max_sizeEv
          CFI Block cfiBlock30 Using cfiCommon0
          CFI Function _ZNKSaIcE8max_sizeEv
          CFI NoCalls
        THUMB
// __interwork __vfp size_t std::allocator<char>::max_size() const
_ZNKSaIcE8max_sizeEv:
        MOVS     R1,R0
        MOVS     R0,#-1
        BX       LR               ;; return
          CFI EndBlock cfiBlock30

        SECTION `.text`:CODE:REORDER:NOROOT(1)
        SECTION_GROUP _ZNSt16allocator_traitsISaIcEE9constructIPcJS3_EEEvRS0_PT_DpOT0_
          CFI Block cfiBlock31 Using cfiCommon0
          CFI Function _ZNSt16allocator_traitsISaIcEE9constructIPcJS3_EEEvRS0_PT_DpOT0_
        THUMB
// __interwork __vfp void std::allocator_traits<std::allocator<char>>::construct<char *, char *>(std::allocator<char> &, char * *, char * &&)
_ZNSt16allocator_traitsISaIcEE9constructIPcJS3_EEEvRS0_PT_DpOT0_:
        PUSH     {R4-R6,LR}
          CFI R14 Frame(CFA, -4)
          CFI R6 Frame(CFA, -8)
          CFI R5 Frame(CFA, -12)
          CFI R4 Frame(CFA, -16)
          CFI CFA R13+16
        MOVS     R4,R0
        MOVS     R5,R1
        MOVS     R6,R2
        MOVS     R0,R6
          CFI FunCall _ZSt7forwardIPcEOT_RNSt16remove_referenceIS1_E4typeE
        BL       _ZSt7forwardIPcEOT_RNSt16remove_referenceIS1_E4typeE
        MOVS     R2,R0
        MOVS     R1,R5
        MOVS     R0,R4
          CFI FunCall _ZNSaIcE9constructIPcJS1_EEEvPT_DpOT0_
        BL       _ZNSaIcE9constructIPcJS1_EEEvPT_DpOT0_
        POP      {R4-R6,PC}       ;; return
          CFI EndBlock cfiBlock31

        SECTION `.text`:CODE:REORDER:NOROOT(1)
        SECTION_GROUP _ZNSt16allocator_traitsISaIcEE7destroyIPcEEvRS0_PT_
          CFI Block cfiBlock32 Using cfiCommon0
          CFI Function _ZNSt16allocator_traitsISaIcEE7destroyIPcEEvRS0_PT_
        THUMB
// __interwork __vfp void std::allocator_traits<std::allocator<char>>::destroy<char *>(std::allocator<char> &, char * *)
_ZNSt16allocator_traitsISaIcEE7destroyIPcEEvRS0_PT_:
        PUSH     {R3-R5,LR}
          CFI R14 Frame(CFA, -4)
          CFI R5 Frame(CFA, -8)
          CFI R4 Frame(CFA, -12)
          CFI CFA R13+16
        MOVS     R4,R0
        MOVS     R5,R1
        MOVS     R1,R5
        MOVS     R0,R4
          CFI FunCall _ZNSaIcE7destroyIPcEEvPT_
        BL       _ZNSaIcE7destroyIPcEEvPT_
        POP      {R0,R4,R5,PC}    ;; return
          CFI EndBlock cfiBlock32

        SECTION `.text`:CODE:REORDER:NOROOT(1)
        SECTION_GROUP _ZNSt16allocator_traitsISaIcEE8max_sizeERKS0_
          CFI Block cfiBlock33 Using cfiCommon0
          CFI Function _ZNSt16allocator_traitsISaIcEE8max_sizeERKS0_
        THUMB
// __interwork __vfp size_t std::allocator_traits<std::allocator<char>>::max_size(std::allocator<char> const &)
_ZNSt16allocator_traitsISaIcEE8max_sizeERKS0_:
        PUSH     {R4,LR}
          CFI R14 Frame(CFA, -4)
          CFI R4 Frame(CFA, -8)
          CFI CFA R13+8
        MOVS     R4,R0
        MOVS     R0,R4
          CFI FunCall _ZNKSaIcE8max_sizeEv
        BL       _ZNKSaIcE8max_sizeEv
        POP      {R4,PC}          ;; return
          CFI EndBlock cfiBlock33

        SECTION `.text`:CODE:REORDER:NOROOT(1)
        SECTION_GROUP _ZNSt16allocator_traitsISaIcEE37select_on_container_copy_constructionERKS0_
          CFI Block cfiBlock34 Using cfiCommon0
          CFI Function _ZNSt16allocator_traitsISaIcEE37select_on_container_copy_constructionERKS0_
          CFI NoCalls
        THUMB
// __interwork __vfp void std::allocator_traits<std::allocator<char>>::select_on_container_copy_construction(std::allocator<char> const &)
_ZNSt16allocator_traitsISaIcEE37select_on_container_copy_constructionERKS0_:
        BX       LR               ;; return
          CFI EndBlock cfiBlock34

        SECTION `.text`:CODE:REORDER:NOROOT(1)
        SECTION_GROUP _ZNKSt11_Wrap_allocISaIcEE37select_on_container_copy_constructionESt4_Nil
          CFI Block cfiBlock35 Using cfiCommon0
          CFI Function _ZNKSt11_Wrap_allocISaIcEE37select_on_container_copy_constructionESt4_Nil
        THUMB
// __interwork __vfp void std::_Wrap_alloc<std::allocator<char>>::select_on_container_copy_construction(std::_Nil) const
_ZNKSt11_Wrap_allocISaIcEE37select_on_container_copy_constructionESt4_Nil:
        PUSH     {R3-R5,LR}
          CFI R14 Frame(CFA, -4)
          CFI R5 Frame(CFA, -8)
          CFI R4 Frame(CFA, -12)
          CFI CFA R13+16
        MOVS     R4,R0
        MOVS     R5,R1
        MOVS     R1,R5
        MOV      R0,SP
          CFI FunCall _ZNSt16allocator_traitsISaIcEE37select_on_container_copy_constructionERKS0_
        BL       _ZNSt16allocator_traitsISaIcEE37select_on_container_copy_constructionERKS0_
        MOV      R1,SP
        MOVS     R0,R4
          CFI FunCall _ZNSt11_Wrap_allocISaIcEEC1ERKS0_
        BL       _ZNSt11_Wrap_allocISaIcEEC1ERKS0_
        POP      {R0,R4,R5,PC}    ;; return
          CFI EndBlock cfiBlock35

        SECTION `.text`:CODE:REORDER:NOROOT(1)
        SECTION_GROUP _ZNSt11_Wrap_allocISaIcEEC2ERKS0_
          CFI Block cfiBlock36 Using cfiCommon0
          CFI Function _ZNSt11_Wrap_allocISaIcEEC2ERKS0_
        THUMB
// __code __interwork __vfp std::_Wrap_alloc<std::allocator<char>>::subobject _Wrap_alloc(std::allocator<char> const &)
_ZNSt11_Wrap_allocISaIcEEC2ERKS0_:
        PUSH     {R4,LR}
          CFI R14 Frame(CFA, -4)
          CFI R4 Frame(CFA, -8)
          CFI CFA R13+8
        MOVS     R4,R0
        MOVS     R0,R4
          CFI FunCall _ZNSt11_Wrap_allocISaIcEEC1ERKS0_
        BL       _ZNSt11_Wrap_allocISaIcEEC1ERKS0_
        POP      {R4,PC}          ;; return
          CFI EndBlock cfiBlock36

        SECTION `.text`:CODE:REORDER:NOROOT(1)
        SECTION_GROUP _ZNSt11_Wrap_allocISaIcEEC1ERKS0_
          CFI Block cfiBlock37 Using cfiCommon0
          CFI Function _ZNSt11_Wrap_allocISaIcEEC1ERKS0_
          CFI NoCalls
        THUMB
// __code __interwork __vfp std::_Wrap_alloc<std::allocator<char>>::_Wrap_alloc(std::allocator<char> const &)
_ZNSt11_Wrap_allocISaIcEEC1ERKS0_:
        BX       LR               ;; return
          CFI EndBlock cfiBlock37

        SECTION `.text`:CODE:REORDER:NOROOT(1)
        SECTION_GROUP _ZNSt11_Wrap_allocISaIcEE8allocateEj
          CFI Block cfiBlock38 Using cfiCommon0
          CFI Function _ZNSt11_Wrap_allocISaIcEE8allocateEj
        THUMB
// __interwork __vfp char * std::_Wrap_alloc<std::allocator<char>>::allocate(size_t)
_ZNSt11_Wrap_allocISaIcEE8allocateEj:
        PUSH     {R3-R5,LR}
          CFI R14 Frame(CFA, -4)
          CFI R5 Frame(CFA, -8)
          CFI R4 Frame(CFA, -12)
          CFI CFA R13+16
        MOVS     R4,R0
        MOVS     R5,R1
        MOVS     R1,R5
        MOVS     R0,R4
          CFI FunCall _ZNSaIcE8allocateEj
        BL       _ZNSaIcE8allocateEj
        POP      {R1,R4,R5,PC}    ;; return
          CFI EndBlock cfiBlock38

        SECTION `.text`:CODE:REORDER:NOROOT(1)
        SECTION_GROUP _ZNSt11_Wrap_allocISaIcEE10deallocateEPcj
          CFI Block cfiBlock39 Using cfiCommon0
          CFI Function _ZNSt11_Wrap_allocISaIcEE10deallocateEPcj
        THUMB
// __interwork __vfp void std::_Wrap_alloc<std::allocator<char>>::deallocate(char *, size_t)
_ZNSt11_Wrap_allocISaIcEE10deallocateEPcj:
        PUSH     {R4-R6,LR}
          CFI R14 Frame(CFA, -4)
          CFI R6 Frame(CFA, -8)
          CFI R5 Frame(CFA, -12)
          CFI R4 Frame(CFA, -16)
          CFI CFA R13+16
        MOVS     R4,R0
        MOVS     R5,R1
        MOVS     R6,R2
        MOVS     R2,R6
        MOVS     R1,R5
        MOVS     R0,R4
          CFI FunCall _ZNSaIcE10deallocateEPcj
        BL       _ZNSaIcE10deallocateEPcj
        POP      {R4-R6,PC}       ;; return
          CFI EndBlock cfiBlock39

        SECTION `.text`:CODE:REORDER:NOROOT(1)
        SECTION_GROUP _ZNSt11_Wrap_allocISaIcEE9constructIPcJS3_EEEvPT_DpOT0_
          CFI Block cfiBlock40 Using cfiCommon0
          CFI Function _ZNSt11_Wrap_allocISaIcEE9constructIPcJS3_EEEvPT_DpOT0_
        THUMB
// __interwork __vfp void std::_Wrap_alloc<std::allocator<char>>::construct<char *, char *>(char * *, char * &&)
_ZNSt11_Wrap_allocISaIcEE9constructIPcJS3_EEEvPT_DpOT0_:
        PUSH     {R4-R6,LR}
          CFI R14 Frame(CFA, -4)
          CFI R6 Frame(CFA, -8)
          CFI R5 Frame(CFA, -12)
          CFI R4 Frame(CFA, -16)
          CFI CFA R13+16
        MOVS     R4,R0
        MOVS     R5,R1
        MOVS     R6,R2
        MOVS     R0,R6
          CFI FunCall _ZSt7forwardIPcEOT_RNSt16remove_referenceIS1_E4typeE
        BL       _ZSt7forwardIPcEOT_RNSt16remove_referenceIS1_E4typeE
        MOVS     R2,R0
        MOVS     R1,R5
        MOVS     R0,R4
          CFI FunCall _ZNSt16allocator_traitsISaIcEE9constructIPcJS3_EEEvRS0_PT_DpOT0_
        BL       _ZNSt16allocator_traitsISaIcEE9constructIPcJS3_EEEvRS0_PT_DpOT0_
        POP      {R4-R6,PC}       ;; return
          CFI EndBlock cfiBlock40

        SECTION `.text`:CODE:REORDER:NOROOT(1)
        SECTION_GROUP _ZNSt11_Wrap_allocISaIcEE7destroyIPcEEvPT_
          CFI Block cfiBlock41 Using cfiCommon0
          CFI Function _ZNSt11_Wrap_allocISaIcEE7destroyIPcEEvPT_
        THUMB
// __interwork __vfp void std::_Wrap_alloc<std::allocator<char>>::destroy<char *>(char * *)
_ZNSt11_Wrap_allocISaIcEE7destroyIPcEEvPT_:
        PUSH     {R3-R5,LR}
          CFI R14 Frame(CFA, -4)
          CFI R5 Frame(CFA, -8)
          CFI R4 Frame(CFA, -12)
          CFI CFA R13+16
        MOVS     R4,R0
        MOVS     R5,R1
        MOVS     R1,R5
        MOVS     R0,R4
          CFI FunCall _ZNSt16allocator_traitsISaIcEE7destroyIPcEEvRS0_PT_
        BL       _ZNSt16allocator_traitsISaIcEE7destroyIPcEEvRS0_PT_
        POP      {R0,R4,R5,PC}    ;; return
          CFI EndBlock cfiBlock41

        SECTION `.text`:CODE:REORDER:NOROOT(1)
        SECTION_GROUP _ZNKSt11_Wrap_allocISaIcEE8max_sizeESt4_Nil
          CFI Block cfiBlock42 Using cfiCommon0
          CFI Function _ZNKSt11_Wrap_allocISaIcEE8max_sizeESt4_Nil
        THUMB
// __interwork __vfp size_t std::_Wrap_alloc<std::allocator<char>>::max_size(std::_Nil) const
_ZNKSt11_Wrap_allocISaIcEE8max_sizeESt4_Nil:
        PUSH     {R4,LR}
          CFI R14 Frame(CFA, -4)
          CFI R4 Frame(CFA, -8)
          CFI CFA R13+8
        MOVS     R4,R0
        MOVS     R0,R4
          CFI FunCall _ZNSt16allocator_traitsISaIcEE8max_sizeERKS0_
        BL       _ZNSt16allocator_traitsISaIcEE8max_sizeERKS0_
        POP      {R4,PC}          ;; return
          CFI EndBlock cfiBlock42

        SECTION `.text`:CODE:REORDER:NOROOT(1)
        SECTION_GROUP _ZNSt11_String_valISt13_Simple_typesIcEEC1Ev
          CFI Block cfiBlock43 Using cfiCommon0
          CFI Function _ZNSt11_String_valISt13_Simple_typesIcEEC1Ev
          CFI NoCalls
        THUMB
// __code __interwork __vfp std::_String_val<std::_Simple_types<char>>::_String_val()
_ZNSt11_String_valISt13_Simple_typesIcEEC1Ev:
        MOVS     R1,#+0
        STR      R1,[R0, #+16]
        MOVS     R1,#+0
        STR      R1,[R0, #+20]
        BX       LR               ;; return
          CFI EndBlock cfiBlock43

        SECTION `.text`:CODE:REORDER:NOROOT(1)
        SECTION_GROUP _ZNSt11_String_valISt13_Simple_typesIcEE6_MyptrEv
          CFI Block cfiBlock44 Using cfiCommon0
          CFI Function _ZNSt11_String_valISt13_Simple_typesIcEE6_MyptrEv
        THUMB
// __interwork __vfp char *std::_String_val<std::_Simple_types<char>>::_Myptr()
_ZNSt11_String_valISt13_Simple_typesIcEE6_MyptrEv:
        PUSH     {R4,LR}
          CFI R14 Frame(CFA, -4)
          CFI R4 Frame(CFA, -8)
          CFI CFA R13+8
        MOVS     R4,R0
        LDR      R0,[R4, #+20]
        CMP      R0,#+16
        BCC.N    ??_Myptr_0
        LDR      R0,[R4, #+0]
          CFI FunCall _ZSt9addressofIcEPT_RS0_
        BL       _ZSt9addressofIcEPT_RS0_
        B.N      ??_Myptr_1
??_Myptr_0:
        MOVS     R0,R4
??_Myptr_1:
        POP      {R4,PC}          ;; return
          CFI EndBlock cfiBlock44

        SECTION `.text`:CODE:REORDER:NOROOT(1)
        SECTION_GROUP _ZNKSt11_String_valISt13_Simple_typesIcEE6_MyptrEv
          CFI Block cfiBlock45 Using cfiCommon0
          CFI Function _ZNKSt11_String_valISt13_Simple_typesIcEE6_MyptrEv
        THUMB
// __interwork __vfp char const *std::_String_val<std::_Simple_types<char>>::_Myptr() const
_ZNKSt11_String_valISt13_Simple_typesIcEE6_MyptrEv:
        PUSH     {R4,LR}
          CFI R14 Frame(CFA, -4)
          CFI R4 Frame(CFA, -8)
          CFI CFA R13+8
        MOVS     R4,R0
        LDR      R0,[R4, #+20]
        CMP      R0,#+16
        BCC.N    ??_Myptr_2
        LDR      R0,[R4, #+0]
          CFI FunCall _ZSt9addressofIcEPT_RS0_
        BL       _ZSt9addressofIcEPT_RS0_
        B.N      ??_Myptr_3
??_Myptr_2:
        MOVS     R0,R4
??_Myptr_3:
        POP      {R4,PC}          ;; return
          CFI EndBlock cfiBlock45

        SECTION `.text`:CODE:REORDER:NOROOT(1)
        SECTION_GROUP _ZNSt13_String_allocISt18_String_base_typesIcSaIcEEE6_MyptrEv
          CFI Block cfiBlock46 Using cfiCommon0
          CFI Function _ZNSt13_String_allocISt18_String_base_typesIcSaIcEEE6_MyptrEv
        THUMB
// __interwork __vfp char *std::_String_alloc<std::_String_base_types<char, std::allocator<char>>>::_Myptr()
_ZNSt13_String_allocISt18_String_base_typesIcSaIcEEE6_MyptrEv:
        PUSH     {R4,LR}
          CFI R14 Frame(CFA, -4)
          CFI R4 Frame(CFA, -8)
          CFI CFA R13+8
        MOVS     R4,R0
        MOVS     R0,R4
          CFI FunCall _ZNSt13_String_allocISt18_String_base_typesIcSaIcEEE9_Get_dataEv
        BL       _ZNSt13_String_allocISt18_String_base_typesIcSaIcEEE9_Get_dataEv
          CFI FunCall _ZNSt11_String_valISt13_Simple_typesIcEE6_MyptrEv
        BL       _ZNSt11_String_valISt13_Simple_typesIcEE6_MyptrEv
        POP      {R4,PC}          ;; return
          CFI EndBlock cfiBlock46

        SECTION `.text`:CODE:REORDER:NOROOT(1)
        SECTION_GROUP _ZNKSt13_String_allocISt18_String_base_typesIcSaIcEEE6_MyptrEv
          CFI Block cfiBlock47 Using cfiCommon0
          CFI Function _ZNKSt13_String_allocISt18_String_base_typesIcSaIcEEE6_MyptrEv
        THUMB
// __interwork __vfp char const *std::_String_alloc<std::_String_base_types<char, std::allocator<char>>>::_Myptr() const
_ZNKSt13_String_allocISt18_String_base_typesIcSaIcEEE6_MyptrEv:
        PUSH     {R4,LR}
          CFI R14 Frame(CFA, -4)
          CFI R4 Frame(CFA, -8)
          CFI CFA R13+8
        MOVS     R4,R0
        MOVS     R0,R4
          CFI FunCall _ZNKSt13_String_allocISt18_String_base_typesIcSaIcEEE9_Get_dataEv
        BL       _ZNKSt13_String_allocISt18_String_base_typesIcSaIcEEE9_Get_dataEv
          CFI FunCall _ZNKSt11_String_valISt13_Simple_typesIcEE6_MyptrEv
        BL       _ZNKSt11_String_valISt13_Simple_typesIcEE6_MyptrEv
        POP      {R4,PC}          ;; return
          CFI EndBlock cfiBlock47

        SECTION `.text`:CODE:REORDER:NOROOT(1)
        SECTION_GROUP _ZNSt13_String_allocISt18_String_base_typesIcSaIcEEEC2ERKS1_
          CFI Block cfiBlock48 Using cfiCommon0
          CFI Function _ZNSt13_String_allocISt18_String_base_typesIcSaIcEEEC2ERKS1_
        THUMB
// __code __interwork __vfp std::_String_alloc<std::_String_base_types<char, std::allocator<char>>>::subobject _String_alloc(std::allocator<char> const &)
_ZNSt13_String_allocISt18_String_base_typesIcSaIcEEEC2ERKS1_:
        PUSH     {R4,LR}
          CFI R14 Frame(CFA, -4)
          CFI R4 Frame(CFA, -8)
          CFI CFA R13+8
        MOVS     R4,R0
        MOVS     R0,R4
          CFI FunCall _ZNSt13_String_allocISt18_String_base_typesIcSaIcEEEC1ERKS1_
        BL       _ZNSt13_String_allocISt18_String_base_typesIcSaIcEEEC1ERKS1_
        POP      {R4,PC}          ;; return
          CFI EndBlock cfiBlock48

        SECTION `.text`:CODE:REORDER:NOROOT(2)
        SECTION_GROUP _ZNSt13_String_allocISt18_String_base_typesIcSaIcEEEC1ERKS1_
          CFI Block cfiBlock49 Using cfiCommon0
          CFI Function _ZNSt13_String_allocISt18_String_base_typesIcSaIcEEEC1ERKS1_
        THUMB
// __code __interwork __vfp std::_String_alloc<std::_String_base_types<char, std::allocator<char>>>::_String_alloc(std::allocator<char> const &)
_ZNSt13_String_allocISt18_String_base_typesIcSaIcEEEC1ERKS1_:
        PUSH     {R3-R5,LR}
          CFI R14 Frame(CFA, -4)
          CFI R5 Frame(CFA, -8)
          CFI R4 Frame(CFA, -12)
          CFI CFA R13+16
        MOVS     R4,R0
        MOVS     R5,R1
        MOVS     R2,R5
        LDR.N    R0,??_String_alloc_0
        LDRB     R1,[R0, #+0]
        MOVS     R0,R4
          CFI FunCall _ZNSt16_Compressed_pairISt11_Wrap_allocISaIcEESt11_String_valISt13_Simple_typesIcEELb1EEC1IRKS1_JEEESt25_One_then_variadic_args_tOT_DpOT0_
        BL       _ZNSt16_Compressed_pairISt11_Wrap_allocISaIcEESt11_String_valISt13_Simple_typesIcEELb1EEC1IRKS1_JEEESt25_One_then_variadic_args_tOT_DpOT0_
        MOVS     R0,R4
        POP      {R1,R4,R5,PC}    ;; return
        Nop      
        DATA
??_String_alloc_0:
        DATA32
        DC32     ?_8
          CFI EndBlock cfiBlock49

        SECTION `.text`:CODE:REORDER:NOROOT(1)
        SECTION_GROUP _ZNSt13_String_allocISt18_String_base_typesIcSaIcEEE6_GetalEv
          CFI Block cfiBlock50 Using cfiCommon0
          CFI Function _ZNSt13_String_allocISt18_String_base_typesIcSaIcEEE6_GetalEv
        THUMB
// __interwork __vfp std::_Wrap_alloc<std::allocator<char>> &std::_String_alloc<std::_String_base_types<char, std::allocator<char>>>::_Getal()
_ZNSt13_String_allocISt18_String_base_typesIcSaIcEEE6_GetalEv:
        PUSH     {R4,LR}
          CFI R14 Frame(CFA, -4)
          CFI R4 Frame(CFA, -8)
          CFI CFA R13+8
        MOVS     R4,R0
        MOVS     R0,R4
          CFI FunCall _ZNSt16_Compressed_pairISt11_Wrap_allocISaIcEESt11_String_valISt13_Simple_typesIcEELb1EE10_Get_firstEv
        BL       _ZNSt16_Compressed_pairISt11_Wrap_allocISaIcEESt11_String_valISt13_Simple_typesIcEELb1EE10_Get_firstEv
        POP      {R4,PC}          ;; return
          CFI EndBlock cfiBlock50

        SECTION `.text`:CODE:REORDER:NOROOT(1)
        SECTION_GROUP _ZNKSt13_String_allocISt18_String_base_typesIcSaIcEEE6_GetalEv
          CFI Block cfiBlock51 Using cfiCommon0
          CFI Function _ZNKSt13_String_allocISt18_String_base_typesIcSaIcEEE6_GetalEv
        THUMB
// __interwork __vfp std::_Wrap_alloc<std::allocator<char>> const &std::_String_alloc<std::_String_base_types<char, std::allocator<char>>>::_Getal() const
_ZNKSt13_String_allocISt18_String_base_typesIcSaIcEEE6_GetalEv:
        PUSH     {R4,LR}
          CFI R14 Frame(CFA, -4)
          CFI R4 Frame(CFA, -8)
          CFI CFA R13+8
        MOVS     R4,R0
        MOVS     R0,R4
          CFI FunCall _ZNKSt16_Compressed_pairISt11_Wrap_allocISaIcEESt11_String_valISt13_Simple_typesIcEELb1EE10_Get_firstEv
        BL       _ZNKSt16_Compressed_pairISt11_Wrap_allocISaIcEESt11_String_valISt13_Simple_typesIcEELb1EE10_Get_firstEv
        POP      {R4,PC}          ;; return
          CFI EndBlock cfiBlock51

        SECTION `.text`:CODE:REORDER:NOROOT(1)
        SECTION_GROUP _ZNSt13_String_allocISt18_String_base_typesIcSaIcEEE9_Get_dataEv
          CFI Block cfiBlock52 Using cfiCommon0
          CFI Function _ZNSt13_String_allocISt18_String_base_typesIcSaIcEEE9_Get_dataEv
        THUMB
// __interwork __vfp std::_String_val<std::_Simple_types<char>> &std::_String_alloc<std::_String_base_types<char, std::allocator<char>>>::_Get_data()
_ZNSt13_String_allocISt18_String_base_typesIcSaIcEEE9_Get_dataEv:
        PUSH     {R4,LR}
          CFI R14 Frame(CFA, -4)
          CFI R4 Frame(CFA, -8)
          CFI CFA R13+8
        MOVS     R4,R0
        MOVS     R0,R4
          CFI FunCall _ZNSt16_Compressed_pairISt11_Wrap_allocISaIcEESt11_String_valISt13_Simple_typesIcEELb1EE11_Get_secondEv
        BL       _ZNSt16_Compressed_pairISt11_Wrap_allocISaIcEESt11_String_valISt13_Simple_typesIcEELb1EE11_Get_secondEv
        POP      {R4,PC}          ;; return
          CFI EndBlock cfiBlock52

        SECTION `.text`:CODE:REORDER:NOROOT(1)
        SECTION_GROUP _ZNKSt13_String_allocISt18_String_base_typesIcSaIcEEE9_Get_dataEv
          CFI Block cfiBlock53 Using cfiCommon0
          CFI Function _ZNKSt13_String_allocISt18_String_base_typesIcSaIcEEE9_Get_dataEv
        THUMB
// __interwork __vfp std::_String_val<std::_Simple_types<char>> const &std::_String_alloc<std::_String_base_types<char, std::allocator<char>>>::_Get_data() const
_ZNKSt13_String_allocISt18_String_base_typesIcSaIcEEE9_Get_dataEv:
        PUSH     {R4,LR}
          CFI R14 Frame(CFA, -4)
          CFI R4 Frame(CFA, -8)
          CFI CFA R13+8
        MOVS     R4,R0
        MOVS     R0,R4
          CFI FunCall _ZNKSt16_Compressed_pairISt11_Wrap_allocISaIcEESt11_String_valISt13_Simple_typesIcEELb1EE11_Get_secondEv
        BL       _ZNKSt16_Compressed_pairISt11_Wrap_allocISaIcEESt11_String_valISt13_Simple_typesIcEELb1EE11_Get_secondEv
        POP      {R4,PC}          ;; return
          CFI EndBlock cfiBlock53

        SECTION `.text`:CODE:REORDER:NOROOT(1)
        SECTION_GROUP _ZNSt13_String_allocISt18_String_base_typesIcSaIcEEE3_BxEv
          CFI Block cfiBlock54 Using cfiCommon0
          CFI Function _ZNSt13_String_allocISt18_String_base_typesIcSaIcEEE3_BxEv
        THUMB
// __interwork __vfp std::_String_val<std::_Simple_types<char>>::_Bxty &std::_String_alloc<std::_String_base_types<char, std::allocator<char>>>::_Bx()
_ZNSt13_String_allocISt18_String_base_typesIcSaIcEEE3_BxEv:
        PUSH     {R4,LR}
          CFI R14 Frame(CFA, -4)
          CFI R4 Frame(CFA, -8)
          CFI CFA R13+8
        MOVS     R4,R0
        MOVS     R0,R4
          CFI FunCall _ZNSt13_String_allocISt18_String_base_typesIcSaIcEEE9_Get_dataEv
        BL       _ZNSt13_String_allocISt18_String_base_typesIcSaIcEEE9_Get_dataEv
        POP      {R4,PC}          ;; return
          CFI EndBlock cfiBlock54

        SECTION `.text`:CODE:REORDER:NOROOT(1)
        SECTION_GROUP _ZNSt13_String_allocISt18_String_base_typesIcSaIcEEE7_MysizeEv
          CFI Block cfiBlock55 Using cfiCommon0
          CFI Function _ZNSt13_String_allocISt18_String_base_typesIcSaIcEEE7_MysizeEv
        THUMB
// __interwork __vfp size_t &std::_String_alloc<std::_String_base_types<char, std::allocator<char>>>::_Mysize()
_ZNSt13_String_allocISt18_String_base_typesIcSaIcEEE7_MysizeEv:
        PUSH     {R4,LR}
          CFI R14 Frame(CFA, -4)
          CFI R4 Frame(CFA, -8)
          CFI CFA R13+8
        MOVS     R4,R0
        MOVS     R0,R4
          CFI FunCall _ZNSt13_String_allocISt18_String_base_typesIcSaIcEEE9_Get_dataEv
        BL       _ZNSt13_String_allocISt18_String_base_typesIcSaIcEEE9_Get_dataEv
        ADDS     R0,R0,#+16
        POP      {R4,PC}          ;; return
          CFI EndBlock cfiBlock55

        SECTION `.text`:CODE:REORDER:NOROOT(1)
        SECTION_GROUP _ZNKSt13_String_allocISt18_String_base_typesIcSaIcEEE7_MysizeEv
          CFI Block cfiBlock56 Using cfiCommon0
          CFI Function _ZNKSt13_String_allocISt18_String_base_typesIcSaIcEEE7_MysizeEv
        THUMB
// __interwork __vfp size_t const &std::_String_alloc<std::_String_base_types<char, std::allocator<char>>>::_Mysize() const
_ZNKSt13_String_allocISt18_String_base_typesIcSaIcEEE7_MysizeEv:
        PUSH     {R4,LR}
          CFI R14 Frame(CFA, -4)
          CFI R4 Frame(CFA, -8)
          CFI CFA R13+8
        MOVS     R4,R0
        MOVS     R0,R4
          CFI FunCall _ZNKSt13_String_allocISt18_String_base_typesIcSaIcEEE9_Get_dataEv
        BL       _ZNKSt13_String_allocISt18_String_base_typesIcSaIcEEE9_Get_dataEv
        ADDS     R0,R0,#+16
        POP      {R4,PC}          ;; return
          CFI EndBlock cfiBlock56

        SECTION `.text`:CODE:REORDER:NOROOT(1)
        SECTION_GROUP _ZNSt13_String_allocISt18_String_base_typesIcSaIcEEE6_MyresEv
          CFI Block cfiBlock57 Using cfiCommon0
          CFI Function _ZNSt13_String_allocISt18_String_base_typesIcSaIcEEE6_MyresEv
        THUMB
// __interwork __vfp size_t &std::_String_alloc<std::_String_base_types<char, std::allocator<char>>>::_Myres()
_ZNSt13_String_allocISt18_String_base_typesIcSaIcEEE6_MyresEv:
        PUSH     {R4,LR}
          CFI R14 Frame(CFA, -4)
          CFI R4 Frame(CFA, -8)
          CFI CFA R13+8
        MOVS     R4,R0
        MOVS     R0,R4
          CFI FunCall _ZNSt13_String_allocISt18_String_base_typesIcSaIcEEE9_Get_dataEv
        BL       _ZNSt13_String_allocISt18_String_base_typesIcSaIcEEE9_Get_dataEv
        ADDS     R0,R0,#+20
        POP      {R4,PC}          ;; return
          CFI EndBlock cfiBlock57

        SECTION `.text`:CODE:REORDER:NOROOT(1)
        SECTION_GROUP _ZNSsC1ERKSs
          CFI Block cfiBlock58 Using cfiCommon0
          CFI Function _ZNSsC1ERKSs
        THUMB
// __code __interwork __vfp std::string::basic_string(std::string const &)
_ZNSsC1ERKSs:
        PUSH     {R2-R6,LR}
          CFI R14 Frame(CFA, -4)
          CFI R6 Frame(CFA, -8)
          CFI R5 Frame(CFA, -12)
          CFI R4 Frame(CFA, -16)
          CFI CFA R13+24
        MOVS     R4,R0
        MOVS     R5,R1
        MOVS     R0,R5
          CFI FunCall _ZNKSt13_String_allocISt18_String_base_typesIcSaIcEEE6_GetalEv
        BL       _ZNKSt13_String_allocISt18_String_base_typesIcSaIcEEE6_GetalEv
        MOVS     R2,R6
        MOVS     R1,R0
        MOV      R0,SP
          CFI FunCall _ZNKSt11_Wrap_allocISaIcEE37select_on_container_copy_constructionESt4_Nil
        BL       _ZNKSt11_Wrap_allocISaIcEE37select_on_container_copy_constructionESt4_Nil
        MOV      R1,SP
        MOVS     R0,R4
          CFI FunCall _ZNSt13_String_allocISt18_String_base_typesIcSaIcEEEC2ERKS1_
        BL       _ZNSt13_String_allocISt18_String_base_typesIcSaIcEEEC2ERKS1_
        MOVS     R2,#+0
        MOVS     R1,#+0
        MOVS     R0,R4
          CFI FunCall _ZNSs5_TidyEbj
        BL       _ZNSs5_TidyEbj
        MOVS     R3,#-1
        MOVS     R2,#+0
        MOVS     R1,R5
        MOVS     R0,R4
          CFI FunCall _ZNSs6assignERKSsjj
        BL       _ZNSs6assignERKSsjj
        MOVS     R0,R4
        POP      {R1,R2,R4-R6,PC}  ;; return
          CFI EndBlock cfiBlock58

        SECTION `.text`:CODE:REORDER:NOROOT(1)
        SECTION_GROUP _ZNSsC1Ev
          CFI Block cfiBlock59 Using cfiCommon0
          CFI Function _ZNSsC1Ev
        THUMB
// __code __interwork __vfp std::string::basic_string()
_ZNSsC1Ev:
        PUSH     {R2-R4,LR}
          CFI R14 Frame(CFA, -4)
          CFI R4 Frame(CFA, -8)
          CFI CFA R13+16
        MOVS     R4,R0
        MOV      R1,SP
        MOVS     R0,R4
          CFI FunCall _ZNSt13_String_allocISt18_String_base_typesIcSaIcEEEC2ERKS1_
        BL       _ZNSt13_String_allocISt18_String_base_typesIcSaIcEEEC2ERKS1_
        MOVS     R2,#+0
        MOVS     R1,#+0
        MOVS     R0,R4
          CFI FunCall _ZNSs5_TidyEbj
        BL       _ZNSs5_TidyEbj
        MOVS     R0,R4
        POP      {R1,R2,R4,PC}    ;; return
          CFI EndBlock cfiBlock59

        SECTION `.text`:CODE:REORDER:NOROOT(1)
        SECTION_GROUP _ZNSsC1EPKc
          CFI Block cfiBlock60 Using cfiCommon0
          CFI Function _ZNSsC1EPKc
        THUMB
// __code __interwork __vfp std::string::basic_string(char const *)
_ZNSsC1EPKc:
        PUSH     {R3-R5,LR}
          CFI R14 Frame(CFA, -4)
          CFI R5 Frame(CFA, -8)
          CFI R4 Frame(CFA, -12)
          CFI CFA R13+16
        MOVS     R4,R0
        MOVS     R5,R1
        MOV      R1,SP
        MOVS     R0,R4
          CFI FunCall _ZNSt13_String_allocISt18_String_base_typesIcSaIcEEEC2ERKS1_
        BL       _ZNSt13_String_allocISt18_String_base_typesIcSaIcEEEC2ERKS1_
        MOVS     R2,#+0
        MOVS     R1,#+0
        MOVS     R0,R4
          CFI FunCall _ZNSs5_TidyEbj
        BL       _ZNSs5_TidyEbj
        MOVS     R1,R5
        MOVS     R0,R4
          CFI FunCall _ZNSs6assignEPKc
        BL       _ZNSs6assignEPKc
        MOVS     R0,R4
        POP      {R1,R4,R5,PC}    ;; return
          CFI EndBlock cfiBlock60

        SECTION `.text`:CODE:REORDER:NOROOT(1)
        SECTION_GROUP _ZNSsD1Ev
          CFI Block cfiBlock61 Using cfiCommon0
          CFI Function _ZNSsD1Ev
        THUMB
// __code __interwork __vfp std::string::~basic_string()
_ZNSsD1Ev:
        PUSH     {R4,LR}
          CFI R14 Frame(CFA, -4)
          CFI R4 Frame(CFA, -8)
          CFI CFA R13+8
        MOVS     R4,R0
        MOVS     R2,#+0
        MOVS     R1,#+1
        MOVS     R0,R4
          CFI FunCall _ZNSs5_TidyEbj
        BL       _ZNSs5_TidyEbj
        MOVS     R0,R4
        POP      {R4,PC}          ;; return
          CFI EndBlock cfiBlock61

        SECTION `.text`:CODE:REORDER:NOROOT(1)
        SECTION_GROUP _ZNSsaSEPKc
          CFI Block cfiBlock62 Using cfiCommon0
          CFI Function _ZNSsaSEPKc
        THUMB
// __interwork __vfp std::string &std::string::operator=(char const *)
_ZNSsaSEPKc:
        PUSH     {R3-R5,LR}
          CFI R14 Frame(CFA, -4)
          CFI R5 Frame(CFA, -8)
          CFI R4 Frame(CFA, -12)
          CFI CFA R13+16
        MOVS     R4,R0
        MOVS     R5,R1
        MOVS     R1,R5
        MOVS     R0,R4
          CFI FunCall _ZNSs6assignEPKc
        BL       _ZNSs6assignEPKc
        POP      {R1,R4,R5,PC}    ;; return
          CFI EndBlock cfiBlock62

        SECTION `.text`:CODE:REORDER:NOROOT(1)
        SECTION_GROUP _ZNSs6assignERKSsjj
          CFI Block cfiBlock63 Using cfiCommon0
          CFI Function _ZNSs6assignERKSsjj
        THUMB
// __interwork __vfp std::string &std::string::assign(std::string const &, size_t, size_t)
_ZNSs6assignERKSsjj:
        PUSH     {R3-R9,LR}
          CFI R14 Frame(CFA, -4)
          CFI R9 Frame(CFA, -8)
          CFI R8 Frame(CFA, -12)
          CFI R7 Frame(CFA, -16)
          CFI R6 Frame(CFA, -20)
          CFI R5 Frame(CFA, -24)
          CFI R4 Frame(CFA, -28)
          CFI CFA R13+32
        MOVS     R4,R0
        MOVS     R5,R1
        MOVS     R6,R2
        MOVS     R7,R3
        MOVS     R0,R5
          CFI FunCall _ZNKSs4sizeEv
        BL       _ZNKSs4sizeEv
        CMP      R0,R6
        BCS.N    ??assign_0
          CFI FunCall __iar_Raise_ran
        BL       __iar_Raise_ran
??assign_0:
        MOVS     R0,R5
          CFI FunCall _ZNKSs4sizeEv
        BL       _ZNKSs4sizeEv
        MOV      R8,R0
        SUBS     R8,R8,R6
        CMP      R7,R8
        BCS.N    ??assign_1
        MOV      R8,R7
??assign_1:
        CMP      R4,R5
        BNE.N    ??assign_2
        ADDS     R1,R8,R6
        MOVS     R0,R4
          CFI FunCall _ZNSs5eraseEj
        BL       _ZNSs5eraseEj
        MOVS     R2,R6
        MOVS     R1,#+0
        MOVS     R0,R4
          CFI FunCall _ZNSs5eraseEjj
        BL       _ZNSs5eraseEjj
        B.N      ??assign_3
??assign_2:
        MOVS     R2,#+0
        MOV      R1,R8
        MOVS     R0,R4
          CFI FunCall _ZNSs5_GrowEjb
        BL       _ZNSs5_GrowEjb
        CMP      R0,#+0
        BEQ.N    ??assign_3
        MOVS     R0,R5
          CFI FunCall _ZNKSt13_String_allocISt18_String_base_typesIcSaIcEEE6_MyptrEv
        BL       _ZNKSt13_String_allocISt18_String_base_typesIcSaIcEEE6_MyptrEv
        MOV      R9,R0
        MOVS     R0,R4
          CFI FunCall _ZNSt13_String_allocISt18_String_base_typesIcSaIcEEE6_MyptrEv
        BL       _ZNSt13_String_allocISt18_String_base_typesIcSaIcEEE6_MyptrEv
        MOV      R2,R8
        ADD      R1,R9,R6
          CFI FunCall _ZNSt11char_traitsIcE4copyEPcPKcj
        BL       _ZNSt11char_traitsIcE4copyEPcPKcj
        MOV      R1,R8
        MOVS     R0,R4
          CFI FunCall _ZNSs4_EosEj
        BL       _ZNSs4_EosEj
??assign_3:
        MOVS     R0,R4
        POP      {R1,R4-R9,PC}    ;; return
          CFI EndBlock cfiBlock63

        SECTION `.text`:CODE:REORDER:NOROOT(1)
        SECTION_GROUP _ZNSs6assignEPKcj
          CFI Block cfiBlock64 Using cfiCommon0
          CFI Function _ZNSs6assignEPKcj
        THUMB
// __interwork __vfp std::string &std::string::assign(char const *, size_t)
_ZNSs6assignEPKcj:
        PUSH     {R4-R6,LR}
          CFI R14 Frame(CFA, -4)
          CFI R6 Frame(CFA, -8)
          CFI R5 Frame(CFA, -12)
          CFI R4 Frame(CFA, -16)
          CFI CFA R13+16
        MOVS     R4,R0
        MOVS     R5,R1
        MOVS     R6,R2
        MOVS     R1,R5
        MOVS     R0,R4
          CFI FunCall _ZNSs7_InsideEPKc
        BL       _ZNSs7_InsideEPKc
        CMP      R0,#+0
        BEQ.N    ??assign_4
        MOVS     R0,R4
          CFI FunCall _ZNSt13_String_allocISt18_String_base_typesIcSaIcEEE6_MyptrEv
        BL       _ZNSt13_String_allocISt18_String_base_typesIcSaIcEEE6_MyptrEv
        MOVS     R3,R6
        SUBS     R0,R5,R0
        MOVS     R2,R0
        MOVS     R1,R4
        MOVS     R0,R4
          CFI FunCall _ZNSs6assignERKSsjj
        BL       _ZNSs6assignERKSsjj
        B.N      ??assign_5
??assign_4:
        MOVS     R2,#+0
        MOVS     R1,R6
        MOVS     R0,R4
          CFI FunCall _ZNSs5_GrowEjb
        BL       _ZNSs5_GrowEjb
        CMP      R0,#+0
        BEQ.N    ??assign_6
        MOVS     R0,R4
          CFI FunCall _ZNSt13_String_allocISt18_String_base_typesIcSaIcEEE6_MyptrEv
        BL       _ZNSt13_String_allocISt18_String_base_typesIcSaIcEEE6_MyptrEv
        MOVS     R2,R6
        MOVS     R1,R5
          CFI FunCall _ZNSt11char_traitsIcE4copyEPcPKcj
        BL       _ZNSt11char_traitsIcE4copyEPcPKcj
        MOVS     R1,R6
        MOVS     R0,R4
          CFI FunCall _ZNSs4_EosEj
        BL       _ZNSs4_EosEj
??assign_6:
        MOVS     R0,R4
??assign_5:
        POP      {R4-R6,PC}       ;; return
          CFI EndBlock cfiBlock64

        SECTION `.text`:CODE:REORDER:NOROOT(1)
        SECTION_GROUP _ZNSs6assignEPKc
          CFI Block cfiBlock65 Using cfiCommon0
          CFI Function _ZNSs6assignEPKc
        THUMB
// __interwork __vfp std::string &std::string::assign(char const *)
_ZNSs6assignEPKc:
        PUSH     {R3-R5,LR}
          CFI R14 Frame(CFA, -4)
          CFI R5 Frame(CFA, -8)
          CFI R4 Frame(CFA, -12)
          CFI CFA R13+16
        MOVS     R4,R0
        MOVS     R5,R1
        MOVS     R0,R5
          CFI FunCall _ZNSt11char_traitsIcE6lengthEPKc
        BL       _ZNSt11char_traitsIcE6lengthEPKc
        MOVS     R2,R0
        MOVS     R1,R5
        MOVS     R0,R4
          CFI FunCall _ZNSs6assignEPKcj
        BL       _ZNSs6assignEPKcj
        POP      {R1,R4,R5,PC}    ;; return
          CFI EndBlock cfiBlock65

        SECTION `.text`:CODE:REORDER:NOROOT(1)
        SECTION_GROUP _ZNSs5eraseEj
          CFI Block cfiBlock66 Using cfiCommon0
          CFI Function _ZNSs5eraseEj
        THUMB
// __interwork __vfp std::string &std::string::erase(size_t)
_ZNSs5eraseEj:
        PUSH     {R3-R5,LR}
          CFI R14 Frame(CFA, -4)
          CFI R5 Frame(CFA, -8)
          CFI R4 Frame(CFA, -12)
          CFI CFA R13+16
        MOVS     R4,R0
        MOVS     R5,R1
        MOVS     R0,R4
          CFI FunCall _ZNSt13_String_allocISt18_String_base_typesIcSaIcEEE7_MysizeEv
        BL       _ZNSt13_String_allocISt18_String_base_typesIcSaIcEEE7_MysizeEv
        LDR      R0,[R0, #+0]
        CMP      R0,R5
        BCS.N    ??erase_0
          CFI FunCall __iar_Raise_ran
        BL       __iar_Raise_ran
??erase_0:
        MOVS     R1,R5
        MOVS     R0,R4
          CFI FunCall _ZNSs4_EosEj
        BL       _ZNSs4_EosEj
        MOVS     R0,R4
        POP      {R1,R4,R5,PC}    ;; return
          CFI EndBlock cfiBlock66

        SECTION `.text`:CODE:REORDER:NOROOT(1)
        SECTION_GROUP _ZNSs5eraseEjj
          CFI Block cfiBlock67 Using cfiCommon0
          CFI Function _ZNSs5eraseEjj
        THUMB
// __interwork __vfp std::string &std::string::erase(size_t, size_t)
_ZNSs5eraseEjj:
        PUSH     {R4-R8,LR}
          CFI R14 Frame(CFA, -4)
          CFI R8 Frame(CFA, -8)
          CFI R7 Frame(CFA, -12)
          CFI R6 Frame(CFA, -16)
          CFI R5 Frame(CFA, -20)
          CFI R4 Frame(CFA, -24)
          CFI CFA R13+24
        MOVS     R5,R0
        MOVS     R6,R1
        MOVS     R4,R2
        MOVS     R0,R5
          CFI FunCall _ZNSt13_String_allocISt18_String_base_typesIcSaIcEEE7_MysizeEv
        BL       _ZNSt13_String_allocISt18_String_base_typesIcSaIcEEE7_MysizeEv
        LDR      R0,[R0, #+0]
        CMP      R0,R6
        BCS.N    ??erase_1
          CFI FunCall __iar_Raise_ran
        BL       __iar_Raise_ran
??erase_1:
        MOVS     R0,R5
          CFI FunCall _ZNSt13_String_allocISt18_String_base_typesIcSaIcEEE7_MysizeEv
        BL       _ZNSt13_String_allocISt18_String_base_typesIcSaIcEEE7_MysizeEv
        LDR      R0,[R0, #+0]
        SUBS     R0,R0,R6
        CMP      R4,R0
        BCC.N    ??erase_2
        MOVS     R1,R6
        MOVS     R0,R5
          CFI FunCall _ZNSs4_EosEj
        BL       _ZNSs4_EosEj
        B.N      ??erase_3
??erase_2:
        CMP      R4,#+0
        BEQ.N    ??erase_3
        MOVS     R0,R5
          CFI FunCall _ZNSt13_String_allocISt18_String_base_typesIcSaIcEEE6_MyptrEv
        BL       _ZNSt13_String_allocISt18_String_base_typesIcSaIcEEE6_MyptrEv
        ADD      R7,R0,R6
        MOVS     R0,R5
          CFI FunCall _ZNSt13_String_allocISt18_String_base_typesIcSaIcEEE7_MysizeEv
        BL       _ZNSt13_String_allocISt18_String_base_typesIcSaIcEEE7_MysizeEv
        LDR      R8,[R0, #+0]
        SUBS     R8,R8,R4
        SUBS     R2,R8,R6
        ADD      R1,R7,R4
        MOVS     R0,R7
          CFI FunCall _ZNSt11char_traitsIcE4moveEPcPKcj
        BL       _ZNSt11char_traitsIcE4moveEPcPKcj
        MOV      R1,R8
        MOVS     R0,R5
          CFI FunCall _ZNSs4_EosEj
        BL       _ZNSs4_EosEj
??erase_3:
        MOVS     R0,R5
        POP      {R4-R8,PC}       ;; return
          CFI EndBlock cfiBlock67

        SECTION `.text`:CODE:REORDER:NOROOT(1)
        SECTION_GROUP _ZNKSs5c_strEv
          CFI Block cfiBlock68 Using cfiCommon0
          CFI Function _ZNKSs5c_strEv
        THUMB
// __interwork __vfp char const *std::string::c_str() const
_ZNKSs5c_strEv:
        PUSH     {R4,LR}
          CFI R14 Frame(CFA, -4)
          CFI R4 Frame(CFA, -8)
          CFI CFA R13+8
        MOVS     R4,R0
        MOVS     R0,R4
          CFI FunCall _ZNKSt13_String_allocISt18_String_base_typesIcSaIcEEE6_MyptrEv
        BL       _ZNKSt13_String_allocISt18_String_base_typesIcSaIcEEE6_MyptrEv
        POP      {R4,PC}          ;; return
          CFI EndBlock cfiBlock68

        SECTION `.text`:CODE:REORDER:NOROOT(1)
        SECTION_GROUP _ZNKSs4sizeEv
          CFI Block cfiBlock69 Using cfiCommon0
          CFI Function _ZNKSs4sizeEv
        THUMB
// __interwork __vfp size_t std::string::size() const
_ZNKSs4sizeEv:
        PUSH     {R4,LR}
          CFI R14 Frame(CFA, -4)
          CFI R4 Frame(CFA, -8)
          CFI CFA R13+8
        MOVS     R4,R0
        MOVS     R0,R4
          CFI FunCall _ZNKSt13_String_allocISt18_String_base_typesIcSaIcEEE7_MysizeEv
        BL       _ZNKSt13_String_allocISt18_String_base_typesIcSaIcEEE7_MysizeEv
        LDR      R0,[R0, #+0]
        POP      {R4,PC}          ;; return
          CFI EndBlock cfiBlock69

        SECTION `.text`:CODE:REORDER:NOROOT(1)
        SECTION_GROUP _ZNKSs8max_sizeEv
          CFI Block cfiBlock70 Using cfiCommon0
          CFI Function _ZNKSs8max_sizeEv
        THUMB
// __interwork __vfp size_t std::string::max_size() const
_ZNKSs8max_sizeEv:
        PUSH     {R3-R5,LR}
          CFI R14 Frame(CFA, -4)
          CFI R5 Frame(CFA, -8)
          CFI R4 Frame(CFA, -12)
          CFI CFA R13+16
        MOVS     R4,R0
        MOVS     R0,R4
          CFI FunCall _ZNKSt13_String_allocISt18_String_base_typesIcSaIcEEE6_GetalEv
        BL       _ZNKSt13_String_allocISt18_String_base_typesIcSaIcEEE6_GetalEv
        MOVS     R1,R5
          CFI FunCall _ZNKSt11_Wrap_allocISaIcEE8max_sizeESt4_Nil
        BL       _ZNKSt11_Wrap_allocISaIcEE8max_sizeESt4_Nil
        CMP      R0,#+2
        BCS.N    ??max_size_0
        MOVS     R0,#+1
        B.N      ??max_size_1
??max_size_0:
        SUBS     R0,R0,#+1
??max_size_1:
        POP      {R1,R4,R5,PC}    ;; return
          CFI EndBlock cfiBlock70

        SECTION `.text`:CODE:REORDER:NOROOT(1)
        SECTION_GROUP _ZNSs5_CopyEjj
          CFI Block cfiBlock71 Using cfiCommon0
          CFI Function _ZNSs5_CopyEjj
        THUMB
// __interwork __vfp void std::string::_Copy(size_t, size_t)
_ZNSs5_CopyEjj:
        PUSH     {R3-R9,LR}
          CFI R14 Frame(CFA, -4)
          CFI R9 Frame(CFA, -8)
          CFI R8 Frame(CFA, -12)
          CFI R7 Frame(CFA, -16)
          CFI R6 Frame(CFA, -20)
          CFI R5 Frame(CFA, -24)
          CFI R4 Frame(CFA, -28)
          CFI CFA R13+32
        MOVS     R5,R0
        MOVS     R6,R1
        MOVS     R4,R2
        ORRS     R7,R6,#0xF
        MOVS     R0,R5
          CFI FunCall _ZNKSs8max_sizeEv
        BL       _ZNKSs8max_sizeEv
        CMP      R0,R7
        BCS.N    ??_Copy_0
        MOVS     R7,R6
        B.N      ??_Copy_1
??_Copy_0:
        MOVS     R0,R5
          CFI FunCall _ZNSt13_String_allocISt18_String_base_typesIcSaIcEEE6_MyresEv
        BL       _ZNSt13_String_allocISt18_String_base_typesIcSaIcEEE6_MyresEv
        MOVS     R1,#+3
        UDIV     R1,R7,R1
        LDR      R0,[R0, #+0]
        CMP      R1,R0, LSR #+1
        BCS.N    ??_Copy_1
        MOVS     R0,R5
          CFI FunCall _ZNKSs8max_sizeEv
        BL       _ZNKSs8max_sizeEv
        MOV      R8,R0
        MOVS     R0,R5
          CFI FunCall _ZNSt13_String_allocISt18_String_base_typesIcSaIcEEE6_MyresEv
        BL       _ZNSt13_String_allocISt18_String_base_typesIcSaIcEEE6_MyresEv
        MOV      R9,R0
        MOVS     R0,R5
          CFI FunCall _ZNSt13_String_allocISt18_String_base_typesIcSaIcEEE6_MyresEv
        BL       _ZNSt13_String_allocISt18_String_base_typesIcSaIcEEE6_MyresEv
        LDR      R1,[R9, #+0]
        SUBS     R8,R8,R1, LSR #+1
        LDR      R0,[R0, #+0]
        CMP      R8,R0
        BCC.N    ??_Copy_2
        MOVS     R0,R5
          CFI FunCall _ZNSt13_String_allocISt18_String_base_typesIcSaIcEEE6_MyresEv
        BL       _ZNSt13_String_allocISt18_String_base_typesIcSaIcEEE6_MyresEv
        MOV      R8,R0
        MOVS     R0,R5
          CFI FunCall _ZNSt13_String_allocISt18_String_base_typesIcSaIcEEE6_MyresEv
        BL       _ZNSt13_String_allocISt18_String_base_typesIcSaIcEEE6_MyresEv
        LDR      R1,[R8, #+0]
        LDR      R0,[R0, #+0]
        ADDS     R1,R1,R0, LSR #+1
        MOVS     R7,R1
        B.N      ??_Copy_1
??_Copy_2:
        MOVS     R0,R5
          CFI FunCall _ZNKSs8max_sizeEv
        BL       _ZNKSs8max_sizeEv
        MOVS     R7,R0
??_Copy_1:
        MOVS     R0,R5
          CFI FunCall _ZNSt13_String_allocISt18_String_base_typesIcSaIcEEE6_GetalEv
        BL       _ZNSt13_String_allocISt18_String_base_typesIcSaIcEEE6_GetalEv
        ADDS     R1,R7,#+1
          CFI FunCall _ZNSt11_Wrap_allocISaIcEE8allocateEj
        BL       _ZNSt11_Wrap_allocISaIcEE8allocateEj
        STR      R0,[SP, #+0]
        CMP      R4,#+0
        BEQ.N    ??_Copy_3
        MOVS     R0,R5
          CFI FunCall _ZNSt13_String_allocISt18_String_base_typesIcSaIcEEE6_MyptrEv
        BL       _ZNSt13_String_allocISt18_String_base_typesIcSaIcEEE6_MyptrEv
        MOV      R8,R0
        LDR      R0,[SP, #+0]
          CFI FunCall _ZSt9addressofIcEPT_RS0_
        BL       _ZSt9addressofIcEPT_RS0_
        MOVS     R2,R4
        MOV      R1,R8
          CFI FunCall _ZNSt11char_traitsIcE4copyEPcPKcj
        BL       _ZNSt11char_traitsIcE4copyEPcPKcj
??_Copy_3:
        MOVS     R2,#+0
        MOVS     R1,#+1
        MOVS     R0,R5
          CFI FunCall _ZNSs5_TidyEbj
        BL       _ZNSs5_TidyEbj
        MOV      R0,SP
          CFI FunCall _ZSt4moveIRPcEONSt16remove_referenceIT_E4typeEOS3_
        BL       _ZSt4moveIRPcEONSt16remove_referenceIT_E4typeEOS3_
        MOV      R8,R0
        MOVS     R0,R5
          CFI FunCall _ZNSt13_String_allocISt18_String_base_typesIcSaIcEEE3_BxEv
        BL       _ZNSt13_String_allocISt18_String_base_typesIcSaIcEEE3_BxEv
        MOV      R9,R0
        MOVS     R0,R5
          CFI FunCall _ZNSt13_String_allocISt18_String_base_typesIcSaIcEEE6_GetalEv
        BL       _ZNSt13_String_allocISt18_String_base_typesIcSaIcEEE6_GetalEv
        MOV      R2,R8
        MOV      R1,R9
          CFI FunCall _ZNSt11_Wrap_allocISaIcEE9constructIPcJS3_EEEvPT_DpOT0_
        BL       _ZNSt11_Wrap_allocISaIcEE9constructIPcJS3_EEEvPT_DpOT0_
        MOVS     R0,R5
          CFI FunCall _ZNSt13_String_allocISt18_String_base_typesIcSaIcEEE6_MyresEv
        BL       _ZNSt13_String_allocISt18_String_base_typesIcSaIcEEE6_MyresEv
        STR      R7,[R0, #+0]
        MOVS     R1,R4
        MOVS     R0,R5
          CFI FunCall _ZNSs4_EosEj
        BL       _ZNSs4_EosEj
        POP      {R0,R4-R9,PC}    ;; return
          CFI EndBlock cfiBlock71

        SECTION `.text`:CODE:REORDER:NOROOT(1)
        SECTION_GROUP _ZNSs4_EosEj
          CFI Block cfiBlock72 Using cfiCommon0
          CFI Function _ZNSs4_EosEj
        THUMB
// __interwork __vfp void std::string::_Eos(size_t)
_ZNSs4_EosEj:
        PUSH     {R2-R6,LR}
          CFI R14 Frame(CFA, -4)
          CFI R6 Frame(CFA, -8)
          CFI R5 Frame(CFA, -12)
          CFI R4 Frame(CFA, -16)
          CFI CFA R13+24
        MOVS     R4,R0
        MOVS     R5,R1
        MOVS     R0,#+0
        STRB     R0,[SP, #+0]
        MOVS     R0,R4
          CFI FunCall _ZNSt13_String_allocISt18_String_base_typesIcSaIcEEE6_MyptrEv
        BL       _ZNSt13_String_allocISt18_String_base_typesIcSaIcEEE6_MyptrEv
        MOVS     R6,R0
        MOVS     R0,R4
          CFI FunCall _ZNSt13_String_allocISt18_String_base_typesIcSaIcEEE7_MysizeEv
        BL       _ZNSt13_String_allocISt18_String_base_typesIcSaIcEEE7_MysizeEv
        STR      R5,[R0, #+0]
        MOV      R1,SP
        LDR      R0,[R0, #+0]
        ADD      R0,R6,R0
          CFI FunCall _ZNSt11char_traitsIcE6assignERcRKc
        BL       _ZNSt11char_traitsIcE6assignERcRKc
        POP      {R0,R1,R4-R6,PC}  ;; return
          CFI EndBlock cfiBlock72

        SECTION `.text`:CODE:REORDER:NOROOT(1)
        SECTION_GROUP _ZNSs5_GrowEjb
          CFI Block cfiBlock73 Using cfiCommon0
          CFI Function _ZNSs5_GrowEjb
        THUMB
// __interwork __vfp bool std::string::_Grow(size_t, bool)
_ZNSs5_GrowEjb:
        PUSH     {R4-R6,LR}
          CFI R14 Frame(CFA, -4)
          CFI R6 Frame(CFA, -8)
          CFI R5 Frame(CFA, -12)
          CFI R4 Frame(CFA, -16)
          CFI CFA R13+16
        MOVS     R5,R0
        MOVS     R4,R1
        MOVS     R6,R2
        MOVS     R0,R5
          CFI FunCall _ZNKSs8max_sizeEv
        BL       _ZNKSs8max_sizeEv
        CMP      R0,R4
        BCS.N    ??_Grow_0
          CFI FunCall __iar_Raise_len
        BL       __iar_Raise_len
??_Grow_0:
        MOVS     R0,R5
          CFI FunCall _ZNSt13_String_allocISt18_String_base_typesIcSaIcEEE6_MyresEv
        BL       _ZNSt13_String_allocISt18_String_base_typesIcSaIcEEE6_MyresEv
        LDR      R0,[R0, #+0]
        CMP      R0,R4
        BCS.N    ??_Grow_1
        MOVS     R0,R5
          CFI FunCall _ZNSt13_String_allocISt18_String_base_typesIcSaIcEEE7_MysizeEv
        BL       _ZNSt13_String_allocISt18_String_base_typesIcSaIcEEE7_MysizeEv
        LDR      R2,[R0, #+0]
        MOVS     R1,R4
        MOVS     R0,R5
          CFI FunCall _ZNSs5_CopyEjj
        BL       _ZNSs5_CopyEjj
        B.N      ??_Grow_2
??_Grow_1:
        MOVS     R0,R6
        UXTB     R0,R0            ;; ZeroExt  R0,R0,#+24,#+24
        CMP      R0,#+0
        BEQ.N    ??_Grow_3
        CMP      R4,#+16
        BCS.N    ??_Grow_3
        MOVS     R0,R5
          CFI FunCall _ZNSt13_String_allocISt18_String_base_typesIcSaIcEEE7_MysizeEv
        BL       _ZNSt13_String_allocISt18_String_base_typesIcSaIcEEE7_MysizeEv
        LDR      R0,[R0, #+0]
        CMP      R4,R0
        BCS.N    ??_Grow_4
        MOVS     R2,R4
        B.N      ??_Grow_5
??_Grow_4:
        MOVS     R0,R5
          CFI FunCall _ZNSt13_String_allocISt18_String_base_typesIcSaIcEEE7_MysizeEv
        BL       _ZNSt13_String_allocISt18_String_base_typesIcSaIcEEE7_MysizeEv
        LDR      R2,[R0, #+0]
??_Grow_5:
        MOVS     R1,#+1
        MOVS     R0,R5
          CFI FunCall _ZNSs5_TidyEbj
        BL       _ZNSs5_TidyEbj
        B.N      ??_Grow_2
??_Grow_3:
        CMP      R4,#+0
        BNE.N    ??_Grow_2
        MOVS     R1,#+0
        MOVS     R0,R5
          CFI FunCall _ZNSs4_EosEj
        BL       _ZNSs4_EosEj
??_Grow_2:
        CMP      R4,#+0
        BEQ.N    ??_Grow_6
        MOVS     R0,#+1
        B.N      ??_Grow_7
??_Grow_6:
        MOVS     R0,#+0
??_Grow_7:
        UXTB     R0,R0            ;; ZeroExt  R0,R0,#+24,#+24
        POP      {R4-R6,PC}       ;; return
          CFI EndBlock cfiBlock73

        SECTION `.text`:CODE:REORDER:NOROOT(1)
        SECTION_GROUP _ZNSs7_InsideEPKc
          CFI Block cfiBlock74 Using cfiCommon0
          CFI Function _ZNSs7_InsideEPKc
        THUMB
// __interwork __vfp bool std::string::_Inside(char const *)
_ZNSs7_InsideEPKc:
        PUSH     {R4-R6,LR}
          CFI R14 Frame(CFA, -4)
          CFI R6 Frame(CFA, -8)
          CFI R5 Frame(CFA, -12)
          CFI R4 Frame(CFA, -16)
          CFI CFA R13+16
        MOVS     R5,R0
        MOVS     R4,R1
        CMP      R4,#+0
        BEQ.N    ??_Inside_0
        MOVS     R0,R5
          CFI FunCall _ZNSt13_String_allocISt18_String_base_typesIcSaIcEEE6_MyptrEv
        BL       _ZNSt13_String_allocISt18_String_base_typesIcSaIcEEE6_MyptrEv
        CMP      R4,R0
        BCC.N    ??_Inside_0
        MOVS     R0,R5
          CFI FunCall _ZNSt13_String_allocISt18_String_base_typesIcSaIcEEE6_MyptrEv
        BL       _ZNSt13_String_allocISt18_String_base_typesIcSaIcEEE6_MyptrEv
        MOVS     R6,R0
        MOVS     R0,R5
          CFI FunCall _ZNSt13_String_allocISt18_String_base_typesIcSaIcEEE7_MysizeEv
        BL       _ZNSt13_String_allocISt18_String_base_typesIcSaIcEEE7_MysizeEv
        LDR      R0,[R0, #+0]
        ADD      R0,R6,R0
        CMP      R4,R0
        BCC.N    ??_Inside_1
??_Inside_0:
        MOVS     R0,#+0
        B.N      ??_Inside_2
??_Inside_1:
        MOVS     R0,#+1
??_Inside_2:
        POP      {R4-R6,PC}       ;; return
          CFI EndBlock cfiBlock74

        SECTION `.text`:CODE:REORDER:NOROOT(1)
        SECTION_GROUP _ZNSs5_TidyEbj
          CFI Block cfiBlock75 Using cfiCommon0
          CFI Function _ZNSs5_TidyEbj
        THUMB
// __interwork __vfp void std::string::_Tidy(bool, size_t)
_ZNSs5_TidyEbj:
        PUSH     {R4-R8,LR}
          CFI R14 Frame(CFA, -4)
          CFI R8 Frame(CFA, -8)
          CFI R7 Frame(CFA, -12)
          CFI R6 Frame(CFA, -16)
          CFI R5 Frame(CFA, -20)
          CFI R4 Frame(CFA, -24)
          CFI CFA R13+24
        MOVS     R5,R0
        MOVS     R6,R1
        MOVS     R4,R2
        MOVS     R0,R6
        UXTB     R0,R0            ;; ZeroExt  R0,R0,#+24,#+24
        CMP      R0,#+0
        BEQ.N    ??_Tidy_0
        MOVS     R0,R5
          CFI FunCall _ZNSt13_String_allocISt18_String_base_typesIcSaIcEEE6_MyresEv
        BL       _ZNSt13_String_allocISt18_String_base_typesIcSaIcEEE6_MyresEv
        LDR      R0,[R0, #+0]
        CMP      R0,#+16
        BCC.N    ??_Tidy_0
        MOVS     R0,R5
          CFI FunCall _ZNSt13_String_allocISt18_String_base_typesIcSaIcEEE3_BxEv
        BL       _ZNSt13_String_allocISt18_String_base_typesIcSaIcEEE3_BxEv
        LDR      R7,[R0, #+0]
        MOVS     R0,R5
          CFI FunCall _ZNSt13_String_allocISt18_String_base_typesIcSaIcEEE3_BxEv
        BL       _ZNSt13_String_allocISt18_String_base_typesIcSaIcEEE3_BxEv
        MOV      R8,R0
        MOVS     R0,R5
          CFI FunCall _ZNSt13_String_allocISt18_String_base_typesIcSaIcEEE6_GetalEv
        BL       _ZNSt13_String_allocISt18_String_base_typesIcSaIcEEE6_GetalEv
        MOV      R1,R8
          CFI FunCall _ZNSt11_Wrap_allocISaIcEE7destroyIPcEEvPT_
        BL       _ZNSt11_Wrap_allocISaIcEE7destroyIPcEEvPT_
        CMP      R4,#+0
        BEQ.N    ??_Tidy_1
        MOVS     R0,R7
          CFI FunCall _ZSt9addressofIcEPT_RS0_
        BL       _ZSt9addressofIcEPT_RS0_
        MOV      R8,R0
        MOVS     R0,R5
          CFI FunCall _ZNSt13_String_allocISt18_String_base_typesIcSaIcEEE3_BxEv
        BL       _ZNSt13_String_allocISt18_String_base_typesIcSaIcEEE3_BxEv
        MOVS     R2,R4
        MOV      R1,R8
          CFI FunCall _ZNSt11char_traitsIcE4copyEPcPKcj
        BL       _ZNSt11char_traitsIcE4copyEPcPKcj
??_Tidy_1:
        MOVS     R0,R5
          CFI FunCall _ZNSt13_String_allocISt18_String_base_typesIcSaIcEEE6_MyresEv
        BL       _ZNSt13_String_allocISt18_String_base_typesIcSaIcEEE6_MyresEv
        MOV      R8,R0
        MOVS     R0,R5
          CFI FunCall _ZNSt13_String_allocISt18_String_base_typesIcSaIcEEE6_GetalEv
        BL       _ZNSt13_String_allocISt18_String_base_typesIcSaIcEEE6_GetalEv
        LDR      R2,[R8, #+0]
        ADDS     R2,R2,#+1
        MOVS     R1,R7
          CFI FunCall _ZNSt11_Wrap_allocISaIcEE10deallocateEPcj
        BL       _ZNSt11_Wrap_allocISaIcEE10deallocateEPcj
??_Tidy_0:
        MOVS     R0,R5
          CFI FunCall _ZNSt13_String_allocISt18_String_base_typesIcSaIcEEE6_MyresEv
        BL       _ZNSt13_String_allocISt18_String_base_typesIcSaIcEEE6_MyresEv
        MOVS     R1,#+15
        STR      R1,[R0, #+0]
        MOVS     R1,R4
        MOVS     R0,R5
          CFI FunCall _ZNSs4_EosEj
        BL       _ZNSs4_EosEj
        POP      {R4-R8,PC}       ;; return
          CFI EndBlock cfiBlock75

        SECTION `.text`:CODE:REORDER:NOROOT(1)
        SECTION_GROUP _ZNSt5arrayIcLj200EE4fillERKc
          CFI Block cfiBlock76 Using cfiCommon0
          CFI Function _ZNSt5arrayIcLj200EE4fillERKc
        THUMB
// __interwork __vfp void std::array<char, 200U>::fill(char const &)
_ZNSt5arrayIcLj200EE4fillERKc:
        PUSH     {R3-R5,LR}
          CFI R14 Frame(CFA, -4)
          CFI R5 Frame(CFA, -8)
          CFI R4 Frame(CFA, -12)
          CFI CFA R13+16
        MOVS     R4,R0
        MOVS     R5,R1
        LDRB     R2,[R5, #+0]
        MOVS     R1,#+200
        MOVS     R0,R4
          CFI FunCall _ZSt7_Fill_nPcjc
        BL       _ZSt7_Fill_nPcjc
        POP      {R0,R4,R5,PC}    ;; return
          CFI EndBlock cfiBlock76

        SECTION `.text`:CODE:REORDER:NOROOT(1)
        SECTION_GROUP _ZNKSt5arrayIcLj1024EE4sizeEv
          CFI Block cfiBlock77 Using cfiCommon0
          CFI Function _ZNKSt5arrayIcLj1024EE4sizeEv
          CFI NoCalls
        THUMB
// __interwork __vfp size_t std::array<char, 1024U>::size() const
_ZNKSt5arrayIcLj1024EE4sizeEv:
        MOVS     R1,R0
        MOV      R0,#+1024
        BX       LR               ;; return
          CFI EndBlock cfiBlock77

        SECTION `.text`:CODE:REORDER:NOROOT(1)
        SECTION_GROUP _ZNKSt5arrayIcLj200EE4sizeEv
          CFI Block cfiBlock78 Using cfiCommon0
          CFI Function _ZNKSt5arrayIcLj200EE4sizeEv
          CFI NoCalls
        THUMB
// __interwork __vfp size_t std::array<char, 200U>::size() const
_ZNKSt5arrayIcLj200EE4sizeEv:
        MOVS     R1,R0
        MOVS     R0,#+200
        BX       LR               ;; return
          CFI EndBlock cfiBlock78

        SECTION `.text`:CODE:REORDER:NOROOT(1)
        SECTION_GROUP _ZNSt5arrayIcLj1024EEixEj
          CFI Block cfiBlock79 Using cfiCommon0
          CFI Function _ZNSt5arrayIcLj1024EEixEj
          CFI NoCalls
        THUMB
// __interwork __vfp char & std::array<char, 1024U>::operator[](size_t)
_ZNSt5arrayIcLj1024EEixEj:
        ADD      R0,R0,R1
        BX       LR               ;; return
          CFI EndBlock cfiBlock79

        SECTION `.text`:CODE:REORDER:NOROOT(1)
        SECTION_GROUP _ZNSt5arrayIcLj200EEixEj
          CFI Block cfiBlock80 Using cfiCommon0
          CFI Function _ZNSt5arrayIcLj200EEixEj
          CFI NoCalls
        THUMB
// __interwork __vfp char & std::array<char, 200U>::operator[](size_t)
_ZNSt5arrayIcLj200EEixEj:
        ADD      R0,R0,R1
        BX       LR               ;; return
          CFI EndBlock cfiBlock80

        SECTION `.text`:CODE:REORDER:NOROOT(1)
        SECTION_GROUP _ZNSt5arrayIcLj1024EE4dataEv
          CFI Block cfiBlock81 Using cfiCommon0
          CFI Function _ZNSt5arrayIcLj1024EE4dataEv
          CFI NoCalls
        THUMB
// __interwork __vfp char *std::array<char, 1024U>::data()
_ZNSt5arrayIcLj1024EE4dataEv:
        BX       LR               ;; return
          CFI EndBlock cfiBlock81

        SECTION `.text`:CODE:REORDER:NOROOT(1)
        SECTION_GROUP _ZNSt5arrayIcLj200EE4dataEv
          CFI Block cfiBlock82 Using cfiCommon0
          CFI Function _ZNSt5arrayIcLj200EE4dataEv
          CFI NoCalls
        THUMB
// __interwork __vfp char *std::array<char, 200U>::data()
_ZNSt5arrayIcLj200EE4dataEv:
        BX       LR               ;; return
          CFI EndBlock cfiBlock82

        SECTION `.text`:CODE:REORDER:NOROOT(1)
        SECTION_GROUP _ZNSt5arrayIjLj400EE4dataEv
          CFI Block cfiBlock83 Using cfiCommon0
          CFI Function _ZNSt5arrayIjLj400EE4dataEv
          CFI NoCalls
        THUMB
// __interwork __vfp uint32_t *std::array<uint32_t, 400U>::data()
_ZNSt5arrayIjLj400EE4dataEv:
        BX       LR               ;; return
          CFI EndBlock cfiBlock83

        SECTION `.text`:CODE:REORDER:NOROOT(1)
        SECTION_GROUP _ZNSt5arrayIjLj128EE4dataEv
          CFI Block cfiBlock84 Using cfiCommon0
          CFI Function _ZNSt5arrayIjLj128EE4dataEv
          CFI NoCalls
        THUMB
// __interwork __vfp uint32_t *std::array<uint32_t, 128U>::data()
_ZNSt5arrayIjLj128EE4dataEv:
        BX       LR               ;; return
          CFI EndBlock cfiBlock84

        SECTION `.text`:CODE:REORDER:NOROOT(1)
        SECTION_GROUP _ZNSt6chrono13duration_castINS_8durationIjSt5ratioILx10ELx1000EEEExS2_ILx1ELx1000EEEENSt9enable_ifIXsr3std6chrono12_Is_durationIT_EE5valueES7_E4typeERKNS1_IT0_T1_EE
          CFI Block cfiBlock85 Using cfiCommon0
          CFI Function _ZNSt6chrono13duration_castINS_8durationIjSt5ratioILx10ELx1000EEEExS2_ILx1ELx1000EEEENSt9enable_ifIXsr3std6chrono12_Is_durationIT_EE5valueES7_E4typeERKNS1_IT0_T1_EE
        THUMB
// __interwork __vfp OsWrapper::TicksPerSecond std::chrono::duration_cast<OsWrapper::TicksPerSecond, __int64_t, std::milli>(std::chrono::duration<__int64_t, std::milli> const &)
_ZNSt6chrono13duration_castINS_8durationIjSt5ratioILx10ELx1000EEEExS2_ILx1ELx1000EEEENSt9enable_ifIXsr3std6chrono12_Is_durationIT_EE5valueES7_E4typeERKNS1_IT0_T1_EE:
        PUSH     {R2-R4,LR}
          CFI R14 Frame(CFA, -4)
          CFI R4 Frame(CFA, -8)
          CFI CFA R13+16
        MOVS     R4,R0
        MOVS     R0,R4
          CFI FunCall _ZNKSt6chrono8durationIxSt5ratioILx1ELx1000EEE5countEv
        BL       _ZNKSt6chrono8durationIxSt5ratioILx1ELx1000EEE5countEv
        MOVS     R2,#+10
        MOVS     R3,#+0
          CFI FunCall __aeabi_ldivmod
        BL       __aeabi_ldivmod
        STR      R0,[SP, #+4]
        ADD      R1,SP,#+4
        MOV      R0,SP
          CFI FunCall _ZNSt6chrono8durationIjSt5ratioILx10ELx1000EEEC1IjvEERKT_
        BL       _ZNSt6chrono8durationIjSt5ratioILx10ELx1000EEEC1IjvEERKT_
        LDR      R0,[SP, #+0]
        POP      {R1,R2,R4,PC}    ;; return
          CFI EndBlock cfiBlock85

        SECTION `.text`:CODE:REORDER:NOROOT(1)
        SECTION_GROUP _ZNSt6chrono8durationIjSt5ratioILx10ELx1000EEEC1IjvEERKT_
          CFI Block cfiBlock86 Using cfiCommon0
          CFI Function _ZNSt6chrono8durationIjSt5ratioILx10ELx1000EEEC1IjvEERKT_
          CFI NoCalls
        THUMB
// __code __interwork __vfp std::chrono::duration<uint32_t, std::ratio<10LL, 1000LL>>::duration<uint32_t, void>(uint32_t const &)
_ZNSt6chrono8durationIjSt5ratioILx10ELx1000EEEC1IjvEERKT_:
        LDR      R2,[R1, #+0]
        STR      R2,[R0, #+0]
        BX       LR               ;; return
          CFI EndBlock cfiBlock86

        SECTION `.text`:CODE:REORDER:NOROOT(1)
        SECTION_GROUP _ZNKSt6chrono8durationIxSt5ratioILx1ELx1000EEE5countEv
          CFI Block cfiBlock87 Using cfiCommon0
          CFI Function _ZNKSt6chrono8durationIxSt5ratioILx1ELx1000EEE5countEv
          CFI NoCalls
        THUMB
// __interwork __vfp __int64_t std::chrono::duration<__int64_t, std::milli>::count() const
_ZNKSt6chrono8durationIxSt5ratioILx1ELx1000EEE5countEv:
        LDRD     R0,R1,[R0, #+0]
        BX       LR               ;; return
          CFI EndBlock cfiBlock87

        SECTION `.text`:CODE:REORDER:NOROOT(1)
        SECTION_GROUP _ZNKSt6chrono8durationIjSt5ratioILx10ELx1000EEE5countEv
          CFI Block cfiBlock88 Using cfiCommon0
          CFI Function _ZNKSt6chrono8durationIjSt5ratioILx10ELx1000EEE5countEv
          CFI NoCalls
        THUMB
// __interwork __vfp uint32_t std::chrono::duration<uint32_t, std::ratio<10LL, 1000LL>>::count() const
_ZNKSt6chrono8durationIjSt5ratioILx10ELx1000EEE5countEv:
        LDR      R0,[R0, #+0]
        BX       LR               ;; return
          CFI EndBlock cfiBlock88

        SECTION `.text`:CODE:REORDER:NOROOT(2)
        SECTION_GROUP _ZN9OsWrapper11RtosWrapper13wCreateThreadINS_4RtosE15MeasurementTaskEEvRT0_PKcNS_14ThreadPriorityEtPj
          CFI Block cfiBlock89 Using cfiCommon0
          CFI Function _ZN9OsWrapper11RtosWrapper13wCreateThreadINS_4RtosE15MeasurementTaskEEvRT0_PKcNS_14ThreadPriorityEtPj
        THUMB
// __interwork __vfp void OsWrapper::RtosWrapper::wCreateThread<OsWrapper::Rtos, MeasurementTask>(MeasurementTask &, char const *, OsWrapper::ThreadPriority, uint16_t, uint32_t *)
_ZN9OsWrapper11RtosWrapper13wCreateThreadINS_4RtosE15MeasurementTaskEEvRT0_PKcNS_14ThreadPriorityEtPj:
        PUSH     {R0-R8,LR}
          CFI R14 Frame(CFA, -4)
          CFI R8 Frame(CFA, -8)
          CFI R7 Frame(CFA, -12)
          CFI R6 Frame(CFA, -16)
          CFI R5 Frame(CFA, -20)
          CFI R4 Frame(CFA, -24)
          CFI CFA R13+40
        MOVS     R5,R0
        MOVS     R6,R1
        MOVS     R7,R2
        MOV      R8,R3
        LDR      R4,[SP, #+40]
        CMP      R4,#+0
        BEQ.N    ??wCreateThread_3
        ADDS     R0,R5,#+4
        STR      R0,[SP, #+8]
        STR      R4,[SP, #+4]
        MOVS     R0,R7
        UXTB     R0,R0            ;; ZeroExt  R0,R0,#+24,#+24
        STR      R0,[SP, #+0]
        MOVS     R3,R5
        MOV      R2,R8
        UXTH     R2,R2            ;; ZeroExt  R2,R2,#+16,#+16
        MOVS     R1,R6
        LDR.N    R0,??wCreateThread_0
          CFI FunCall xTaskCreateStatic
        BL       xTaskCreateStatic
        STR      R0,[R5, #+84]
??wCreateThread_3:
        POP      {R0-R8,PC}       ;; return
        Nop      
        DATA
??wCreateThread_0:
        DATA32
        DC32     _ZN9OsWrapper4Rtos3RunEPv
          CFI EndBlock cfiBlock89

        SECTION `.text`:CODE:REORDER:NOROOT(2)
        SECTION_GROUP _ZN9OsWrapper11RtosWrapper13wCreateThreadINS_4RtosE13BluetoothTaskEEvRT0_PKcNS_14ThreadPriorityEtPj
          CFI Block cfiBlock90 Using cfiCommon0
          CFI Function _ZN9OsWrapper11RtosWrapper13wCreateThreadINS_4RtosE13BluetoothTaskEEvRT0_PKcNS_14ThreadPriorityEtPj
        THUMB
// __interwork __vfp void OsWrapper::RtosWrapper::wCreateThread<OsWrapper::Rtos, BluetoothTask>(BluetoothTask &, char const *, OsWrapper::ThreadPriority, uint16_t, uint32_t *)
_ZN9OsWrapper11RtosWrapper13wCreateThreadINS_4RtosE13BluetoothTaskEEvRT0_PKcNS_14ThreadPriorityEtPj:
        PUSH     {R0-R8,LR}
          CFI R14 Frame(CFA, -4)
          CFI R8 Frame(CFA, -8)
          CFI R7 Frame(CFA, -12)
          CFI R6 Frame(CFA, -16)
          CFI R5 Frame(CFA, -20)
          CFI R4 Frame(CFA, -24)
          CFI CFA R13+40
        MOVS     R5,R0
        MOVS     R6,R1
        MOVS     R7,R2
        MOV      R8,R3
        LDR      R4,[SP, #+40]
        CMP      R4,#+0
        BEQ.N    ??wCreateThread_4
        ADDS     R0,R5,#+4
        STR      R0,[SP, #+8]
        STR      R4,[SP, #+4]
        MOVS     R0,R7
        UXTB     R0,R0            ;; ZeroExt  R0,R0,#+24,#+24
        STR      R0,[SP, #+0]
        MOVS     R3,R5
        MOV      R2,R8
        UXTH     R2,R2            ;; ZeroExt  R2,R2,#+16,#+16
        MOVS     R1,R6
        LDR.N    R0,??wCreateThread_1
          CFI FunCall xTaskCreateStatic
        BL       xTaskCreateStatic
        STR      R0,[R5, #+84]
??wCreateThread_4:
        POP      {R0-R8,PC}       ;; return
        Nop      
        DATA
??wCreateThread_1:
        DATA32
        DC32     _ZN9OsWrapper4Rtos3RunEPv
          CFI EndBlock cfiBlock90

        SECTION `.text`:CODE:REORDER:NOROOT(2)
        SECTION_GROUP _ZN9OsWrapper11RtosWrapper13wCreateThreadINS_4RtosE15ButtonEventTaskI6ButtonI3PinI4PortI5GPIOCELh13EEEL_Z5eventEEEEvRT0_PKcNS_14ThreadPriorityEtPj
          CFI Block cfiBlock91 Using cfiCommon0
          CFI Function _ZN9OsWrapper11RtosWrapper13wCreateThreadINS_4RtosE15ButtonEventTaskI6ButtonI3PinI4PortI5GPIOCELh13EEEL_Z5eventEEEEvRT0_PKcNS_14ThreadPriorityEtPj
        THUMB
// __interwork __vfp void OsWrapper::RtosWrapper::wCreateThread<OsWrapper::Rtos, ButtonEventTask<UserButton, event>>(ButtonEventTask<UserButton, event> &, char const *, OsWrapper::ThreadPriority, uint16_t, uint32_t *)
_ZN9OsWrapper11RtosWrapper13wCreateThreadINS_4RtosE15ButtonEventTaskI6ButtonI3PinI4PortI5GPIOCELh13EEEL_Z5eventEEEEvRT0_PKcNS_14ThreadPriorityEtPj:
        PUSH     {R0-R8,LR}
          CFI R14 Frame(CFA, -4)
          CFI R8 Frame(CFA, -8)
          CFI R7 Frame(CFA, -12)
          CFI R6 Frame(CFA, -16)
          CFI R5 Frame(CFA, -20)
          CFI R4 Frame(CFA, -24)
          CFI CFA R13+40
        MOVS     R5,R0
        MOVS     R6,R1
        MOVS     R7,R2
        MOV      R8,R3
        LDR      R4,[SP, #+40]
        CMP      R4,#+0
        BEQ.N    ??wCreateThread_5
        ADDS     R0,R5,#+4
        STR      R0,[SP, #+8]
        STR      R4,[SP, #+4]
        MOVS     R0,R7
        UXTB     R0,R0            ;; ZeroExt  R0,R0,#+24,#+24
        STR      R0,[SP, #+0]
        MOVS     R3,R5
        MOV      R2,R8
        UXTH     R2,R2            ;; ZeroExt  R2,R2,#+16,#+16
        MOVS     R1,R6
        LDR.N    R0,??wCreateThread_2
          CFI FunCall xTaskCreateStatic
        BL       xTaskCreateStatic
        STR      R0,[R5, #+84]
??wCreateThread_5:
        POP      {R0-R8,PC}       ;; return
        Nop      
        DATA
??wCreateThread_2:
        DATA32
        DC32     _ZN9OsWrapper4Rtos3RunEPv
          CFI EndBlock cfiBlock91

        SECTION `.text`:CODE:REORDER:NOROOT(1)
        SECTION_GROUP _ZN9OsWrapper11RtosWrapper6wStartEv
          CFI Block cfiBlock92 Using cfiCommon0
          CFI Function _ZN9OsWrapper11RtosWrapper6wStartEv
        THUMB
// __interwork __vfp void OsWrapper::RtosWrapper::wStart()
_ZN9OsWrapper11RtosWrapper6wStartEv:
        PUSH     {R7,LR}
          CFI R14 Frame(CFA, -4)
          CFI CFA R13+8
          CFI FunCall vTaskStartScheduler
        BL       vTaskStartScheduler
        POP      {R0,PC}          ;; return
          CFI EndBlock cfiBlock92

        SECTION `.text`:CODE:REORDER:NOROOT(1)
        SECTION_GROUP _ZN9OsWrapper11RtosWrapper6wSleepEj
          CFI Block cfiBlock93 Using cfiCommon0
          CFI Function _ZN9OsWrapper11RtosWrapper6wSleepEj
        THUMB
// __interwork __vfp void OsWrapper::RtosWrapper::wSleep(uint32_t)
_ZN9OsWrapper11RtosWrapper6wSleepEj:
        PUSH     {R4,LR}
          CFI R14 Frame(CFA, -4)
          CFI R4 Frame(CFA, -8)
          CFI CFA R13+8
        MOVS     R4,R0
        MOVS     R0,R4
          CFI FunCall vTaskDelay
        BL       vTaskDelay
        POP      {R4,PC}          ;; return
          CFI EndBlock cfiBlock93

        SECTION `.text`:CODE:REORDER:NOROOT(1)
        SECTION_GROUP _ZN9OsWrapper11RtosWrapper12wCreateEventER19xSTATIC_EVENT_GROUP
          CFI Block cfiBlock94 Using cfiCommon0
          CFI Function _ZN9OsWrapper11RtosWrapper12wCreateEventER19xSTATIC_EVENT_GROUP
        THUMB
// __interwork __vfp void * OsWrapper::RtosWrapper::wCreateEvent(OsWrapper::tEvent &)
_ZN9OsWrapper11RtosWrapper12wCreateEventER19xSTATIC_EVENT_GROUP:
        PUSH     {R4,LR}
          CFI R14 Frame(CFA, -4)
          CFI R4 Frame(CFA, -8)
          CFI CFA R13+8
        MOVS     R4,R0
        MOVS     R0,R4
          CFI FunCall xEventGroupCreateStatic
        BL       xEventGroupCreateStatic
        POP      {R4,PC}          ;; return
          CFI EndBlock cfiBlock94

        SECTION `.text`:CODE:REORDER:NOROOT(1)
        SECTION_GROUP _ZN9OsWrapper11RtosWrapper12wDeleteEventERPv
          CFI Block cfiBlock95 Using cfiCommon0
          CFI Function _ZN9OsWrapper11RtosWrapper12wDeleteEventERPv
        THUMB
// __interwork __vfp void OsWrapper::RtosWrapper::wDeleteEvent(void * &)
_ZN9OsWrapper11RtosWrapper12wDeleteEventERPv:
        PUSH     {R4,LR}
          CFI R14 Frame(CFA, -4)
          CFI R4 Frame(CFA, -8)
          CFI CFA R13+8
        MOVS     R4,R0
        LDR      R0,[R4, #+0]
          CFI FunCall vEventGroupDelete
        BL       vEventGroupDelete
        POP      {R4,PC}          ;; return
          CFI EndBlock cfiBlock95

        SECTION `.text`:CODE:REORDER:NOROOT(2)
        SECTION_GROUP _ZN9OsWrapper11RtosWrapper12wSignalEventERKPvj
          CFI Block cfiBlock96 Using cfiCommon0
          CFI Function _ZN9OsWrapper11RtosWrapper12wSignalEventERKPvj
        THUMB
// __interwork __vfp void OsWrapper::RtosWrapper::wSignalEvent(void * const &, uint32_t)
_ZN9OsWrapper11RtosWrapper12wSignalEventERKPvj:
        PUSH     {R3-R5,LR}
          CFI R14 Frame(CFA, -4)
          CFI R5 Frame(CFA, -8)
          CFI R4 Frame(CFA, -12)
          CFI CFA R13+16
        MOVS     R4,R0
        MOVS     R5,R1
        MOVS     R0,#+0
        STR      R0,[SP, #+0]
        MOV      R3,SP
        MOVS     R2,R5
        LDR      R1,[R4, #+0]
        LDR.N    R0,??wSignalEvent_0
          CFI FunCall xTimerPendFunctionCallFromISR
        BL       xTimerPendFunctionCallFromISR
        CMP      R0,#+0
        BEQ.N    ??wSignalEvent_1
        LDR      R0,[SP, #+0]
        CMP      R0,#+0
        BEQ.N    ??wSignalEvent_1
        MOVS     R0,#+268435456
        LDR.N    R1,??wSignalEvent_0+0x4  ;; 0xe000ed04
        STR      R0,[R1, #+0]
        DSB      SY
        ISB      SY
??wSignalEvent_1:
        POP      {R0,R4,R5,PC}    ;; return
        Nop      
        DATA
??wSignalEvent_0:
        DATA32
        DC32     vEventGroupSetBitsCallback
        DC32     0xe000ed04
          CFI EndBlock cfiBlock96

        SECTION `.text`:CODE:REORDER:NOROOT(1)
        SECTION_GROUP _ZN9OsWrapper11RtosWrapper10wWaitEventERKPvjjNS_9EventModeE
          CFI Block cfiBlock97 Using cfiCommon0
          CFI Function _ZN9OsWrapper11RtosWrapper10wWaitEventERKPvjjNS_9EventModeE
        THUMB
// __interwork __vfp uint32_t OsWrapper::RtosWrapper::wWaitEvent(void * const &, uint32_t, uint32_t, OsWrapper::EventMode)
_ZN9OsWrapper11RtosWrapper10wWaitEventERKPvjjNS_9EventModeE:
        PUSH     {R2-R8,LR}
          CFI R14 Frame(CFA, -4)
          CFI R8 Frame(CFA, -8)
          CFI R7 Frame(CFA, -12)
          CFI R6 Frame(CFA, -16)
          CFI R5 Frame(CFA, -20)
          CFI R4 Frame(CFA, -24)
          CFI CFA R13+32
        MOVS     R5,R0
        MOVS     R6,R1
        MOVS     R7,R2
        MOVS     R4,R3
        MOVS     R8,#+0
        CMP      R4,#+0
        BNE.N    ??wWaitEvent_0
        MOVS     R0,#+0
        MOV      R8,R0
??wWaitEvent_0:
        STR      R7,[SP, #+0]
        MOV      R3,R8
        MOVS     R2,#+1
        MOVS     R1,R6
        LDR      R0,[R5, #+0]
          CFI FunCall xEventGroupWaitBits
        BL       xEventGroupWaitBits
        POP      {R1,R2,R4-R8,PC}  ;; return
          CFI EndBlock cfiBlock97

        SECTION `.text`:CODE:REORDER:NOROOT(1)
        SECTION_GROUP _ZN9OsWrapper11RtosWrapper9wGetTicksEv
          CFI Block cfiBlock98 Using cfiCommon0
          CFI Function _ZN9OsWrapper11RtosWrapper9wGetTicksEv
        THUMB
// __interwork __vfp uint32_t OsWrapper::RtosWrapper::wGetTicks()
_ZN9OsWrapper11RtosWrapper9wGetTicksEv:
        PUSH     {R7,LR}
          CFI R14 Frame(CFA, -4)
          CFI CFA R13+8
          CFI FunCall xTaskGetTickCount
        BL       xTaskGetTickCount
        POP      {R1,PC}          ;; return
          CFI EndBlock cfiBlock98

        SECTION `.text`:CODE:REORDER:NOROOT(1)
        SECTION_GROUP _ZN9OsWrapper7IThreadC2Ev
          CFI Block cfiBlock99 Using cfiCommon0
          CFI Function _ZN9OsWrapper7IThreadC2Ev
        THUMB
// __code __interwork __vfp OsWrapper::IThread::subobject IThread()
_ZN9OsWrapper7IThreadC2Ev:
        PUSH     {R4,LR}
          CFI R14 Frame(CFA, -4)
          CFI R4 Frame(CFA, -8)
          CFI CFA R13+8
        MOVS     R4,R0
        MOVS     R0,R4
          CFI FunCall _ZN9OsWrapper7IThreadC1Ev
        BL       _ZN9OsWrapper7IThreadC1Ev
        POP      {R4,PC}          ;; return
          CFI EndBlock cfiBlock99

        SECTION `.text`:CODE:REORDER:NOROOT(1)
        SECTION_GROUP _ZN9OsWrapper7IThreadC1Ev
          CFI Block cfiBlock100 Using cfiCommon0
          CFI Function _ZN9OsWrapper7IThreadC1Ev
          CFI NoCalls
        THUMB
// __code __interwork __vfp OsWrapper::IThread::IThread()
_ZN9OsWrapper7IThreadC1Ev:
        MOVS     R1,#+0
        STR      R1,[R0, #+84]
        MOVS     R1,#+0
        STR      R1,[R0, #+88]
        BX       LR               ;; return
          CFI EndBlock cfiBlock100

        SECTION `.text`:CODE:REORDER:NOROOT(1)
        SECTION_GROUP _ZN9OsWrapper7IThread5SleepENSt6chrono8durationIxSt5ratioILx1ELx1000EEEE
          CFI Block cfiBlock101 Using cfiCommon0
          CFI Function _ZN9OsWrapper7IThread5SleepENSt6chrono8durationIxSt5ratioILx1ELx1000EEEE
        THUMB
// __interwork __vfp void OsWrapper::IThread::Sleep(std::chrono::milliseconds)
_ZN9OsWrapper7IThread5SleepENSt6chrono8durationIxSt5ratioILx1ELx1000EEEE:
        PUSH     {R0,R1,R7,LR}
          CFI R14 Frame(CFA, -4)
          CFI CFA R13+16
        SUB      SP,SP,#+8
          CFI CFA R13+24
        ADD      R0,SP,#+8
          CFI FunCall _ZNSt6chrono13duration_castINS_8durationIjSt5ratioILx10ELx1000EEEExS2_ILx1ELx1000EEEENSt9enable_ifIXsr3std6chrono12_Is_durationIT_EE5valueES7_E4typeERKNS1_IT0_T1_EE
        BL       _ZNSt6chrono13duration_castINS_8durationIjSt5ratioILx10ELx1000EEEExS2_ILx1ELx1000EEEENSt9enable_ifIXsr3std6chrono12_Is_durationIT_EE5valueES7_E4typeERKNS1_IT0_T1_EE
        STR      R0,[SP, #+0]
        MOV      R0,SP
          CFI FunCall _ZNKSt6chrono8durationIjSt5ratioILx10ELx1000EEE5countEv
        BL       _ZNKSt6chrono8durationIjSt5ratioILx10ELx1000EEE5countEv
          CFI FunCall _ZN9OsWrapper11RtosWrapper6wSleepEj
        BL       _ZN9OsWrapper11RtosWrapper6wSleepEj
        ADD      SP,SP,#+20
          CFI CFA R13+4
        POP      {PC}             ;; return
          CFI EndBlock cfiBlock101

        SECTION `.text`:CODE:REORDER:NOROOT(1)
        SECTION_GROUP _ZN9OsWrapper7IThread3RunEv
          CFI Block cfiBlock102 Using cfiCommon0
          CFI Function _ZN9OsWrapper7IThread3RunEv
        THUMB
// __interwork __vfp void OsWrapper::IThread::Run()
_ZN9OsWrapper7IThread3RunEv:
        PUSH     {R4,LR}
          CFI R14 Frame(CFA, -4)
          CFI R4 Frame(CFA, -8)
          CFI CFA R13+8
        MOVS     R4,R0
          CFI FunCall _ZN9OsWrapper11RtosWrapper9wGetTicksEv
        BL       _ZN9OsWrapper11RtosWrapper9wGetTicksEv
        STR      R0,[R4, #+88]
        MOVS     R0,R4
        LDR      R1,[R4, #+0]
        LDR      R1,[R1, #+0]
          CFI FunCall
        BLX      R1
        POP      {R4,PC}          ;; return
          CFI EndBlock cfiBlock102

        SECTION `.text`:CODE:REORDER:NOROOT(1)
        SECTION_GROUP _ZN9OsWrapper6ThreadILj400EEC2Ev
          CFI Block cfiBlock103 Using cfiCommon0
          CFI Function _ZN9OsWrapper6ThreadILj400EEC2Ev
        THUMB
// __code __interwork __vfp OsWrapper::Thread<400U>::subobject Thread()
_ZN9OsWrapper6ThreadILj400EEC2Ev:
        PUSH     {R4,LR}
          CFI R14 Frame(CFA, -4)
          CFI R4 Frame(CFA, -8)
          CFI CFA R13+8
        MOVS     R4,R0
        MOVS     R0,R4
          CFI FunCall _ZN9OsWrapper6ThreadILj400EEC1Ev
        BL       _ZN9OsWrapper6ThreadILj400EEC1Ev
        POP      {R4,PC}          ;; return
          CFI EndBlock cfiBlock103

        SECTION `.text`:CODE:REORDER:NOROOT(1)
        SECTION_GROUP _ZN9OsWrapper6ThreadILj128EEC2Ev
          CFI Block cfiBlock104 Using cfiCommon0
          CFI Function _ZN9OsWrapper6ThreadILj128EEC2Ev
        THUMB
// __code __interwork __vfp OsWrapper::Thread<128U>::subobject Thread()
_ZN9OsWrapper6ThreadILj128EEC2Ev:
        PUSH     {R4,LR}
          CFI R14 Frame(CFA, -4)
          CFI R4 Frame(CFA, -8)
          CFI CFA R13+8
        MOVS     R4,R0
        MOVS     R0,R4
          CFI FunCall _ZN9OsWrapper6ThreadILj128EEC1Ev
        BL       _ZN9OsWrapper6ThreadILj128EEC1Ev
        POP      {R4,PC}          ;; return
          CFI EndBlock cfiBlock104

        SECTION `.text`:CODE:REORDER:NOROOT(1)
        SECTION_GROUP _ZN9OsWrapper6ThreadILj400EEC1Ev
          CFI Block cfiBlock105 Using cfiCommon0
          CFI Function _ZN9OsWrapper6ThreadILj400EEC1Ev
        THUMB
// __code __interwork __vfp OsWrapper::Thread<400U>::Thread()
_ZN9OsWrapper6ThreadILj400EEC1Ev:
        PUSH     {R4,LR}
          CFI R14 Frame(CFA, -4)
          CFI R4 Frame(CFA, -8)
          CFI CFA R13+8
        MOVS     R4,R0
        MOVS     R0,R4
          CFI FunCall _ZN9OsWrapper7IThreadC2Ev
        BL       _ZN9OsWrapper7IThreadC2Ev
        MOVS     R0,R4
        POP      {R4,PC}          ;; return
          CFI EndBlock cfiBlock105

        SECTION `.text`:CODE:REORDER:NOROOT(1)
        SECTION_GROUP _ZN9OsWrapper6ThreadILj128EEC1Ev
          CFI Block cfiBlock106 Using cfiCommon0
          CFI Function _ZN9OsWrapper6ThreadILj128EEC1Ev
        THUMB
// __code __interwork __vfp OsWrapper::Thread<128U>::Thread()
_ZN9OsWrapper6ThreadILj128EEC1Ev:
        PUSH     {R4,LR}
          CFI R14 Frame(CFA, -4)
          CFI R4 Frame(CFA, -8)
          CFI CFA R13+8
        MOVS     R4,R0
        MOVS     R0,R4
          CFI FunCall _ZN9OsWrapper7IThreadC2Ev
        BL       _ZN9OsWrapper7IThreadC2Ev
        MOVS     R0,R4
        POP      {R4,PC}          ;; return
          CFI EndBlock cfiBlock106

        SECTION `.text`:CODE:REORDER:NOROOT(1)
        SECTION_GROUP _ZN9OsWrapper4Rtos12CreateThreadI15MeasurementTaskEEvRT_PKcNS_14ThreadPriorityE
          CFI Block cfiBlock107 Using cfiCommon0
          CFI Function _ZN9OsWrapper4Rtos12CreateThreadI15MeasurementTaskEEvRT_PKcNS_14ThreadPriorityE
        THUMB
// __interwork __vfp void OsWrapper::Rtos::CreateThread<MeasurementTask>(MeasurementTask &, char const *, OsWrapper::ThreadPriority)
_ZN9OsWrapper4Rtos12CreateThreadI15MeasurementTaskEEvRT_PKcNS_14ThreadPriorityE:
        PUSH     {R2-R6,LR}
          CFI R14 Frame(CFA, -4)
          CFI R6 Frame(CFA, -8)
          CFI R5 Frame(CFA, -12)
          CFI R4 Frame(CFA, -16)
          CFI CFA R13+24
        MOVS     R4,R0
        MOVS     R5,R1
        MOVS     R6,R2
        ADDS     R0,R4,#+92
          CFI FunCall _ZNSt5arrayIjLj128EE4dataEv
        BL       _ZNSt5arrayIjLj128EE4dataEv
        STR      R0,[SP, #+0]
        MOVS     R3,#+128
        MOVS     R2,R6
        UXTB     R2,R2            ;; ZeroExt  R2,R2,#+24,#+24
        MOVS     R1,R5
        MOVS     R0,R4
          CFI FunCall _ZN9OsWrapper11RtosWrapper13wCreateThreadINS_4RtosE15MeasurementTaskEEvRT0_PKcNS_14ThreadPriorityEtPj
        BL       _ZN9OsWrapper11RtosWrapper13wCreateThreadINS_4RtosE15MeasurementTaskEEvRT0_PKcNS_14ThreadPriorityEtPj
        POP      {R0,R1,R4-R6,PC}  ;; return
          CFI EndBlock cfiBlock107

        SECTION `.text`:CODE:REORDER:NOROOT(1)
        SECTION_GROUP _ZN9OsWrapper4Rtos12CreateThreadI13BluetoothTaskEEvRT_PKcNS_14ThreadPriorityE
          CFI Block cfiBlock108 Using cfiCommon0
          CFI Function _ZN9OsWrapper4Rtos12CreateThreadI13BluetoothTaskEEvRT_PKcNS_14ThreadPriorityE
        THUMB
// __interwork __vfp void OsWrapper::Rtos::CreateThread<BluetoothTask>(BluetoothTask &, char const *, OsWrapper::ThreadPriority)
_ZN9OsWrapper4Rtos12CreateThreadI13BluetoothTaskEEvRT_PKcNS_14ThreadPriorityE:
        PUSH     {R2-R6,LR}
          CFI R14 Frame(CFA, -4)
          CFI R6 Frame(CFA, -8)
          CFI R5 Frame(CFA, -12)
          CFI R4 Frame(CFA, -16)
          CFI CFA R13+24
        MOVS     R4,R0
        MOVS     R5,R1
        MOVS     R6,R2
        ADDS     R0,R4,#+92
          CFI FunCall _ZNSt5arrayIjLj400EE4dataEv
        BL       _ZNSt5arrayIjLj400EE4dataEv
        STR      R0,[SP, #+0]
        MOV      R3,#+400
        MOVS     R2,R6
        UXTB     R2,R2            ;; ZeroExt  R2,R2,#+24,#+24
        MOVS     R1,R5
        MOVS     R0,R4
          CFI FunCall _ZN9OsWrapper11RtosWrapper13wCreateThreadINS_4RtosE13BluetoothTaskEEvRT0_PKcNS_14ThreadPriorityEtPj
        BL       _ZN9OsWrapper11RtosWrapper13wCreateThreadINS_4RtosE13BluetoothTaskEEvRT0_PKcNS_14ThreadPriorityEtPj
        POP      {R0,R1,R4-R6,PC}  ;; return
          CFI EndBlock cfiBlock108

        SECTION `.text`:CODE:REORDER:NOROOT(1)
        SECTION_GROUP _ZN9OsWrapper4Rtos12CreateThreadI15ButtonEventTaskI6ButtonI3PinI4PortI5GPIOCELh13EEEL_Z5eventEEEEvRT_PKcNS_14ThreadPriorityE
          CFI Block cfiBlock109 Using cfiCommon0
          CFI Function _ZN9OsWrapper4Rtos12CreateThreadI15ButtonEventTaskI6ButtonI3PinI4PortI5GPIOCELh13EEEL_Z5eventEEEEvRT_PKcNS_14ThreadPriorityE
        THUMB
// __interwork __vfp void OsWrapper::Rtos::CreateThread<ButtonEventTask<UserButton, event>>(ButtonEventTask<UserButton, event> &, char const *, OsWrapper::ThreadPriority)
_ZN9OsWrapper4Rtos12CreateThreadI15ButtonEventTaskI6ButtonI3PinI4PortI5GPIOCELh13EEEL_Z5eventEEEEvRT_PKcNS_14ThreadPriorityE:
        PUSH     {R2-R6,LR}
          CFI R14 Frame(CFA, -4)
          CFI R6 Frame(CFA, -8)
          CFI R5 Frame(CFA, -12)
          CFI R4 Frame(CFA, -16)
          CFI CFA R13+24
        MOVS     R4,R0
        MOVS     R5,R1
        MOVS     R6,R2
        ADDS     R0,R4,#+92
          CFI FunCall _ZNSt5arrayIjLj128EE4dataEv
        BL       _ZNSt5arrayIjLj128EE4dataEv
        STR      R0,[SP, #+0]
        MOVS     R3,#+128
        MOVS     R2,R6
        UXTB     R2,R2            ;; ZeroExt  R2,R2,#+24,#+24
        MOVS     R1,R5
        MOVS     R0,R4
          CFI FunCall _ZN9OsWrapper11RtosWrapper13wCreateThreadINS_4RtosE15ButtonEventTaskI6ButtonI3PinI4PortI5GPIOCELh13EEEL_Z5eventEEEEvRT0_PKcNS_14ThreadPriorityEtPj
        BL       _ZN9OsWrapper11RtosWrapper13wCreateThreadINS_4RtosE15ButtonEventTaskI6ButtonI3PinI4PortI5GPIOCELh13EEEL_Z5eventEEEEvRT0_PKcNS_14ThreadPriorityEtPj
        POP      {R0,R1,R4-R6,PC}  ;; return
          CFI EndBlock cfiBlock109

        SECTION `.text`:CODE:REORDER:NOROOT(1)
        SECTION_GROUP _ZN9OsWrapper4Rtos5StartEv
          CFI Block cfiBlock110 Using cfiCommon0
          CFI Function _ZN9OsWrapper4Rtos5StartEv
        THUMB
// __interwork __vfp void OsWrapper::Rtos::Start()
_ZN9OsWrapper4Rtos5StartEv:
        PUSH     {R7,LR}
          CFI R14 Frame(CFA, -4)
          CFI CFA R13+8
          CFI FunCall _ZN9OsWrapper11RtosWrapper6wStartEv
        BL       _ZN9OsWrapper11RtosWrapper6wStartEv
        POP      {R0,PC}          ;; return
          CFI EndBlock cfiBlock110

        SECTION `.text`:CODE:REORDER:NOROOT(1)
        SECTION_GROUP _ZN9OsWrapper4Rtos3RunEPv
          CFI Block cfiBlock111 Using cfiCommon0
          CFI Function _ZN9OsWrapper4Rtos3RunEPv
        THUMB
// __interwork __vfp void OsWrapper::Rtos::Run(void *)
_ZN9OsWrapper4Rtos3RunEPv:
        PUSH     {R4,LR}
          CFI R14 Frame(CFA, -4)
          CFI R4 Frame(CFA, -8)
          CFI CFA R13+8
        MOVS     R4,R0
        MOVS     R0,R4
          CFI FunCall _ZN9OsWrapper7IThread3RunEv
        BL       _ZN9OsWrapper7IThread3RunEv
        POP      {R4,PC}          ;; return
          CFI EndBlock cfiBlock111

        SECTION `.text`:CODE:REORDER:NOROOT(1)
        SECTION_GROUP _ZN9OsWrapper5EventC1ENSt6chrono8durationIxSt5ratioILx1ELx1000EEEEj
          CFI Block cfiBlock112 Using cfiCommon0
          CFI Function _ZN9OsWrapper5EventC1ENSt6chrono8durationIxSt5ratioILx1ELx1000EEEEj
        THUMB
// __code __interwork __vfp OsWrapper::Event::Event(std::chrono::milliseconds, uint32_t)
_ZN9OsWrapper5EventC1ENSt6chrono8durationIxSt5ratioILx1ELx1000EEEEj:
        PUSH     {R3-R5,LR}
          CFI R14 Frame(CFA, -4)
          CFI R5 Frame(CFA, -8)
          CFI R4 Frame(CFA, -12)
          CFI CFA R13+16
        PUSH     {R0-R3}
          CFI CFA R13+32
        MOVS     R4,R0
        LDR      R5,[SP, #+32]
        MOVS     R0,#+0
        STR      R0,[R4, #+0]
        ADD      R0,SP,#+8
          CFI FunCall _ZNSt6chrono13duration_castINS_8durationIjSt5ratioILx10ELx1000EEEExS2_ILx1ELx1000EEEENSt9enable_ifIXsr3std6chrono12_Is_durationIT_EE5valueES7_E4typeERKNS1_IT0_T1_EE
        BL       _ZNSt6chrono13duration_castINS_8durationIjSt5ratioILx10ELx1000EEEExS2_ILx1ELx1000EEEENSt9enable_ifIXsr3std6chrono12_Is_durationIT_EE5valueES7_E4typeERKNS1_IT0_T1_EE
        STR      R0,[SP, #+0]
        MOV      R0,SP
          CFI FunCall _ZNKSt6chrono8durationIjSt5ratioILx10ELx1000EEE5countEv
        BL       _ZNKSt6chrono8durationIjSt5ratioILx10ELx1000EEE5countEv
        STR      R0,[R4, #+28]
        STR      R5,[R4, #+32]
        ADDS     R0,R4,#+4
          CFI FunCall _ZN9OsWrapper11RtosWrapper12wCreateEventER19xSTATIC_EVENT_GROUP
        BL       _ZN9OsWrapper11RtosWrapper12wCreateEventER19xSTATIC_EVENT_GROUP
        STR      R0,[R4, #+0]
        MOVS     R0,R4
        ADD      SP,SP,#+20
          CFI CFA R13+12
        POP      {R4,R5,PC}       ;; return
          CFI EndBlock cfiBlock112

        SECTION `.text`:CODE:REORDER:NOROOT(1)
        SECTION_GROUP _ZN9OsWrapper5EventD1Ev
          CFI Block cfiBlock113 Using cfiCommon0
          CFI Function _ZN9OsWrapper5EventD1Ev
        THUMB
// __code __interwork __vfp OsWrapper::Event::~Event()
_ZN9OsWrapper5EventD1Ev:
        PUSH     {R4,LR}
          CFI R14 Frame(CFA, -4)
          CFI R4 Frame(CFA, -8)
          CFI CFA R13+8
        MOVS     R4,R0
        MOVS     R0,R4
          CFI FunCall _ZN9OsWrapper11RtosWrapper12wDeleteEventERPv
        BL       _ZN9OsWrapper11RtosWrapper12wDeleteEventERPv
        MOVS     R0,R4
        POP      {R4,PC}          ;; return
          CFI EndBlock cfiBlock113

        SECTION `.text`:CODE:REORDER:NOROOT(1)
        SECTION_GROUP _ZN9OsWrapper5Event6SignalEv
          CFI Block cfiBlock114 Using cfiCommon0
          CFI Function _ZN9OsWrapper5Event6SignalEv
        THUMB
// __interwork __vfp void OsWrapper::Event::Signal()
_ZN9OsWrapper5Event6SignalEv:
        PUSH     {R4,LR}
          CFI R14 Frame(CFA, -4)
          CFI R4 Frame(CFA, -8)
          CFI CFA R13+8
        MOVS     R4,R0
        LDR      R1,[R4, #+32]
        MOVS     R0,R4
          CFI FunCall _ZN9OsWrapper11RtosWrapper12wSignalEventERKPvj
        BL       _ZN9OsWrapper11RtosWrapper12wSignalEventERKPvj
        POP      {R4,PC}          ;; return
          CFI EndBlock cfiBlock114

        SECTION `.text`:CODE:REORDER:NOROOT(1)
        SECTION_GROUP _ZNK9OsWrapper5Event4WaitENS_9EventModeEj
          CFI Block cfiBlock115 Using cfiCommon0
          CFI Function _ZNK9OsWrapper5Event4WaitENS_9EventModeEj
        THUMB
// __interwork __vfp uint32_t OsWrapper::Event::Wait(OsWrapper::EventMode, uint32_t) const
_ZNK9OsWrapper5Event4WaitENS_9EventModeEj:
        PUSH     {R4-R6,LR}
          CFI R14 Frame(CFA, -4)
          CFI R6 Frame(CFA, -8)
          CFI R5 Frame(CFA, -12)
          CFI R4 Frame(CFA, -16)
          CFI CFA R13+16
        MOVS     R4,R0
        MOVS     R5,R1
        MOVS     R6,R2
        MOVS     R3,R5
        LDR      R2,[R4, #+28]
        MOVS     R1,R6
        MOVS     R0,R4
          CFI FunCall _ZN9OsWrapper11RtosWrapper10wWaitEventERKPvjjNS_9EventModeE
        BL       _ZN9OsWrapper11RtosWrapper10wWaitEventERKPvjjNS_9EventModeE
        POP      {R4-R6,PC}       ;; return
          CFI EndBlock cfiBlock115

        SECTION `.text`:CODE:REORDER:NOROOT(2)
        SECTION_GROUP _ZN13RegisterFieldIN6USART23BRRELj4ELj12E13ReadWriteModevE3SetIS2_vEEvj
          CFI Block cfiBlock116 Using cfiCommon0
          CFI Function _ZN13RegisterFieldIN6USART23BRRELj4ELj12E13ReadWriteModevE3SetIS2_vEEvj
        THUMB
// __interwork __vfp void RegisterField<USART2::BRR, 4U, 12U, ReadWriteMode>::Set<ReadWriteMode, void>(uint32_t)
_ZN13RegisterFieldIN6USART23BRRELj4ELj12E13ReadWriteModevE3SetIS2_vEEvj:
        PUSH     {R4,LR}
          CFI R14 Frame(CFA, -4)
          CFI R4 Frame(CFA, -8)
          CFI CFA R13+8
        MOVS     R4,R0
        CMP      R4,#+4096
        BCC.N    ??Set_59
        MOVS     R2,#+31
        LDR.N    R1,??Set_0
        LDR.N    R0,??Set_0+0x4
          CFI FunCall __aeabi_assert
        BL       __aeabi_assert
          CFI FunCall __iar_EmptyStepPoint
        BL       __iar_EmptyStepPoint
??Set_59:
        LDR.N    R1,??Set_0+0x8   ;; 0x40004408
        LDR      R0,[R1, #+0]
        BFC      R0,#+4,#+12
        ORRS     R0,R0,R4, LSL #+4
        STR      R0,[R1, #+0]
        POP      {R4,PC}          ;; return
        DATA
??Set_0:
        DATA32
        DC32     _ZZN13RegisterFieldIN6USART23BRRELj4ELj12E13ReadWriteModevE3SetIS2_vEEvjEs_0
        DC32     _ZZN13RegisterFieldIN6USART23BRRELj4ELj12E13ReadWriteModevE3SetIS2_vEEvjEs
        DC32     0x40004408
          CFI EndBlock cfiBlock116

        SECTION `.text`:CODE:REORDER:NOROOT(2)
        SECTION_GROUP _ZN13RegisterFieldIN6USART23CR1ELj15ELj1E13ReadWriteModevE3GetIS2_vEEjv
          CFI Block cfiBlock117 Using cfiCommon0
          CFI Function _ZN13RegisterFieldIN6USART23CR1ELj15ELj1E13ReadWriteModevE3GetIS2_vEEjv
          CFI NoCalls
        THUMB
// __interwork __vfp uint32_t RegisterField<USART2::CR1, 15U, 1U, ReadWriteMode>::Get<ReadWriteMode, void>()
_ZN13RegisterFieldIN6USART23CR1ELj15ELj1E13ReadWriteModevE3GetIS2_vEEjv:
        LDR.N    R0,??Get_0       ;; 0x4000440c
        LDR      R0,[R0, #+0]
        UBFX     R0,R0,#+15,#+1
        BX       LR               ;; return
        Nop      
        DATA
??Get_0:
        DATA32
        DC32     0x4000440c
          CFI EndBlock cfiBlock117

        SECTION `.text`:CODE:REORDER:NOROOT(2)
        SECTION_GROUP _ZN14FieldValueBaseI20USART2_CR1_TE_ValuesIN6USART23CR1ELj3ELj1E13ReadWriteModeNS1_13USART2CR1BaseEES4_Lj1EE3SetIS3_vEEvv
          CFI Block cfiBlock118 Using cfiCommon0
          CFI Function _ZN14FieldValueBaseI20USART2_CR1_TE_ValuesIN6USART23CR1ELj3ELj1E13ReadWriteModeNS1_13USART2CR1BaseEES4_Lj1EE3SetIS3_vEEvv
          CFI NoCalls
        THUMB
// __interwork __vfp void FieldValueBase<USART2_CR1_TE_Values<USART2::CR1, 3U, 1U, ReadWriteMode, USART2::USART2CR1Base>, USART2::USART2CR1Base, 1U>::Set<ReadWriteMode, void>()
_ZN14FieldValueBaseI20USART2_CR1_TE_ValuesIN6USART23CR1ELj3ELj1E13ReadWriteModeNS1_13USART2CR1BaseEES4_Lj1EE3SetIS3_vEEvv:
        LDR.N    R1,??Set_1       ;; 0x4000440c
        LDR      R0,[R1, #+0]
        BICS     R0,R0,#0x8
        ORRS     R0,R0,#0x8
        STR      R0,[R1, #+0]
        BX       LR               ;; return
        DATA
??Set_1:
        DATA32
        DC32     0x4000440c
          CFI EndBlock cfiBlock118

        SECTION `.text`:CODE:REORDER:NOROOT(2)
        SECTION_GROUP _ZN14FieldValueBaseI23USART2_CR1_TXEIE_ValuesIN6USART23CR1ELj7ELj1E13ReadWriteModeNS1_13USART2CR1BaseEES4_Lj1EE3SetIS3_vEEvv
          CFI Block cfiBlock119 Using cfiCommon0
          CFI Function _ZN14FieldValueBaseI23USART2_CR1_TXEIE_ValuesIN6USART23CR1ELj7ELj1E13ReadWriteModeNS1_13USART2CR1BaseEES4_Lj1EE3SetIS3_vEEvv
          CFI NoCalls
        THUMB
// __interwork __vfp void FieldValueBase<USART2_CR1_TXEIE_Values<USART2::CR1, 7U, 1U, ReadWriteMode, USART2::USART2CR1Base>, USART2::USART2CR1Base, 1U>::Set<ReadWriteMode, void>()
_ZN14FieldValueBaseI23USART2_CR1_TXEIE_ValuesIN6USART23CR1ELj7ELj1E13ReadWriteModeNS1_13USART2CR1BaseEES4_Lj1EE3SetIS3_vEEvv:
        LDR.N    R1,??Set_2       ;; 0x4000440c
        LDR      R0,[R1, #+0]
        BICS     R0,R0,#0x80
        ORRS     R0,R0,#0x80
        STR      R0,[R1, #+0]
        BX       LR               ;; return
        DATA
??Set_2:
        DATA32
        DC32     0x4000440c
          CFI EndBlock cfiBlock119

        SECTION `.text`:CODE:REORDER:NOROOT(2)
        SECTION_GROUP _ZN14FieldValueBaseI22SPI2_CR2_RXNEIE_ValuesIN4SPI23CR2ELj6ELj1E13ReadWriteModeNS1_11SPI2CR2BaseEES4_Lj1EE3SetIS3_vEEvv
          CFI Block cfiBlock120 Using cfiCommon0
          CFI Function _ZN14FieldValueBaseI22SPI2_CR2_RXNEIE_ValuesIN4SPI23CR2ELj6ELj1E13ReadWriteModeNS1_11SPI2CR2BaseEES4_Lj1EE3SetIS3_vEEvv
          CFI NoCalls
        THUMB
// __interwork __vfp void FieldValueBase<SPI2_CR2_RXNEIE_Values<SPI2::CR2, 6U, 1U, ReadWriteMode, SPI2::SPI2CR2Base>, SPI2::SPI2CR2Base, 1U>::Set<ReadWriteMode, void>()
_ZN14FieldValueBaseI22SPI2_CR2_RXNEIE_ValuesIN4SPI23CR2ELj6ELj1E13ReadWriteModeNS1_11SPI2CR2BaseEES4_Lj1EE3SetIS3_vEEvv:
        LDR.N    R1,??Set_3       ;; 0x40003804
        LDR      R0,[R1, #+0]
        BICS     R0,R0,#0x40
        ORRS     R0,R0,#0x40
        STR      R0,[R1, #+0]
        BX       LR               ;; return
        DATA
??Set_3:
        DATA32
        DC32     0x40003804
          CFI EndBlock cfiBlock120

        SECTION `.text`:CODE:REORDER:NOROOT(2)
        SECTION_GROUP _ZN14FieldValueBaseI21SPI2_CR2_TXEIE_ValuesIN4SPI23CR2ELj7ELj1E13ReadWriteModeNS1_11SPI2CR2BaseEES4_Lj1EE3SetIS3_vEEvv
          CFI Block cfiBlock121 Using cfiCommon0
          CFI Function _ZN14FieldValueBaseI21SPI2_CR2_TXEIE_ValuesIN4SPI23CR2ELj7ELj1E13ReadWriteModeNS1_11SPI2CR2BaseEES4_Lj1EE3SetIS3_vEEvv
          CFI NoCalls
        THUMB
// __interwork __vfp void FieldValueBase<SPI2_CR2_TXEIE_Values<SPI2::CR2, 7U, 1U, ReadWriteMode, SPI2::SPI2CR2Base>, SPI2::SPI2CR2Base, 1U>::Set<ReadWriteMode, void>()
_ZN14FieldValueBaseI21SPI2_CR2_TXEIE_ValuesIN4SPI23CR2ELj7ELj1E13ReadWriteModeNS1_11SPI2CR2BaseEES4_Lj1EE3SetIS3_vEEvv:
        LDR.N    R1,??Set_4       ;; 0x40003804
        LDR      R0,[R1, #+0]
        BICS     R0,R0,#0x80
        ORRS     R0,R0,#0x80
        STR      R0,[R1, #+0]
        BX       LR               ;; return
        DATA
??Set_4:
        DATA32
        DC32     0x40003804
          CFI EndBlock cfiBlock121

        SECTION `.text`:CODE:REORDER:NOROOT(2)
        SECTION_GROUP _ZN14FieldValueBaseI19RCC_CR_HSION_ValuesIN3RCC2CRELj0ELj1E13ReadWriteModeNS1_9RCCCRBaseEES4_Lj1EE3SetIS3_vEEvv
          CFI Block cfiBlock122 Using cfiCommon0
          CFI Function _ZN14FieldValueBaseI19RCC_CR_HSION_ValuesIN3RCC2CRELj0ELj1E13ReadWriteModeNS1_9RCCCRBaseEES4_Lj1EE3SetIS3_vEEvv
          CFI NoCalls
        THUMB
// __interwork __vfp void FieldValueBase<RCC_CR_HSION_Values<RCC::CR, 0U, 1U, ReadWriteMode, RCC::RCCCRBase>, RCC::RCCCRBase, 1U>::Set<ReadWriteMode, void>()
_ZN14FieldValueBaseI19RCC_CR_HSION_ValuesIN3RCC2CRELj0ELj1E13ReadWriteModeNS1_9RCCCRBaseEES4_Lj1EE3SetIS3_vEEvv:
        LDR.N    R1,??Set_5       ;; 0x40023800
        LDR      R0,[R1, #+0]
        LSRS     R0,R0,#+1
        LSLS     R0,R0,#+1
        ORRS     R0,R0,#0x1
        STR      R0,[R1, #+0]
        BX       LR               ;; return
        DATA
??Set_5:
        DATA32
        DC32     0x40023800
          CFI EndBlock cfiBlock122

        SECTION `.text`:CODE:REORDER:NOROOT(2)
        SECTION_GROUP _ZN14FieldValueBaseI18RCC_CFGR_SW_ValuesIN3RCC4CFGRELj0ELj2E13ReadWriteModeNS1_11RCCCFGRBaseEES4_Lj0EE3SetIS3_vEEvv
          CFI Block cfiBlock123 Using cfiCommon0
          CFI Function _ZN14FieldValueBaseI18RCC_CFGR_SW_ValuesIN3RCC4CFGRELj0ELj2E13ReadWriteModeNS1_11RCCCFGRBaseEES4_Lj0EE3SetIS3_vEEvv
          CFI NoCalls
        THUMB
// __interwork __vfp void FieldValueBase<RCC_CFGR_SW_Values<RCC::CFGR, 0U, 2U, ReadWriteMode, RCC::RCCCFGRBase>, RCC::RCCCFGRBase, 0U>::Set<ReadWriteMode, void>()
_ZN14FieldValueBaseI18RCC_CFGR_SW_ValuesIN3RCC4CFGRELj0ELj2E13ReadWriteModeNS1_11RCCCFGRBaseEES4_Lj0EE3SetIS3_vEEvv:
        LDR.N    R1,??Set_6       ;; 0x40023808
        LDR      R0,[R1, #+0]
        LSRS     R0,R0,#+2
        LSLS     R0,R0,#+2
        STR      R0,[R1, #+0]
        BX       LR               ;; return
        DATA
??Set_6:
        DATA32
        DC32     0x40023808
          CFI EndBlock cfiBlock123

        SECTION `.text`:CODE:REORDER:NOROOT(2)
        SECTION_GROUP _ZN14FieldValueBaseI26RCC_AHB1ENR_GPIOAEN_ValuesIN3RCC7AHB1ENRELj0ELj1E13ReadWriteModeNS1_14RCCAHB1ENRBaseEES4_Lj1EE3SetIS3_vEEvv
          CFI Block cfiBlock124 Using cfiCommon0
          CFI Function _ZN14FieldValueBaseI26RCC_AHB1ENR_GPIOAEN_ValuesIN3RCC7AHB1ENRELj0ELj1E13ReadWriteModeNS1_14RCCAHB1ENRBaseEES4_Lj1EE3SetIS3_vEEvv
          CFI NoCalls
        THUMB
// __interwork __vfp void FieldValueBase<RCC_AHB1ENR_GPIOAEN_Values<RCC::AHB1ENR, 0U, 1U, ReadWriteMode, RCC::RCCAHB1ENRBase>, RCC::RCCAHB1ENRBase, 1U>::Set<ReadWriteMode, void>()
_ZN14FieldValueBaseI26RCC_AHB1ENR_GPIOAEN_ValuesIN3RCC7AHB1ENRELj0ELj1E13ReadWriteModeNS1_14RCCAHB1ENRBaseEES4_Lj1EE3SetIS3_vEEvv:
        LDR.N    R1,??Set_7       ;; 0x40023830
        LDR      R0,[R1, #+0]
        LSRS     R0,R0,#+1
        LSLS     R0,R0,#+1
        ORRS     R0,R0,#0x1
        STR      R0,[R1, #+0]
        BX       LR               ;; return
        DATA
??Set_7:
        DATA32
        DC32     0x40023830
          CFI EndBlock cfiBlock124

        SECTION `.text`:CODE:REORDER:NOROOT(2)
        SECTION_GROUP _ZN14FieldValueBaseI25RCC_AHB1ENR_DMA2EN_ValuesIN3RCC7APB1ENRELj17ELj1E13ReadWriteModeNS1_14RCCAPB1ENRBaseEES4_Lj1EE3SetIS3_vEEvv
          CFI Block cfiBlock125 Using cfiCommon0
          CFI Function _ZN14FieldValueBaseI25RCC_AHB1ENR_DMA2EN_ValuesIN3RCC7APB1ENRELj17ELj1E13ReadWriteModeNS1_14RCCAPB1ENRBaseEES4_Lj1EE3SetIS3_vEEvv
          CFI NoCalls
        THUMB
// __interwork __vfp void FieldValueBase<RCC_AHB1ENR_DMA2EN_Values<RCC::APB1ENR, 17U, 1U, ReadWriteMode, RCC::RCCAPB1ENRBase>, RCC::RCCAPB1ENRBase, 1U>::Set<ReadWriteMode, void>()
_ZN14FieldValueBaseI25RCC_AHB1ENR_DMA2EN_ValuesIN3RCC7APB1ENRELj17ELj1E13ReadWriteModeNS1_14RCCAPB1ENRBaseEES4_Lj1EE3SetIS3_vEEvv:
        LDR.N    R1,??Set_8       ;; 0x40023840
        LDR      R0,[R1, #+0]
        BICS     R0,R0,#0x20000
        ORRS     R0,R0,#0x20000
        STR      R0,[R1, #+0]
        BX       LR               ;; return
        DATA
??Set_8:
        DATA32
        DC32     0x40023840
          CFI EndBlock cfiBlock125

        SECTION `.text`:CODE:REORDER:NOROOT(2)
        SECTION_GROUP _ZN14FieldValueBaseI26GPIOA_MODER_MODER15_ValuesIN5GPIOA5MODERELj6ELj2E13ReadWriteModeNS1_14GPIOAMODERBaseEES4_Lj2EE3SetIS3_vEEvv
          CFI Block cfiBlock126 Using cfiCommon0
          CFI Function _ZN14FieldValueBaseI26GPIOA_MODER_MODER15_ValuesIN5GPIOA5MODERELj6ELj2E13ReadWriteModeNS1_14GPIOAMODERBaseEES4_Lj2EE3SetIS3_vEEvv
          CFI NoCalls
        THUMB
// __interwork __vfp void FieldValueBase<GPIOA_MODER_MODER15_Values<GPIOA::MODER, 6U, 2U, ReadWriteMode, GPIOA::GPIOAMODERBase>, GPIOA::GPIOAMODERBase, 2U>::Set<ReadWriteMode, void>()
_ZN14FieldValueBaseI26GPIOA_MODER_MODER15_ValuesIN5GPIOA5MODERELj6ELj2E13ReadWriteModeNS1_14GPIOAMODERBaseEES4_Lj2EE3SetIS3_vEEvv:
        LDR.N    R1,??Set_9       ;; 0x40020000
        LDR      R0,[R1, #+0]
        BICS     R0,R0,#0xC0
        ORRS     R0,R0,#0x80
        STR      R0,[R1, #+0]
        BX       LR               ;; return
        DATA
??Set_9:
        DATA32
        DC32     0x40020000
          CFI EndBlock cfiBlock126

        SECTION `.text`:CODE:REORDER:NOROOT(2)
        SECTION_GROUP _ZN14FieldValueBaseI26GPIOA_MODER_MODER15_ValuesIN5GPIOA5MODERELj4ELj2E13ReadWriteModeNS1_14GPIOAMODERBaseEES4_Lj2EE3SetIS3_vEEvv
          CFI Block cfiBlock127 Using cfiCommon0
          CFI Function _ZN14FieldValueBaseI26GPIOA_MODER_MODER15_ValuesIN5GPIOA5MODERELj4ELj2E13ReadWriteModeNS1_14GPIOAMODERBaseEES4_Lj2EE3SetIS3_vEEvv
          CFI NoCalls
        THUMB
// __interwork __vfp void FieldValueBase<GPIOA_MODER_MODER15_Values<GPIOA::MODER, 4U, 2U, ReadWriteMode, GPIOA::GPIOAMODERBase>, GPIOA::GPIOAMODERBase, 2U>::Set<ReadWriteMode, void>()
_ZN14FieldValueBaseI26GPIOA_MODER_MODER15_ValuesIN5GPIOA5MODERELj4ELj2E13ReadWriteModeNS1_14GPIOAMODERBaseEES4_Lj2EE3SetIS3_vEEvv:
        LDR.N    R1,??Set_10      ;; 0x40020000
        LDR      R0,[R1, #+0]
        BICS     R0,R0,#0x30
        ORRS     R0,R0,#0x20
        STR      R0,[R1, #+0]
        BX       LR               ;; return
        DATA
??Set_10:
        DATA32
        DC32     0x40020000
          CFI EndBlock cfiBlock127

        SECTION `.text`:CODE:REORDER:NOROOT(2)
        SECTION_GROUP _ZN14FieldValueBaseI23GPIOA_AFRL_AFRL7_ValuesIN5GPIOA4AFRLELj12ELj4E13ReadWriteModeNS1_13GPIOAAFRLBaseEES4_Lj7EE3SetIS3_vEEvv
          CFI Block cfiBlock128 Using cfiCommon0
          CFI Function _ZN14FieldValueBaseI23GPIOA_AFRL_AFRL7_ValuesIN5GPIOA4AFRLELj12ELj4E13ReadWriteModeNS1_13GPIOAAFRLBaseEES4_Lj7EE3SetIS3_vEEvv
          CFI NoCalls
        THUMB
// __interwork __vfp void FieldValueBase<GPIOA_AFRL_AFRL7_Values<GPIOA::AFRL, 12U, 4U, ReadWriteMode, GPIOA::GPIOAAFRLBase>, GPIOA::GPIOAAFRLBase, 7U>::Set<ReadWriteMode, void>()
_ZN14FieldValueBaseI23GPIOA_AFRL_AFRL7_ValuesIN5GPIOA4AFRLELj12ELj4E13ReadWriteModeNS1_13GPIOAAFRLBaseEES4_Lj7EE3SetIS3_vEEvv:
        LDR.N    R1,??Set_11      ;; 0x40020020
        LDR      R0,[R1, #+0]
        BICS     R0,R0,#0xF000
        ORRS     R0,R0,#0x7000
        STR      R0,[R1, #+0]
        BX       LR               ;; return
        DATA
??Set_11:
        DATA32
        DC32     0x40020020
          CFI EndBlock cfiBlock128

        SECTION `.text`:CODE:REORDER:NOROOT(2)
        SECTION_GROUP _ZN14FieldValueBaseI23GPIOA_AFRL_AFRL7_ValuesIN5GPIOA4AFRLELj8ELj4E13ReadWriteModeNS1_13GPIOAAFRLBaseEES4_Lj7EE3SetIS3_vEEvv
          CFI Block cfiBlock129 Using cfiCommon0
          CFI Function _ZN14FieldValueBaseI23GPIOA_AFRL_AFRL7_ValuesIN5GPIOA4AFRLELj8ELj4E13ReadWriteModeNS1_13GPIOAAFRLBaseEES4_Lj7EE3SetIS3_vEEvv
          CFI NoCalls
        THUMB
// __interwork __vfp void FieldValueBase<GPIOA_AFRL_AFRL7_Values<GPIOA::AFRL, 8U, 4U, ReadWriteMode, GPIOA::GPIOAAFRLBase>, GPIOA::GPIOAAFRLBase, 7U>::Set<ReadWriteMode, void>()
_ZN14FieldValueBaseI23GPIOA_AFRL_AFRL7_ValuesIN5GPIOA4AFRLELj8ELj4E13ReadWriteModeNS1_13GPIOAAFRLBaseEES4_Lj7EE3SetIS3_vEEvv:
        LDR.N    R1,??Set_12      ;; 0x40020020
        LDR      R0,[R1, #+0]
        BICS     R0,R0,#0xF00
        ORRS     R0,R0,#0x700
        STR      R0,[R1, #+0]
        BX       LR               ;; return
        DATA
??Set_12:
        DATA32
        DC32     0x40020020
          CFI EndBlock cfiBlock129

        SECTION `.text`:CODE:REORDER:NOROOT(2)
        SECTION_GROUP _ZN14FieldValueBaseI26GPIOA_PUPDR_PUPDR15_ValuesIN5GPIOA5PUPDRELj4ELj2E13ReadWriteModeNS1_14GPIOAPUPDRBaseEES4_Lj0EE3SetIS3_vEEvv
          CFI Block cfiBlock130 Using cfiCommon0
          CFI Function _ZN14FieldValueBaseI26GPIOA_PUPDR_PUPDR15_ValuesIN5GPIOA5PUPDRELj4ELj2E13ReadWriteModeNS1_14GPIOAPUPDRBaseEES4_Lj0EE3SetIS3_vEEvv
          CFI NoCalls
        THUMB
// __interwork __vfp void FieldValueBase<GPIOA_PUPDR_PUPDR15_Values<GPIOA::PUPDR, 4U, 2U, ReadWriteMode, GPIOA::GPIOAPUPDRBase>, GPIOA::GPIOAPUPDRBase, 0U>::Set<ReadWriteMode, void>()
_ZN14FieldValueBaseI26GPIOA_PUPDR_PUPDR15_ValuesIN5GPIOA5PUPDRELj4ELj2E13ReadWriteModeNS1_14GPIOAPUPDRBaseEES4_Lj0EE3SetIS3_vEEvv:
        LDR.N    R1,??Set_13      ;; 0x4002000c
        LDR      R0,[R1, #+0]
        BICS     R0,R0,#0x30
        STR      R0,[R1, #+0]
        BX       LR               ;; return
        DATA
??Set_13:
        DATA32
        DC32     0x4002000c
          CFI EndBlock cfiBlock130

        SECTION `.text`:CODE:REORDER:NOROOT(2)
        SECTION_GROUP _ZN14FieldValueBaseI26GPIOA_PUPDR_PUPDR15_ValuesIN5GPIOA5PUPDRELj6ELj2E13ReadWriteModeNS1_14GPIOAPUPDRBaseEES4_Lj1EE3SetIS3_vEEvv
          CFI Block cfiBlock131 Using cfiCommon0
          CFI Function _ZN14FieldValueBaseI26GPIOA_PUPDR_PUPDR15_ValuesIN5GPIOA5PUPDRELj6ELj2E13ReadWriteModeNS1_14GPIOAPUPDRBaseEES4_Lj1EE3SetIS3_vEEvv
          CFI NoCalls
        THUMB
// __interwork __vfp void FieldValueBase<GPIOA_PUPDR_PUPDR15_Values<GPIOA::PUPDR, 6U, 2U, ReadWriteMode, GPIOA::GPIOAPUPDRBase>, GPIOA::GPIOAPUPDRBase, 1U>::Set<ReadWriteMode, void>()
_ZN14FieldValueBaseI26GPIOA_PUPDR_PUPDR15_ValuesIN5GPIOA5PUPDRELj6ELj2E13ReadWriteModeNS1_14GPIOAPUPDRBaseEES4_Lj1EE3SetIS3_vEEvv:
        LDR.N    R1,??Set_14      ;; 0x4002000c
        LDR      R0,[R1, #+0]
        BICS     R0,R0,#0xC0
        ORRS     R0,R0,#0x40
        STR      R0,[R1, #+0]
        BX       LR               ;; return
        DATA
??Set_14:
        DATA32
        DC32     0x4002000c
          CFI EndBlock cfiBlock131

        SECTION `.text`:CODE:REORDER:NOROOT(2)
        SECTION_GROUP _ZN14FieldValueBaseI23USART2_CR1_OVER8_ValuesIN6USART23CR1ELj15ELj1E13ReadWriteModeNS1_13USART2CR1BaseEES4_Lj0EE3SetIS3_vEEvv
          CFI Block cfiBlock132 Using cfiCommon0
          CFI Function _ZN14FieldValueBaseI23USART2_CR1_OVER8_ValuesIN6USART23CR1ELj15ELj1E13ReadWriteModeNS1_13USART2CR1BaseEES4_Lj0EE3SetIS3_vEEvv
          CFI NoCalls
        THUMB
// __interwork __vfp void FieldValueBase<USART2_CR1_OVER8_Values<USART2::CR1, 15U, 1U, ReadWriteMode, USART2::USART2CR1Base>, USART2::USART2CR1Base, 0U>::Set<ReadWriteMode, void>()
_ZN14FieldValueBaseI23USART2_CR1_OVER8_ValuesIN6USART23CR1ELj15ELj1E13ReadWriteModeNS1_13USART2CR1BaseEES4_Lj0EE3SetIS3_vEEvv:
        LDR.N    R1,??Set_15      ;; 0x4000440c
        LDR      R0,[R1, #+0]
        BICS     R0,R0,#0x8000
        STR      R0,[R1, #+0]
        BX       LR               ;; return
        DATA
??Set_15:
        DATA32
        DC32     0x4000440c
          CFI EndBlock cfiBlock132

        SECTION `.text`:CODE:REORDER:NOROOT(2)
        SECTION_GROUP _ZN14FieldValueBaseI19USART2_CR1_M_ValuesIN6USART23CR1ELj12ELj1E13ReadWriteModeNS1_13USART2CR1BaseEES4_Lj0EE3SetIS3_vEEvv
          CFI Block cfiBlock133 Using cfiCommon0
          CFI Function _ZN14FieldValueBaseI19USART2_CR1_M_ValuesIN6USART23CR1ELj12ELj1E13ReadWriteModeNS1_13USART2CR1BaseEES4_Lj0EE3SetIS3_vEEvv
          CFI NoCalls
        THUMB
// __interwork __vfp void FieldValueBase<USART2_CR1_M_Values<USART2::CR1, 12U, 1U, ReadWriteMode, USART2::USART2CR1Base>, USART2::USART2CR1Base, 0U>::Set<ReadWriteMode, void>()
_ZN14FieldValueBaseI19USART2_CR1_M_ValuesIN6USART23CR1ELj12ELj1E13ReadWriteModeNS1_13USART2CR1BaseEES4_Lj0EE3SetIS3_vEEvv:
        LDR.N    R1,??Set_16      ;; 0x4000440c
        LDR      R0,[R1, #+0]
        BICS     R0,R0,#0x1000
        STR      R0,[R1, #+0]
        BX       LR               ;; return
        DATA
??Set_16:
        DATA32
        DC32     0x4000440c
          CFI EndBlock cfiBlock133

        SECTION `.text`:CODE:REORDER:NOROOT(2)
        SECTION_GROUP _ZN14FieldValueBaseI22USART2_CR2_STOP_ValuesIN6USART23CR2ELj12ELj2E13ReadWriteModeNS1_13USART2CR2BaseEES4_Lj0EE3SetIS3_vEEvv
          CFI Block cfiBlock134 Using cfiCommon0
          CFI Function _ZN14FieldValueBaseI22USART2_CR2_STOP_ValuesIN6USART23CR2ELj12ELj2E13ReadWriteModeNS1_13USART2CR2BaseEES4_Lj0EE3SetIS3_vEEvv
          CFI NoCalls
        THUMB
// __interwork __vfp void FieldValueBase<USART2_CR2_STOP_Values<USART2::CR2, 12U, 2U, ReadWriteMode, USART2::USART2CR2Base>, USART2::USART2CR2Base, 0U>::Set<ReadWriteMode, void>()
_ZN14FieldValueBaseI22USART2_CR2_STOP_ValuesIN6USART23CR2ELj12ELj2E13ReadWriteModeNS1_13USART2CR2BaseEES4_Lj0EE3SetIS3_vEEvv:
        LDR.N    R1,??Set_17      ;; 0x40004410
        LDR      R0,[R1, #+0]
        BICS     R0,R0,#0x3000
        STR      R0,[R1, #+0]
        BX       LR               ;; return
        DATA
??Set_17:
        DATA32
        DC32     0x40004410
          CFI EndBlock cfiBlock134

        SECTION `.text`:CODE:REORDER:NOROOT(2)
        SECTION_GROUP _ZN14FieldValueBaseI21USART2_CR1_PCE_ValuesIN6USART23CR1ELj10ELj1E13ReadWriteModeNS1_13USART2CR1BaseEES4_Lj0EE3SetIS3_vEEvv
          CFI Block cfiBlock135 Using cfiCommon0
          CFI Function _ZN14FieldValueBaseI21USART2_CR1_PCE_ValuesIN6USART23CR1ELj10ELj1E13ReadWriteModeNS1_13USART2CR1BaseEES4_Lj0EE3SetIS3_vEEvv
          CFI NoCalls
        THUMB
// __interwork __vfp void FieldValueBase<USART2_CR1_PCE_Values<USART2::CR1, 10U, 1U, ReadWriteMode, USART2::USART2CR1Base>, USART2::USART2CR1Base, 0U>::Set<ReadWriteMode, void>()
_ZN14FieldValueBaseI21USART2_CR1_PCE_ValuesIN6USART23CR1ELj10ELj1E13ReadWriteModeNS1_13USART2CR1BaseEES4_Lj0EE3SetIS3_vEEvv:
        LDR.N    R1,??Set_18      ;; 0x4000440c
        LDR      R0,[R1, #+0]
        BICS     R0,R0,#0x400
        STR      R0,[R1, #+0]
        BX       LR               ;; return
        DATA
??Set_18:
        DATA32
        DC32     0x4000440c
          CFI EndBlock cfiBlock135

        SECTION `.text`:CODE:REORDER:NOROOT(2)
        SECTION_GROUP _ZN14FieldValueBaseI20USART2_CR1_RE_ValuesIN6USART23CR1ELj2ELj1E13ReadWriteModeNS1_13USART2CR1BaseEES4_Lj1EE3SetIS3_vEEvv
          CFI Block cfiBlock136 Using cfiCommon0
          CFI Function _ZN14FieldValueBaseI20USART2_CR1_RE_ValuesIN6USART23CR1ELj2ELj1E13ReadWriteModeNS1_13USART2CR1BaseEES4_Lj1EE3SetIS3_vEEvv
          CFI NoCalls
        THUMB
// __interwork __vfp void FieldValueBase<USART2_CR1_RE_Values<USART2::CR1, 2U, 1U, ReadWriteMode, USART2::USART2CR1Base>, USART2::USART2CR1Base, 1U>::Set<ReadWriteMode, void>()
_ZN14FieldValueBaseI20USART2_CR1_RE_ValuesIN6USART23CR1ELj2ELj1E13ReadWriteModeNS1_13USART2CR1BaseEES4_Lj1EE3SetIS3_vEEvv:
        LDR.N    R1,??Set_19      ;; 0x4000440c
        LDR      R0,[R1, #+0]
        BICS     R0,R0,#0x4
        ORRS     R0,R0,#0x4
        STR      R0,[R1, #+0]
        BX       LR               ;; return
        DATA
??Set_19:
        DATA32
        DC32     0x4000440c
          CFI EndBlock cfiBlock136

        SECTION `.text`:CODE:REORDER:NOROOT(2)
        SECTION_GROUP _ZN14FieldValueBaseI24USART2_CR1_RXNEIE_ValuesIN6USART23CR1ELj5ELj1E13ReadWriteModeNS1_13USART2CR1BaseEES4_Lj1EE3SetIS3_vEEvv
          CFI Block cfiBlock137 Using cfiCommon0
          CFI Function _ZN14FieldValueBaseI24USART2_CR1_RXNEIE_ValuesIN6USART23CR1ELj5ELj1E13ReadWriteModeNS1_13USART2CR1BaseEES4_Lj1EE3SetIS3_vEEvv
          CFI NoCalls
        THUMB
// __interwork __vfp void FieldValueBase<USART2_CR1_RXNEIE_Values<USART2::CR1, 5U, 1U, ReadWriteMode, USART2::USART2CR1Base>, USART2::USART2CR1Base, 1U>::Set<ReadWriteMode, void>()
_ZN14FieldValueBaseI24USART2_CR1_RXNEIE_ValuesIN6USART23CR1ELj5ELj1E13ReadWriteModeNS1_13USART2CR1BaseEES4_Lj1EE3SetIS3_vEEvv:
        LDR.N    R1,??Set_20      ;; 0x4000440c
        LDR      R0,[R1, #+0]
        BICS     R0,R0,#0x20
        ORRS     R0,R0,#0x20
        STR      R0,[R1, #+0]
        BX       LR               ;; return
        DATA
??Set_20:
        DATA32
        DC32     0x4000440c
          CFI EndBlock cfiBlock137

        SECTION `.text`:CODE:REORDER:NOROOT(2)
        SECTION_GROUP _ZN14FieldValueBaseI25RCC_AHB1ENR_DMA2EN_ValuesIN3RCC7APB1ENRELj14ELj1E13ReadWriteModeNS1_14RCCAPB1ENRBaseEES4_Lj1EE3SetIS3_vEEvv
          CFI Block cfiBlock138 Using cfiCommon0
          CFI Function _ZN14FieldValueBaseI25RCC_AHB1ENR_DMA2EN_ValuesIN3RCC7APB1ENRELj14ELj1E13ReadWriteModeNS1_14RCCAPB1ENRBaseEES4_Lj1EE3SetIS3_vEEvv
          CFI NoCalls
        THUMB
// __interwork __vfp void FieldValueBase<RCC_AHB1ENR_DMA2EN_Values<RCC::APB1ENR, 14U, 1U, ReadWriteMode, RCC::RCCAPB1ENRBase>, RCC::RCCAPB1ENRBase, 1U>::Set<ReadWriteMode, void>()
_ZN14FieldValueBaseI25RCC_AHB1ENR_DMA2EN_ValuesIN3RCC7APB1ENRELj14ELj1E13ReadWriteModeNS1_14RCCAPB1ENRBaseEES4_Lj1EE3SetIS3_vEEvv:
        LDR.N    R1,??Set_21      ;; 0x40023840
        LDR      R0,[R1, #+0]
        BICS     R0,R0,#0x4000
        ORRS     R0,R0,#0x4000
        STR      R0,[R1, #+0]
        BX       LR               ;; return
        DATA
??Set_21:
        DATA32
        DC32     0x40023840
          CFI EndBlock cfiBlock138

        SECTION `.text`:CODE:REORDER:NOROOT(2)
        SECTION_GROUP _ZN14FieldValueBaseI20SPI2_CR1_MSTR_ValuesIN4SPI23CR1ELj2ELj1E13ReadWriteModeNS1_11SPI2CR1BaseEES4_Lj1EE3SetIS3_vEEvv
          CFI Block cfiBlock139 Using cfiCommon0
          CFI Function _ZN14FieldValueBaseI20SPI2_CR1_MSTR_ValuesIN4SPI23CR1ELj2ELj1E13ReadWriteModeNS1_11SPI2CR1BaseEES4_Lj1EE3SetIS3_vEEvv
          CFI NoCalls
        THUMB
// __interwork __vfp void FieldValueBase<SPI2_CR1_MSTR_Values<SPI2::CR1, 2U, 1U, ReadWriteMode, SPI2::SPI2CR1Base>, SPI2::SPI2CR1Base, 1U>::Set<ReadWriteMode, void>()
_ZN14FieldValueBaseI20SPI2_CR1_MSTR_ValuesIN4SPI23CR1ELj2ELj1E13ReadWriteModeNS1_11SPI2CR1BaseEES4_Lj1EE3SetIS3_vEEvv:
        LDR.N    R1,??Set_22      ;; 0x40003800
        LDR      R0,[R1, #+0]
        BICS     R0,R0,#0x4
        ORRS     R0,R0,#0x4
        STR      R0,[R1, #+0]
        BX       LR               ;; return
        DATA
??Set_22:
        DATA32
        DC32     0x40003800
          CFI EndBlock cfiBlock139

        SECTION `.text`:CODE:REORDER:NOROOT(2)
        SECTION_GROUP _ZN14FieldValueBaseI19SPI2_CR1_DFF_ValuesIN4SPI23CR1ELj11ELj1E13ReadWriteModeNS1_11SPI2CR1BaseEES4_Lj0EE3SetIS3_vEEvv
          CFI Block cfiBlock140 Using cfiCommon0
          CFI Function _ZN14FieldValueBaseI19SPI2_CR1_DFF_ValuesIN4SPI23CR1ELj11ELj1E13ReadWriteModeNS1_11SPI2CR1BaseEES4_Lj0EE3SetIS3_vEEvv
          CFI NoCalls
        THUMB
// __interwork __vfp void FieldValueBase<SPI2_CR1_DFF_Values<SPI2::CR1, 11U, 1U, ReadWriteMode, SPI2::SPI2CR1Base>, SPI2::SPI2CR1Base, 0U>::Set<ReadWriteMode, void>()
_ZN14FieldValueBaseI19SPI2_CR1_DFF_ValuesIN4SPI23CR1ELj11ELj1E13ReadWriteModeNS1_11SPI2CR1BaseEES4_Lj0EE3SetIS3_vEEvv:
        LDR.N    R1,??Set_23      ;; 0x40003800
        LDR      R0,[R1, #+0]
        BICS     R0,R0,#0x800
        STR      R0,[R1, #+0]
        BX       LR               ;; return
        DATA
??Set_23:
        DATA32
        DC32     0x40003800
          CFI EndBlock cfiBlock140

        SECTION `.text`:CODE:REORDER:NOROOT(2)
        SECTION_GROUP _ZN14FieldValueBaseI18SPI2_CR1_BR_ValuesIN4SPI23CR1ELj3ELj3E13ReadWriteModeNS1_11SPI2CR1BaseEES4_Lj0EE3SetIS3_vEEvv
          CFI Block cfiBlock141 Using cfiCommon0
          CFI Function _ZN14FieldValueBaseI18SPI2_CR1_BR_ValuesIN4SPI23CR1ELj3ELj3E13ReadWriteModeNS1_11SPI2CR1BaseEES4_Lj0EE3SetIS3_vEEvv
          CFI NoCalls
        THUMB
// __interwork __vfp void FieldValueBase<SPI2_CR1_BR_Values<SPI2::CR1, 3U, 3U, ReadWriteMode, SPI2::SPI2CR1Base>, SPI2::SPI2CR1Base, 0U>::Set<ReadWriteMode, void>()
_ZN14FieldValueBaseI18SPI2_CR1_BR_ValuesIN4SPI23CR1ELj3ELj3E13ReadWriteModeNS1_11SPI2CR1BaseEES4_Lj0EE3SetIS3_vEEvv:
        LDR.N    R1,??Set_24      ;; 0x40003800
        LDR      R0,[R1, #+0]
        BICS     R0,R0,#0x38
        STR      R0,[R1, #+0]
        BX       LR               ;; return
        DATA
??Set_24:
        DATA32
        DC32     0x40003800
          CFI EndBlock cfiBlock141

        SECTION `.text`:CODE:REORDER:NOROOT(2)
        SECTION_GROUP _ZN14FieldValueBaseI21SPI2_CR1_CRCEN_ValuesIN4SPI23CR1ELj13ELj1E13ReadWriteModeNS1_11SPI2CR1BaseEES4_Lj0EE3SetIS3_vEEvv
          CFI Block cfiBlock142 Using cfiCommon0
          CFI Function _ZN14FieldValueBaseI21SPI2_CR1_CRCEN_ValuesIN4SPI23CR1ELj13ELj1E13ReadWriteModeNS1_11SPI2CR1BaseEES4_Lj0EE3SetIS3_vEEvv
          CFI NoCalls
        THUMB
// __interwork __vfp void FieldValueBase<SPI2_CR1_CRCEN_Values<SPI2::CR1, 13U, 1U, ReadWriteMode, SPI2::SPI2CR1Base>, SPI2::SPI2CR1Base, 0U>::Set<ReadWriteMode, void>()
_ZN14FieldValueBaseI21SPI2_CR1_CRCEN_ValuesIN4SPI23CR1ELj13ELj1E13ReadWriteModeNS1_11SPI2CR1BaseEES4_Lj0EE3SetIS3_vEEvv:
        LDR.N    R1,??Set_25      ;; 0x40003800
        LDR      R0,[R1, #+0]
        BICS     R0,R0,#0x2000
        STR      R0,[R1, #+0]
        BX       LR               ;; return
        DATA
??Set_25:
        DATA32
        DC32     0x40003800
          CFI EndBlock cfiBlock142

        SECTION `.text`:CODE:REORDER:NOROOT(2)
        SECTION_GROUP _ZN14FieldValueBaseI20SPI2_CR1_CPOL_ValuesIN4SPI23CR1ELj1ELj1E13ReadWriteModeNS1_11SPI2CR1BaseEES4_Lj1EE3SetIS3_vEEvv
          CFI Block cfiBlock143 Using cfiCommon0
          CFI Function _ZN14FieldValueBaseI20SPI2_CR1_CPOL_ValuesIN4SPI23CR1ELj1ELj1E13ReadWriteModeNS1_11SPI2CR1BaseEES4_Lj1EE3SetIS3_vEEvv
          CFI NoCalls
        THUMB
// __interwork __vfp void FieldValueBase<SPI2_CR1_CPOL_Values<SPI2::CR1, 1U, 1U, ReadWriteMode, SPI2::SPI2CR1Base>, SPI2::SPI2CR1Base, 1U>::Set<ReadWriteMode, void>()
_ZN14FieldValueBaseI20SPI2_CR1_CPOL_ValuesIN4SPI23CR1ELj1ELj1E13ReadWriteModeNS1_11SPI2CR1BaseEES4_Lj1EE3SetIS3_vEEvv:
        LDR.N    R1,??Set_26      ;; 0x40003800
        LDR      R0,[R1, #+0]
        BICS     R0,R0,#0x2
        ORRS     R0,R0,#0x2
        STR      R0,[R1, #+0]
        BX       LR               ;; return
        DATA
??Set_26:
        DATA32
        DC32     0x40003800
          CFI EndBlock cfiBlock143

        SECTION `.text`:CODE:REORDER:NOROOT(2)
        SECTION_GROUP _ZN14FieldValueBaseI20SPI2_CR1_CPHA_ValuesIN4SPI23CR1ELj0ELj1E13ReadWriteModeNS1_11SPI2CR1BaseEES4_Lj1EE3SetIS3_vEEvv
          CFI Block cfiBlock144 Using cfiCommon0
          CFI Function _ZN14FieldValueBaseI20SPI2_CR1_CPHA_ValuesIN4SPI23CR1ELj0ELj1E13ReadWriteModeNS1_11SPI2CR1BaseEES4_Lj1EE3SetIS3_vEEvv
          CFI NoCalls
        THUMB
// __interwork __vfp void FieldValueBase<SPI2_CR1_CPHA_Values<SPI2::CR1, 0U, 1U, ReadWriteMode, SPI2::SPI2CR1Base>, SPI2::SPI2CR1Base, 1U>::Set<ReadWriteMode, void>()
_ZN14FieldValueBaseI20SPI2_CR1_CPHA_ValuesIN4SPI23CR1ELj0ELj1E13ReadWriteModeNS1_11SPI2CR1BaseEES4_Lj1EE3SetIS3_vEEvv:
        LDR.N    R1,??Set_27      ;; 0x40003800
        LDR      R0,[R1, #+0]
        LSRS     R0,R0,#+1
        LSLS     R0,R0,#+1
        ORRS     R0,R0,#0x1
        STR      R0,[R1, #+0]
        BX       LR               ;; return
        DATA
??Set_27:
        DATA32
        DC32     0x40003800
          CFI EndBlock cfiBlock144

        SECTION `.text`:CODE:REORDER:NOROOT(2)
        SECTION_GROUP _ZN14FieldValueBaseI24SPI2_CR1_LSBFIRST_ValuesIN4SPI23CR1ELj7ELj1E13ReadWriteModeNS1_11SPI2CR1BaseEES4_Lj0EE3SetIS3_vEEvv
          CFI Block cfiBlock145 Using cfiCommon0
          CFI Function _ZN14FieldValueBaseI24SPI2_CR1_LSBFIRST_ValuesIN4SPI23CR1ELj7ELj1E13ReadWriteModeNS1_11SPI2CR1BaseEES4_Lj0EE3SetIS3_vEEvv
          CFI NoCalls
        THUMB
// __interwork __vfp void FieldValueBase<SPI2_CR1_LSBFIRST_Values<SPI2::CR1, 7U, 1U, ReadWriteMode, SPI2::SPI2CR1Base>, SPI2::SPI2CR1Base, 0U>::Set<ReadWriteMode, void>()
_ZN14FieldValueBaseI24SPI2_CR1_LSBFIRST_ValuesIN4SPI23CR1ELj7ELj1E13ReadWriteModeNS1_11SPI2CR1BaseEES4_Lj0EE3SetIS3_vEEvv:
        LDR.N    R1,??Set_28      ;; 0x40003800
        LDR      R0,[R1, #+0]
        BICS     R0,R0,#0x80
        STR      R0,[R1, #+0]
        BX       LR               ;; return
        DATA
??Set_28:
        DATA32
        DC32     0x40003800
          CFI EndBlock cfiBlock145

        SECTION `.text`:CODE:REORDER:NOROOT(2)
        SECTION_GROUP _ZN14FieldValueBaseI20SPI2_CR2_SSOE_ValuesIN4SPI23CR2ELj2ELj1E13ReadWriteModeNS1_11SPI2CR2BaseEES4_Lj1EE3SetIS3_vEEvv
          CFI Block cfiBlock146 Using cfiCommon0
          CFI Function _ZN14FieldValueBaseI20SPI2_CR2_SSOE_ValuesIN4SPI23CR2ELj2ELj1E13ReadWriteModeNS1_11SPI2CR2BaseEES4_Lj1EE3SetIS3_vEEvv
          CFI NoCalls
        THUMB
// __interwork __vfp void FieldValueBase<SPI2_CR2_SSOE_Values<SPI2::CR2, 2U, 1U, ReadWriteMode, SPI2::SPI2CR2Base>, SPI2::SPI2CR2Base, 1U>::Set<ReadWriteMode, void>()
_ZN14FieldValueBaseI20SPI2_CR2_SSOE_ValuesIN4SPI23CR2ELj2ELj1E13ReadWriteModeNS1_11SPI2CR2BaseEES4_Lj1EE3SetIS3_vEEvv:
        LDR.N    R1,??Set_29      ;; 0x40003804
        LDR      R0,[R1, #+0]
        BICS     R0,R0,#0x4
        ORRS     R0,R0,#0x4
        STR      R0,[R1, #+0]
        BX       LR               ;; return
        DATA
??Set_29:
        DATA32
        DC32     0x40003804
          CFI EndBlock cfiBlock146

        SECTION `.text`:CODE:REORDER:NOROOT(2)
        SECTION_GROUP _ZN14FieldValueBaseI19SPI2_CR1_SSM_ValuesIN4SPI23CR1ELj9ELj1E13ReadWriteModeNS1_11SPI2CR1BaseEES4_Lj1EE3SetIS3_vEEvv
          CFI Block cfiBlock147 Using cfiCommon0
          CFI Function _ZN14FieldValueBaseI19SPI2_CR1_SSM_ValuesIN4SPI23CR1ELj9ELj1E13ReadWriteModeNS1_11SPI2CR1BaseEES4_Lj1EE3SetIS3_vEEvv
          CFI NoCalls
        THUMB
// __interwork __vfp void FieldValueBase<SPI2_CR1_SSM_Values<SPI2::CR1, 9U, 1U, ReadWriteMode, SPI2::SPI2CR1Base>, SPI2::SPI2CR1Base, 1U>::Set<ReadWriteMode, void>()
_ZN14FieldValueBaseI19SPI2_CR1_SSM_ValuesIN4SPI23CR1ELj9ELj1E13ReadWriteModeNS1_11SPI2CR1BaseEES4_Lj1EE3SetIS3_vEEvv:
        LDR.N    R1,??Set_30      ;; 0x40003800
        LDR      R0,[R1, #+0]
        BICS     R0,R0,#0x200
        ORRS     R0,R0,#0x200
        STR      R0,[R1, #+0]
        BX       LR               ;; return
        DATA
??Set_30:
        DATA32
        DC32     0x40003800
          CFI EndBlock cfiBlock147

        SECTION `.text`:CODE:REORDER:NOROOT(2)
        SECTION_GROUP _ZN14FieldValueBaseI19SPI2_CR1_SSI_ValuesIN4SPI23CR1ELj8ELj1E13ReadWriteModeNS1_11SPI2CR1BaseEES4_Lj1EE3SetIS3_vEEvv
          CFI Block cfiBlock148 Using cfiCommon0
          CFI Function _ZN14FieldValueBaseI19SPI2_CR1_SSI_ValuesIN4SPI23CR1ELj8ELj1E13ReadWriteModeNS1_11SPI2CR1BaseEES4_Lj1EE3SetIS3_vEEvv
          CFI NoCalls
        THUMB
// __interwork __vfp void FieldValueBase<SPI2_CR1_SSI_Values<SPI2::CR1, 8U, 1U, ReadWriteMode, SPI2::SPI2CR1Base>, SPI2::SPI2CR1Base, 1U>::Set<ReadWriteMode, void>()
_ZN14FieldValueBaseI19SPI2_CR1_SSI_ValuesIN4SPI23CR1ELj8ELj1E13ReadWriteModeNS1_11SPI2CR1BaseEES4_Lj1EE3SetIS3_vEEvv:
        LDR.N    R1,??Set_31      ;; 0x40003800
        LDR      R0,[R1, #+0]
        BICS     R0,R0,#0x100
        ORRS     R0,R0,#0x100
        STR      R0,[R1, #+0]
        BX       LR               ;; return
        DATA
??Set_31:
        DATA32
        DC32     0x40003800
          CFI EndBlock cfiBlock148

        SECTION `.text`:CODE:REORDER:NOROOT(2)
        SECTION_GROUP _ZN14FieldValueBaseI26RCC_AHB1ENR_GPIOCEN_ValuesIN3RCC7AHB1ENRELj2ELj1E13ReadWriteModeNS1_14RCCAHB1ENRBaseEES4_Lj1EE3SetIS3_vEEvv
          CFI Block cfiBlock149 Using cfiCommon0
          CFI Function _ZN14FieldValueBaseI26RCC_AHB1ENR_GPIOCEN_ValuesIN3RCC7AHB1ENRELj2ELj1E13ReadWriteModeNS1_14RCCAHB1ENRBaseEES4_Lj1EE3SetIS3_vEEvv
          CFI NoCalls
        THUMB
// __interwork __vfp void FieldValueBase<RCC_AHB1ENR_GPIOCEN_Values<RCC::AHB1ENR, 2U, 1U, ReadWriteMode, RCC::RCCAHB1ENRBase>, RCC::RCCAHB1ENRBase, 1U>::Set<ReadWriteMode, void>()
_ZN14FieldValueBaseI26RCC_AHB1ENR_GPIOCEN_ValuesIN3RCC7AHB1ENRELj2ELj1E13ReadWriteModeNS1_14RCCAHB1ENRBaseEES4_Lj1EE3SetIS3_vEEvv:
        LDR.N    R1,??Set_32      ;; 0x40023830
        LDR      R0,[R1, #+0]
        BICS     R0,R0,#0x4
        ORRS     R0,R0,#0x4
        STR      R0,[R1, #+0]
        BX       LR               ;; return
        DATA
??Set_32:
        DATA32
        DC32     0x40023830
          CFI EndBlock cfiBlock149

        SECTION `.text`:CODE:REORDER:NOROOT(2)
        SECTION_GROUP _ZN14FieldValueBaseI26GPIOC_MODER_MODER15_ValuesIN5GPIOC5MODERELj12ELj2E13ReadWriteModeNS1_14GPIOCMODERBaseEES4_Lj1EE3SetIS3_vEEvv
          CFI Block cfiBlock150 Using cfiCommon0
          CFI Function _ZN14FieldValueBaseI26GPIOC_MODER_MODER15_ValuesIN5GPIOC5MODERELj12ELj2E13ReadWriteModeNS1_14GPIOCMODERBaseEES4_Lj1EE3SetIS3_vEEvv
          CFI NoCalls
        THUMB
// __interwork __vfp void FieldValueBase<GPIOC_MODER_MODER15_Values<GPIOC::MODER, 12U, 2U, ReadWriteMode, GPIOC::GPIOCMODERBase>, GPIOC::GPIOCMODERBase, 1U>::Set<ReadWriteMode, void>()
_ZN14FieldValueBaseI26GPIOC_MODER_MODER15_ValuesIN5GPIOC5MODERELj12ELj2E13ReadWriteModeNS1_14GPIOCMODERBaseEES4_Lj1EE3SetIS3_vEEvv:
        LDR.N    R1,??Set_33      ;; 0x40020800
        LDR      R0,[R1, #+0]
        BICS     R0,R0,#0x3000
        ORRS     R0,R0,#0x1000
        STR      R0,[R1, #+0]
        BX       LR               ;; return
        DATA
??Set_33:
        DATA32
        DC32     0x40020800
          CFI EndBlock cfiBlock150

        SECTION `.text`:CODE:REORDER:NOROOT(2)
        SECTION_GROUP _ZN14FieldValueBaseI25RCC_AHB1ENR_DMA2EN_ValuesIN3RCC7APB2ENRELj12ELj1E13ReadWriteModeNS1_14RCCAPB2ENRBaseEES4_Lj1EE3SetIS3_vEEvv
          CFI Block cfiBlock151 Using cfiCommon0
          CFI Function _ZN14FieldValueBaseI25RCC_AHB1ENR_DMA2EN_ValuesIN3RCC7APB2ENRELj12ELj1E13ReadWriteModeNS1_14RCCAPB2ENRBaseEES4_Lj1EE3SetIS3_vEEvv
          CFI NoCalls
        THUMB
// __interwork __vfp void FieldValueBase<RCC_AHB1ENR_DMA2EN_Values<RCC::APB2ENR, 12U, 1U, ReadWriteMode, RCC::RCCAPB2ENRBase>, RCC::RCCAPB2ENRBase, 1U>::Set<ReadWriteMode, void>()
_ZN14FieldValueBaseI25RCC_AHB1ENR_DMA2EN_ValuesIN3RCC7APB2ENRELj12ELj1E13ReadWriteModeNS1_14RCCAPB2ENRBaseEES4_Lj1EE3SetIS3_vEEvv:
        LDR.N    R1,??Set_34      ;; 0x40023844
        LDR      R0,[R1, #+0]
        BICS     R0,R0,#0x1000
        ORRS     R0,R0,#0x1000
        STR      R0,[R1, #+0]
        BX       LR               ;; return
        DATA
??Set_34:
        DATA32
        DC32     0x40023844
          CFI EndBlock cfiBlock151

        SECTION `.text`:CODE:REORDER:NOROOT(2)
        SECTION_GROUP _ZN14FieldValueBaseI20SPI1_CR1_MSTR_ValuesIN4SPI13CR1ELj2ELj1E13ReadWriteModeNS1_11SPI1CR1BaseEES4_Lj1EE3SetIS3_vEEvv
          CFI Block cfiBlock152 Using cfiCommon0
          CFI Function _ZN14FieldValueBaseI20SPI1_CR1_MSTR_ValuesIN4SPI13CR1ELj2ELj1E13ReadWriteModeNS1_11SPI1CR1BaseEES4_Lj1EE3SetIS3_vEEvv
          CFI NoCalls
        THUMB
// __interwork __vfp void FieldValueBase<SPI1_CR1_MSTR_Values<SPI1::CR1, 2U, 1U, ReadWriteMode, SPI1::SPI1CR1Base>, SPI1::SPI1CR1Base, 1U>::Set<ReadWriteMode, void>()
_ZN14FieldValueBaseI20SPI1_CR1_MSTR_ValuesIN4SPI13CR1ELj2ELj1E13ReadWriteModeNS1_11SPI1CR1BaseEES4_Lj1EE3SetIS3_vEEvv:
        LDR.N    R1,??Set_35      ;; 0x40013000
        LDR      R0,[R1, #+0]
        BICS     R0,R0,#0x4
        ORRS     R0,R0,#0x4
        STR      R0,[R1, #+0]
        BX       LR               ;; return
        DATA
??Set_35:
        DATA32
        DC32     0x40013000
          CFI EndBlock cfiBlock152

        SECTION `.text`:CODE:REORDER:NOROOT(2)
        SECTION_GROUP _ZN14FieldValueBaseI19SPI1_CR1_DFF_ValuesIN4SPI13CR1ELj11ELj1E13ReadWriteModeNS1_11SPI1CR1BaseEES4_Lj0EE3SetIS3_vEEvv
          CFI Block cfiBlock153 Using cfiCommon0
          CFI Function _ZN14FieldValueBaseI19SPI1_CR1_DFF_ValuesIN4SPI13CR1ELj11ELj1E13ReadWriteModeNS1_11SPI1CR1BaseEES4_Lj0EE3SetIS3_vEEvv
          CFI NoCalls
        THUMB
// __interwork __vfp void FieldValueBase<SPI1_CR1_DFF_Values<SPI1::CR1, 11U, 1U, ReadWriteMode, SPI1::SPI1CR1Base>, SPI1::SPI1CR1Base, 0U>::Set<ReadWriteMode, void>()
_ZN14FieldValueBaseI19SPI1_CR1_DFF_ValuesIN4SPI13CR1ELj11ELj1E13ReadWriteModeNS1_11SPI1CR1BaseEES4_Lj0EE3SetIS3_vEEvv:
        LDR.N    R1,??Set_36      ;; 0x40013000
        LDR      R0,[R1, #+0]
        BICS     R0,R0,#0x800
        STR      R0,[R1, #+0]
        BX       LR               ;; return
        DATA
??Set_36:
        DATA32
        DC32     0x40013000
          CFI EndBlock cfiBlock153

        SECTION `.text`:CODE:REORDER:NOROOT(2)
        SECTION_GROUP _ZN14FieldValueBaseI18SPI1_CR1_BR_ValuesIN4SPI13CR1ELj3ELj3E13ReadWriteModeNS1_11SPI1CR1BaseEES4_Lj5EE3SetIS3_vEEvv
          CFI Block cfiBlock154 Using cfiCommon0
          CFI Function _ZN14FieldValueBaseI18SPI1_CR1_BR_ValuesIN4SPI13CR1ELj3ELj3E13ReadWriteModeNS1_11SPI1CR1BaseEES4_Lj5EE3SetIS3_vEEvv
          CFI NoCalls
        THUMB
// __interwork __vfp void FieldValueBase<SPI1_CR1_BR_Values<SPI1::CR1, 3U, 3U, ReadWriteMode, SPI1::SPI1CR1Base>, SPI1::SPI1CR1Base, 5U>::Set<ReadWriteMode, void>()
_ZN14FieldValueBaseI18SPI1_CR1_BR_ValuesIN4SPI13CR1ELj3ELj3E13ReadWriteModeNS1_11SPI1CR1BaseEES4_Lj5EE3SetIS3_vEEvv:
        LDR.N    R1,??Set_37      ;; 0x40013000
        LDR      R0,[R1, #+0]
        BICS     R0,R0,#0x38
        ORRS     R0,R0,#0x28
        STR      R0,[R1, #+0]
        BX       LR               ;; return
        DATA
??Set_37:
        DATA32
        DC32     0x40013000
          CFI EndBlock cfiBlock154

        SECTION `.text`:CODE:REORDER:NOROOT(2)
        SECTION_GROUP _ZN14FieldValueBaseI21SPI1_CR1_CRCEN_ValuesIN4SPI13CR1ELj13ELj1E13ReadWriteModeNS1_11SPI1CR1BaseEES4_Lj0EE3SetIS3_vEEvv
          CFI Block cfiBlock155 Using cfiCommon0
          CFI Function _ZN14FieldValueBaseI21SPI1_CR1_CRCEN_ValuesIN4SPI13CR1ELj13ELj1E13ReadWriteModeNS1_11SPI1CR1BaseEES4_Lj0EE3SetIS3_vEEvv
          CFI NoCalls
        THUMB
// __interwork __vfp void FieldValueBase<SPI1_CR1_CRCEN_Values<SPI1::CR1, 13U, 1U, ReadWriteMode, SPI1::SPI1CR1Base>, SPI1::SPI1CR1Base, 0U>::Set<ReadWriteMode, void>()
_ZN14FieldValueBaseI21SPI1_CR1_CRCEN_ValuesIN4SPI13CR1ELj13ELj1E13ReadWriteModeNS1_11SPI1CR1BaseEES4_Lj0EE3SetIS3_vEEvv:
        LDR.N    R1,??Set_38      ;; 0x40013000
        LDR      R0,[R1, #+0]
        BICS     R0,R0,#0x2000
        STR      R0,[R1, #+0]
        BX       LR               ;; return
        DATA
??Set_38:
        DATA32
        DC32     0x40013000
          CFI EndBlock cfiBlock155

        SECTION `.text`:CODE:REORDER:NOROOT(2)
        SECTION_GROUP _ZN14FieldValueBaseI20SPI1_CR1_CPOL_ValuesIN4SPI13CR1ELj1ELj1E13ReadWriteModeNS1_11SPI1CR1BaseEES4_Lj0EE3SetIS3_vEEvv
          CFI Block cfiBlock156 Using cfiCommon0
          CFI Function _ZN14FieldValueBaseI20SPI1_CR1_CPOL_ValuesIN4SPI13CR1ELj1ELj1E13ReadWriteModeNS1_11SPI1CR1BaseEES4_Lj0EE3SetIS3_vEEvv
          CFI NoCalls
        THUMB
// __interwork __vfp void FieldValueBase<SPI1_CR1_CPOL_Values<SPI1::CR1, 1U, 1U, ReadWriteMode, SPI1::SPI1CR1Base>, SPI1::SPI1CR1Base, 0U>::Set<ReadWriteMode, void>()
_ZN14FieldValueBaseI20SPI1_CR1_CPOL_ValuesIN4SPI13CR1ELj1ELj1E13ReadWriteModeNS1_11SPI1CR1BaseEES4_Lj0EE3SetIS3_vEEvv:
        LDR.N    R1,??Set_39      ;; 0x40013000
        LDR      R0,[R1, #+0]
        BICS     R0,R0,#0x2
        STR      R0,[R1, #+0]
        BX       LR               ;; return
        DATA
??Set_39:
        DATA32
        DC32     0x40013000
          CFI EndBlock cfiBlock156

        SECTION `.text`:CODE:REORDER:NOROOT(2)
        SECTION_GROUP _ZN14FieldValueBaseI20SPI1_CR1_CPHA_ValuesIN4SPI13CR1ELj0ELj1E13ReadWriteModeNS1_11SPI1CR1BaseEES4_Lj0EE3SetIS3_vEEvv
          CFI Block cfiBlock157 Using cfiCommon0
          CFI Function _ZN14FieldValueBaseI20SPI1_CR1_CPHA_ValuesIN4SPI13CR1ELj0ELj1E13ReadWriteModeNS1_11SPI1CR1BaseEES4_Lj0EE3SetIS3_vEEvv
          CFI NoCalls
        THUMB
// __interwork __vfp void FieldValueBase<SPI1_CR1_CPHA_Values<SPI1::CR1, 0U, 1U, ReadWriteMode, SPI1::SPI1CR1Base>, SPI1::SPI1CR1Base, 0U>::Set<ReadWriteMode, void>()
_ZN14FieldValueBaseI20SPI1_CR1_CPHA_ValuesIN4SPI13CR1ELj0ELj1E13ReadWriteModeNS1_11SPI1CR1BaseEES4_Lj0EE3SetIS3_vEEvv:
        LDR.N    R1,??Set_40      ;; 0x40013000
        LDR      R0,[R1, #+0]
        LSRS     R0,R0,#+1
        LSLS     R0,R0,#+1
        STR      R0,[R1, #+0]
        BX       LR               ;; return
        DATA
??Set_40:
        DATA32
        DC32     0x40013000
          CFI EndBlock cfiBlock157

        SECTION `.text`:CODE:REORDER:NOROOT(2)
        SECTION_GROUP _ZN14FieldValueBaseI24SPI1_CR1_LSBFIRST_ValuesIN4SPI13CR1ELj7ELj1E13ReadWriteModeNS1_11SPI1CR1BaseEES4_Lj0EE3SetIS3_vEEvv
          CFI Block cfiBlock158 Using cfiCommon0
          CFI Function _ZN14FieldValueBaseI24SPI1_CR1_LSBFIRST_ValuesIN4SPI13CR1ELj7ELj1E13ReadWriteModeNS1_11SPI1CR1BaseEES4_Lj0EE3SetIS3_vEEvv
          CFI NoCalls
        THUMB
// __interwork __vfp void FieldValueBase<SPI1_CR1_LSBFIRST_Values<SPI1::CR1, 7U, 1U, ReadWriteMode, SPI1::SPI1CR1Base>, SPI1::SPI1CR1Base, 0U>::Set<ReadWriteMode, void>()
_ZN14FieldValueBaseI24SPI1_CR1_LSBFIRST_ValuesIN4SPI13CR1ELj7ELj1E13ReadWriteModeNS1_11SPI1CR1BaseEES4_Lj0EE3SetIS3_vEEvv:
        LDR.N    R1,??Set_41      ;; 0x40013000
        LDR      R0,[R1, #+0]
        BICS     R0,R0,#0x80
        STR      R0,[R1, #+0]
        BX       LR               ;; return
        DATA
??Set_41:
        DATA32
        DC32     0x40013000
          CFI EndBlock cfiBlock158

        SECTION `.text`:CODE:REORDER:NOROOT(2)
        SECTION_GROUP _ZN14FieldValueBaseI20SPI1_CR2_SSOE_ValuesIN4SPI13CR2ELj2ELj1E13ReadWriteModeNS1_11SPI1CR2BaseEES4_Lj1EE3SetIS3_vEEvv
          CFI Block cfiBlock159 Using cfiCommon0
          CFI Function _ZN14FieldValueBaseI20SPI1_CR2_SSOE_ValuesIN4SPI13CR2ELj2ELj1E13ReadWriteModeNS1_11SPI1CR2BaseEES4_Lj1EE3SetIS3_vEEvv
          CFI NoCalls
        THUMB
// __interwork __vfp void FieldValueBase<SPI1_CR2_SSOE_Values<SPI1::CR2, 2U, 1U, ReadWriteMode, SPI1::SPI1CR2Base>, SPI1::SPI1CR2Base, 1U>::Set<ReadWriteMode, void>()
_ZN14FieldValueBaseI20SPI1_CR2_SSOE_ValuesIN4SPI13CR2ELj2ELj1E13ReadWriteModeNS1_11SPI1CR2BaseEES4_Lj1EE3SetIS3_vEEvv:
        LDR.N    R1,??Set_42      ;; 0x40013004
        LDR      R0,[R1, #+0]
        BICS     R0,R0,#0x4
        ORRS     R0,R0,#0x4
        STR      R0,[R1, #+0]
        BX       LR               ;; return
        DATA
??Set_42:
        DATA32
        DC32     0x40013004
          CFI EndBlock cfiBlock159

        SECTION `.text`:CODE:REORDER:NOROOT(2)
        SECTION_GROUP _ZN14FieldValueBaseI19SPI1_CR1_SSM_ValuesIN4SPI13CR1ELj9ELj1E13ReadWriteModeNS1_11SPI1CR1BaseEES4_Lj1EE3SetIS3_vEEvv
          CFI Block cfiBlock160 Using cfiCommon0
          CFI Function _ZN14FieldValueBaseI19SPI1_CR1_SSM_ValuesIN4SPI13CR1ELj9ELj1E13ReadWriteModeNS1_11SPI1CR1BaseEES4_Lj1EE3SetIS3_vEEvv
          CFI NoCalls
        THUMB
// __interwork __vfp void FieldValueBase<SPI1_CR1_SSM_Values<SPI1::CR1, 9U, 1U, ReadWriteMode, SPI1::SPI1CR1Base>, SPI1::SPI1CR1Base, 1U>::Set<ReadWriteMode, void>()
_ZN14FieldValueBaseI19SPI1_CR1_SSM_ValuesIN4SPI13CR1ELj9ELj1E13ReadWriteModeNS1_11SPI1CR1BaseEES4_Lj1EE3SetIS3_vEEvv:
        LDR.N    R1,??Set_43      ;; 0x40013000
        LDR      R0,[R1, #+0]
        BICS     R0,R0,#0x200
        ORRS     R0,R0,#0x200
        STR      R0,[R1, #+0]
        BX       LR               ;; return
        DATA
??Set_43:
        DATA32
        DC32     0x40013000
          CFI EndBlock cfiBlock160

        SECTION `.text`:CODE:REORDER:NOROOT(2)
        SECTION_GROUP _ZN14FieldValueBaseI19SPI1_CR1_SSI_ValuesIN4SPI13CR1ELj8ELj1E13ReadWriteModeNS1_11SPI1CR1BaseEES4_Lj1EE3SetIS3_vEEvv
          CFI Block cfiBlock161 Using cfiCommon0
          CFI Function _ZN14FieldValueBaseI19SPI1_CR1_SSI_ValuesIN4SPI13CR1ELj8ELj1E13ReadWriteModeNS1_11SPI1CR1BaseEES4_Lj1EE3SetIS3_vEEvv
          CFI NoCalls
        THUMB
// __interwork __vfp void FieldValueBase<SPI1_CR1_SSI_Values<SPI1::CR1, 8U, 1U, ReadWriteMode, SPI1::SPI1CR1Base>, SPI1::SPI1CR1Base, 1U>::Set<ReadWriteMode, void>()
_ZN14FieldValueBaseI19SPI1_CR1_SSI_ValuesIN4SPI13CR1ELj8ELj1E13ReadWriteModeNS1_11SPI1CR1BaseEES4_Lj1EE3SetIS3_vEEvv:
        LDR.N    R1,??Set_44      ;; 0x40013000
        LDR      R0,[R1, #+0]
        BICS     R0,R0,#0x100
        ORRS     R0,R0,#0x100
        STR      R0,[R1, #+0]
        BX       LR               ;; return
        DATA
??Set_44:
        DATA32
        DC32     0x40013000
          CFI EndBlock cfiBlock161

        SECTION `.text`:CODE:REORDER:NOROOT(2)
        SECTION_GROUP _ZN14FieldValueBaseI26GPIOB_MODER_MODER15_ValuesIN5GPIOB5MODERELj26ELj2E13ReadWriteModeNS1_14GPIOBMODERBaseEES4_Lj1EE3SetIS3_vEEvv
          CFI Block cfiBlock162 Using cfiCommon0
          CFI Function _ZN14FieldValueBaseI26GPIOB_MODER_MODER15_ValuesIN5GPIOB5MODERELj26ELj2E13ReadWriteModeNS1_14GPIOBMODERBaseEES4_Lj1EE3SetIS3_vEEvv
          CFI NoCalls
        THUMB
// __interwork __vfp void FieldValueBase<GPIOB_MODER_MODER15_Values<GPIOB::MODER, 26U, 2U, ReadWriteMode, GPIOB::GPIOBMODERBase>, GPIOB::GPIOBMODERBase, 1U>::Set<ReadWriteMode, void>()
_ZN14FieldValueBaseI26GPIOB_MODER_MODER15_ValuesIN5GPIOB5MODERELj26ELj2E13ReadWriteModeNS1_14GPIOBMODERBaseEES4_Lj1EE3SetIS3_vEEvv:
        LDR.N    R1,??Set_45      ;; 0x40020400
        LDR      R0,[R1, #+0]
        BICS     R0,R0,#0xC000000
        ORRS     R0,R0,#0x4000000
        STR      R0,[R1, #+0]
        BX       LR               ;; return
        DATA
??Set_45:
        DATA32
        DC32     0x40020400
          CFI EndBlock cfiBlock162

        SECTION `.text`:CODE:REORDER:NOROOT(2)
        SECTION_GROUP _ZN14FieldValueBaseI26GPIOB_MODER_MODER15_ValuesIN5GPIOB5MODERELj28ELj2E13ReadWriteModeNS1_14GPIOBMODERBaseEES4_Lj1EE3SetIS3_vEEvv
          CFI Block cfiBlock163 Using cfiCommon0
          CFI Function _ZN14FieldValueBaseI26GPIOB_MODER_MODER15_ValuesIN5GPIOB5MODERELj28ELj2E13ReadWriteModeNS1_14GPIOBMODERBaseEES4_Lj1EE3SetIS3_vEEvv
          CFI NoCalls
        THUMB
// __interwork __vfp void FieldValueBase<GPIOB_MODER_MODER15_Values<GPIOB::MODER, 28U, 2U, ReadWriteMode, GPIOB::GPIOBMODERBase>, GPIOB::GPIOBMODERBase, 1U>::Set<ReadWriteMode, void>()
_ZN14FieldValueBaseI26GPIOB_MODER_MODER15_ValuesIN5GPIOB5MODERELj28ELj2E13ReadWriteModeNS1_14GPIOBMODERBaseEES4_Lj1EE3SetIS3_vEEvv:
        LDR.N    R1,??Set_46      ;; 0x40020400
        LDR      R0,[R1, #+0]
        BICS     R0,R0,#0x30000000
        ORRS     R0,R0,#0x10000000
        STR      R0,[R1, #+0]
        BX       LR               ;; return
        DATA
??Set_46:
        DATA32
        DC32     0x40020400
          CFI EndBlock cfiBlock163

        SECTION `.text`:CODE:REORDER:NOROOT(2)
        SECTION_GROUP _ZN14FieldValueBaseI26GPIOB_MODER_MODER15_ValuesIN5GPIOB5MODERELj30ELj2E13ReadWriteModeNS1_14GPIOBMODERBaseEES4_Lj1EE3SetIS3_vEEvv
          CFI Block cfiBlock164 Using cfiCommon0
          CFI Function _ZN14FieldValueBaseI26GPIOB_MODER_MODER15_ValuesIN5GPIOB5MODERELj30ELj2E13ReadWriteModeNS1_14GPIOBMODERBaseEES4_Lj1EE3SetIS3_vEEvv
          CFI NoCalls
        THUMB
// __interwork __vfp void FieldValueBase<GPIOB_MODER_MODER15_Values<GPIOB::MODER, 30U, 2U, ReadWriteMode, GPIOB::GPIOBMODERBase>, GPIOB::GPIOBMODERBase, 1U>::Set<ReadWriteMode, void>()
_ZN14FieldValueBaseI26GPIOB_MODER_MODER15_ValuesIN5GPIOB5MODERELj30ELj2E13ReadWriteModeNS1_14GPIOBMODERBaseEES4_Lj1EE3SetIS3_vEEvv:
        LDR.N    R1,??Set_47      ;; 0x40020400
        LDR      R0,[R1, #+0]
        BIC      R0,R0,#0xC0000000
        ORRS     R0,R0,#0x40000000
        STR      R0,[R1, #+0]
        BX       LR               ;; return
        DATA
??Set_47:
        DATA32
        DC32     0x40020400
          CFI EndBlock cfiBlock164

        SECTION `.text`:CODE:REORDER:NOROOT(2)
        SECTION_GROUP _ZN14FieldValueBaseI26GPIOB_MODER_MODER15_ValuesIN5GPIOB5MODERELj2ELj2E13ReadWriteModeNS1_14GPIOBMODERBaseEES4_Lj0EE3SetIS3_vEEvv
          CFI Block cfiBlock165 Using cfiCommon0
          CFI Function _ZN14FieldValueBaseI26GPIOB_MODER_MODER15_ValuesIN5GPIOB5MODERELj2ELj2E13ReadWriteModeNS1_14GPIOBMODERBaseEES4_Lj0EE3SetIS3_vEEvv
          CFI NoCalls
        THUMB
// __interwork __vfp void FieldValueBase<GPIOB_MODER_MODER15_Values<GPIOB::MODER, 2U, 2U, ReadWriteMode, GPIOB::GPIOBMODERBase>, GPIOB::GPIOBMODERBase, 0U>::Set<ReadWriteMode, void>()
_ZN14FieldValueBaseI26GPIOB_MODER_MODER15_ValuesIN5GPIOB5MODERELj2ELj2E13ReadWriteModeNS1_14GPIOBMODERBaseEES4_Lj0EE3SetIS3_vEEvv:
        LDR.N    R1,??Set_48      ;; 0x40020400
        LDR      R0,[R1, #+0]
        BICS     R0,R0,#0xC
        STR      R0,[R1, #+0]
        BX       LR               ;; return
        DATA
??Set_48:
        DATA32
        DC32     0x40020400
          CFI EndBlock cfiBlock165

        SECTION `.text`:CODE:REORDER:NOROOT(2)
        SECTION_GROUP _ZN14FieldValueBaseI20USART2_CR1_UE_ValuesIN6USART23CR1ELj13ELj1E13ReadWriteModeNS1_13USART2CR1BaseEES4_Lj1EE3SetIS3_vEEvv
          CFI Block cfiBlock166 Using cfiCommon0
          CFI Function _ZN14FieldValueBaseI20USART2_CR1_UE_ValuesIN6USART23CR1ELj13ELj1E13ReadWriteModeNS1_13USART2CR1BaseEES4_Lj1EE3SetIS3_vEEvv
          CFI NoCalls
        THUMB
// __interwork __vfp void FieldValueBase<USART2_CR1_UE_Values<USART2::CR1, 13U, 1U, ReadWriteMode, USART2::USART2CR1Base>, USART2::USART2CR1Base, 1U>::Set<ReadWriteMode, void>()
_ZN14FieldValueBaseI20USART2_CR1_UE_ValuesIN6USART23CR1ELj13ELj1E13ReadWriteModeNS1_13USART2CR1BaseEES4_Lj1EE3SetIS3_vEEvv:
        LDR.N    R1,??Set_49      ;; 0x4000440c
        LDR      R0,[R1, #+0]
        BICS     R0,R0,#0x2000
        ORRS     R0,R0,#0x2000
        STR      R0,[R1, #+0]
        BX       LR               ;; return
        DATA
??Set_49:
        DATA32
        DC32     0x4000440c
          CFI EndBlock cfiBlock166

        SECTION `.text`:CODE:REORDER:NOROOT(2)
        SECTION_GROUP _ZN14FieldValueBaseI19SPI2_CR1_SPE_ValuesIN4SPI23CR1ELj6ELj1E13ReadWriteModeNS1_11SPI2CR1BaseEES4_Lj1EE3SetIS3_vEEvv
          CFI Block cfiBlock167 Using cfiCommon0
          CFI Function _ZN14FieldValueBaseI19SPI2_CR1_SPE_ValuesIN4SPI23CR1ELj6ELj1E13ReadWriteModeNS1_11SPI2CR1BaseEES4_Lj1EE3SetIS3_vEEvv
          CFI NoCalls
        THUMB
// __interwork __vfp void FieldValueBase<SPI2_CR1_SPE_Values<SPI2::CR1, 6U, 1U, ReadWriteMode, SPI2::SPI2CR1Base>, SPI2::SPI2CR1Base, 1U>::Set<ReadWriteMode, void>()
_ZN14FieldValueBaseI19SPI2_CR1_SPE_ValuesIN4SPI23CR1ELj6ELj1E13ReadWriteModeNS1_11SPI2CR1BaseEES4_Lj1EE3SetIS3_vEEvv:
        LDR.N    R1,??Set_50      ;; 0x40003800
        LDR      R0,[R1, #+0]
        BICS     R0,R0,#0x40
        ORRS     R0,R0,#0x40
        STR      R0,[R1, #+0]
        BX       LR               ;; return
        DATA
??Set_50:
        DATA32
        DC32     0x40003800
          CFI EndBlock cfiBlock167

        SECTION `.text`:CODE:REORDER:NOROOT(2)
        SECTION_GROUP _ZN14FieldValueBaseI19SPI1_CR1_SPE_ValuesIN4SPI13CR1ELj6ELj1E13ReadWriteModeNS1_11SPI1CR1BaseEES4_Lj1EE3SetIS3_vEEvv
          CFI Block cfiBlock168 Using cfiCommon0
          CFI Function _ZN14FieldValueBaseI19SPI1_CR1_SPE_ValuesIN4SPI13CR1ELj6ELj1E13ReadWriteModeNS1_11SPI1CR1BaseEES4_Lj1EE3SetIS3_vEEvv
          CFI NoCalls
        THUMB
// __interwork __vfp void FieldValueBase<SPI1_CR1_SPE_Values<SPI1::CR1, 6U, 1U, ReadWriteMode, SPI1::SPI1CR1Base>, SPI1::SPI1CR1Base, 1U>::Set<ReadWriteMode, void>()
_ZN14FieldValueBaseI19SPI1_CR1_SPE_ValuesIN4SPI13CR1ELj6ELj1E13ReadWriteModeNS1_11SPI1CR1BaseEES4_Lj1EE3SetIS3_vEEvv:
        LDR.N    R1,??Set_51      ;; 0x40013000
        LDR      R0,[R1, #+0]
        BICS     R0,R0,#0x40
        ORRS     R0,R0,#0x40
        STR      R0,[R1, #+0]
        BX       LR               ;; return
        DATA
??Set_51:
        DATA32
        DC32     0x40013000
          CFI EndBlock cfiBlock168

        SECTION `.text`:CODE:REORDER:NOROOT(2)
        SECTION_GROUP _ZN14FieldValueBaseI22SPI1_CR2_RXNEIE_ValuesIN4SPI13CR2ELj6ELj1E13ReadWriteModeNS1_11SPI1CR2BaseEES4_Lj1EE3SetIS3_vEEvv
          CFI Block cfiBlock169 Using cfiCommon0
          CFI Function _ZN14FieldValueBaseI22SPI1_CR2_RXNEIE_ValuesIN4SPI13CR2ELj6ELj1E13ReadWriteModeNS1_11SPI1CR2BaseEES4_Lj1EE3SetIS3_vEEvv
          CFI NoCalls
        THUMB
// __interwork __vfp void FieldValueBase<SPI1_CR2_RXNEIE_Values<SPI1::CR2, 6U, 1U, ReadWriteMode, SPI1::SPI1CR2Base>, SPI1::SPI1CR2Base, 1U>::Set<ReadWriteMode, void>()
_ZN14FieldValueBaseI22SPI1_CR2_RXNEIE_ValuesIN4SPI13CR2ELj6ELj1E13ReadWriteModeNS1_11SPI1CR2BaseEES4_Lj1EE3SetIS3_vEEvv:
        LDR.N    R1,??Set_52      ;; 0x40013004
        LDR      R0,[R1, #+0]
        BICS     R0,R0,#0x40
        ORRS     R0,R0,#0x40
        STR      R0,[R1, #+0]
        BX       LR               ;; return
        DATA
??Set_52:
        DATA32
        DC32     0x40013004
          CFI EndBlock cfiBlock169

        SECTION `.text`:CODE:REORDER:NOROOT(2)
        SECTION_GROUP _ZN14FieldValueBaseI21SPI1_CR2_TXEIE_ValuesIN4SPI13CR2ELj7ELj1E13ReadWriteModeNS1_11SPI1CR2BaseEES4_Lj1EE3SetIS3_vEEvv
          CFI Block cfiBlock170 Using cfiCommon0
          CFI Function _ZN14FieldValueBaseI21SPI1_CR2_TXEIE_ValuesIN4SPI13CR2ELj7ELj1E13ReadWriteModeNS1_11SPI1CR2BaseEES4_Lj1EE3SetIS3_vEEvv
          CFI NoCalls
        THUMB
// __interwork __vfp void FieldValueBase<SPI1_CR2_TXEIE_Values<SPI1::CR2, 7U, 1U, ReadWriteMode, SPI1::SPI1CR2Base>, SPI1::SPI1CR2Base, 1U>::Set<ReadWriteMode, void>()
_ZN14FieldValueBaseI21SPI1_CR2_TXEIE_ValuesIN4SPI13CR2ELj7ELj1E13ReadWriteModeNS1_11SPI1CR2BaseEES4_Lj1EE3SetIS3_vEEvv:
        LDR.N    R1,??Set_53      ;; 0x40013004
        LDR      R0,[R1, #+0]
        BICS     R0,R0,#0x80
        ORRS     R0,R0,#0x80
        STR      R0,[R1, #+0]
        BX       LR               ;; return
        DATA
??Set_53:
        DATA32
        DC32     0x40013004
          CFI EndBlock cfiBlock170

        SECTION `.text`:CODE:REORDER:NOROOT(2)
        SECTION_GROUP _ZN14FieldValueBaseI20RCC_CR_HSIRDY_ValuesIN3RCC2CRELj1ELj1E8ReadModeNS1_9RCCCRBaseEES4_Lj0EE5IsSetIS3_vEEbv
          CFI Block cfiBlock171 Using cfiCommon0
          CFI Function _ZN14FieldValueBaseI20RCC_CR_HSIRDY_ValuesIN3RCC2CRELj1ELj1E8ReadModeNS1_9RCCCRBaseEES4_Lj0EE5IsSetIS3_vEEbv
          CFI NoCalls
        THUMB
// __interwork __vfp bool FieldValueBase<RCC_CR_HSIRDY_Values<RCC::CR, 1U, 1U, ReadMode, RCC::RCCCRBase>, RCC::RCCCRBase, 0U>::IsSet<ReadMode, void>()
_ZN14FieldValueBaseI20RCC_CR_HSIRDY_ValuesIN3RCC2CRELj1ELj1E8ReadModeNS1_9RCCCRBaseEES4_Lj0EE5IsSetIS3_vEEbv:
        LDR.N    R0,??IsSet_0     ;; 0x40023800
        LDR      R0,[R0, #+0]
        LSRS     R0,R0,#+1
        ANDS     R0,R0,#0x1
        EORS     R0,R0,#0x1
        UXTB     R0,R0            ;; ZeroExt  R0,R0,#+24,#+24
        BX       LR               ;; return
        Nop      
        DATA
??IsSet_0:
        DATA32
        DC32     0x40023800
          CFI EndBlock cfiBlock171

        SECTION `.text`:CODE:REORDER:NOROOT(2)
        SECTION_GROUP _ZN14FieldValueBaseI19RCC_CFGR_SWS_ValuesIN3RCC4CFGRELj2ELj2E8ReadModeNS1_11RCCCFGRBaseEES4_Lj0EE5IsSetIS3_vEEbv
          CFI Block cfiBlock172 Using cfiCommon0
          CFI Function _ZN14FieldValueBaseI19RCC_CFGR_SWS_ValuesIN3RCC4CFGRELj2ELj2E8ReadModeNS1_11RCCCFGRBaseEES4_Lj0EE5IsSetIS3_vEEbv
          CFI NoCalls
        THUMB
// __interwork __vfp bool FieldValueBase<RCC_CFGR_SWS_Values<RCC::CFGR, 2U, 2U, ReadMode, RCC::RCCCFGRBase>, RCC::RCCCFGRBase, 0U>::IsSet<ReadMode, void>()
_ZN14FieldValueBaseI19RCC_CFGR_SWS_ValuesIN3RCC4CFGRELj2ELj2E8ReadModeNS1_11RCCCFGRBaseEES4_Lj0EE5IsSetIS3_vEEbv:
        LDR.N    R0,??IsSet_1     ;; 0x40023808
        LDR      R0,[R0, #+0]
        TST      R0,#0xC
        BNE.N    ??IsSet_4
        MOVS     R0,#+1
        B.N      ??IsSet_5
??IsSet_4:
        MOVS     R0,#+0
??IsSet_5:
        UXTB     R0,R0            ;; ZeroExt  R0,R0,#+24,#+24
        BX       LR               ;; return
        DATA
??IsSet_1:
        DATA32
        DC32     0x40023808
          CFI EndBlock cfiBlock172

        SECTION `.text`:CODE:REORDER:NOROOT(2)
        SECTION_GROUP _ZN14FieldValueBaseI26RCC_AHB1ENR_GPIOAEN_ValuesIN3RCC7AHB1ENRELj0ELj1E13ReadWriteModeNS1_14RCCAHB1ENRBaseEES4_Lj1EE5IsSetIS3_vEEbv
          CFI Block cfiBlock173 Using cfiCommon0
          CFI Function _ZN14FieldValueBaseI26RCC_AHB1ENR_GPIOAEN_ValuesIN3RCC7AHB1ENRELj0ELj1E13ReadWriteModeNS1_14RCCAHB1ENRBaseEES4_Lj1EE5IsSetIS3_vEEbv
          CFI NoCalls
        THUMB
// __interwork __vfp bool FieldValueBase<RCC_AHB1ENR_GPIOAEN_Values<RCC::AHB1ENR, 0U, 1U, ReadWriteMode, RCC::RCCAHB1ENRBase>, RCC::RCCAHB1ENRBase, 1U>::IsSet<ReadWriteMode, void>()
_ZN14FieldValueBaseI26RCC_AHB1ENR_GPIOAEN_ValuesIN3RCC7AHB1ENRELj0ELj1E13ReadWriteModeNS1_14RCCAHB1ENRBaseEES4_Lj1EE5IsSetIS3_vEEbv:
        LDR.N    R0,??IsSet_2     ;; 0x40023830
        LDR      R0,[R0, #+0]
        ANDS     R0,R0,#0x1
        BX       LR               ;; return
        Nop      
        DATA
??IsSet_2:
        DATA32
        DC32     0x40023830
          CFI EndBlock cfiBlock173

        SECTION `.text`:CODE:REORDER:NOROOT(2)
        SECTION_GROUP _ZN14FieldValueBaseI26RCC_AHB1ENR_GPIOCEN_ValuesIN3RCC7AHB1ENRELj2ELj1E13ReadWriteModeNS1_14RCCAHB1ENRBaseEES4_Lj1EE5IsSetIS3_vEEbv
          CFI Block cfiBlock174 Using cfiCommon0
          CFI Function _ZN14FieldValueBaseI26RCC_AHB1ENR_GPIOCEN_ValuesIN3RCC7AHB1ENRELj2ELj1E13ReadWriteModeNS1_14RCCAHB1ENRBaseEES4_Lj1EE5IsSetIS3_vEEbv
          CFI NoCalls
        THUMB
// __interwork __vfp bool FieldValueBase<RCC_AHB1ENR_GPIOCEN_Values<RCC::AHB1ENR, 2U, 1U, ReadWriteMode, RCC::RCCAHB1ENRBase>, RCC::RCCAHB1ENRBase, 1U>::IsSet<ReadWriteMode, void>()
_ZN14FieldValueBaseI26RCC_AHB1ENR_GPIOCEN_ValuesIN3RCC7AHB1ENRELj2ELj1E13ReadWriteModeNS1_14RCCAHB1ENRBaseEES4_Lj1EE5IsSetIS3_vEEbv:
        LDR.N    R0,??IsSet_3     ;; 0x40023830
        LDR      R0,[R0, #+0]
        LSRS     R0,R0,#+2
        ANDS     R0,R0,#0x1
        BX       LR               ;; return
        DATA
??IsSet_3:
        DATA32
        DC32     0x40023830
          CFI EndBlock cfiBlock174

        SECTION `.text`:CODE:REORDER:NOROOT(2)
        SECTION_GROUP _ZN12RegisterBaseILj1073874944ELj32E13ReadWriteModeE5WriteIS0_vEEvj
          CFI Block cfiBlock175 Using cfiCommon0
          CFI Function _ZN12RegisterBaseILj1073874944ELj32E13ReadWriteModeE5WriteIS0_vEEvj
          CFI NoCalls
        THUMB
// __interwork __vfp void RegisterBase<1073874944U, 32U, ReadWriteMode>::Write<ReadWriteMode, void>(uint32_t)
_ZN12RegisterBaseILj1073874944ELj32E13ReadWriteModeE5WriteIS0_vEEvj:
        LDR.N    R1,??Write_0     ;; 0x40020800
        STR      R0,[R1, #+0]
        BX       LR               ;; return
        Nop      
        DATA
??Write_0:
        DATA32
        DC32     0x40020800
          CFI EndBlock cfiBlock175

        SECTION `.text`:CODE:REORDER:NOROOT(2)
        SECTION_GROUP _ZN12RegisterBaseILj1073874968ELj32E9WriteModeE5WriteIS0_vEEvj
          CFI Block cfiBlock176 Using cfiCommon0
          CFI Function _ZN12RegisterBaseILj1073874968ELj32E9WriteModeE5WriteIS0_vEEvj
          CFI NoCalls
        THUMB
// __interwork __vfp void RegisterBase<1073874968U, 32U, WriteMode>::Write<WriteMode, void>(uint32_t)
_ZN12RegisterBaseILj1073874968ELj32E9WriteModeE5WriteIS0_vEEvj:
        LDR.N    R1,??Write_1     ;; 0x40020818
        STR      R0,[R1, #+0]
        BX       LR               ;; return
        Nop      
        DATA
??Write_1:
        DATA32
        DC32     0x40020818
          CFI EndBlock cfiBlock176

        SECTION `.text`:CODE:REORDER:NOROOT(2)
        SECTION_GROUP _ZN12RegisterBaseILj1073872896ELj32E13ReadWriteModeE5WriteIS0_vEEvj
          CFI Block cfiBlock177 Using cfiCommon0
          CFI Function _ZN12RegisterBaseILj1073872896ELj32E13ReadWriteModeE5WriteIS0_vEEvj
          CFI NoCalls
        THUMB
// __interwork __vfp void RegisterBase<1073872896U, 32U, ReadWriteMode>::Write<ReadWriteMode, void>(uint32_t)
_ZN12RegisterBaseILj1073872896ELj32E13ReadWriteModeE5WriteIS0_vEEvj:
        LDR.N    R1,??Write_2     ;; 0x40020000
        STR      R0,[R1, #+0]
        BX       LR               ;; return
        Nop      
        DATA
??Write_2:
        DATA32
        DC32     0x40020000
          CFI EndBlock cfiBlock177

        SECTION `.text`:CODE:REORDER:NOROOT(2)
        SECTION_GROUP _ZN12RegisterBaseILj1073873944ELj32E9WriteModeE5WriteIS0_vEEvj
          CFI Block cfiBlock178 Using cfiCommon0
          CFI Function _ZN12RegisterBaseILj1073873944ELj32E9WriteModeE5WriteIS0_vEEvj
          CFI NoCalls
        THUMB
// __interwork __vfp void RegisterBase<1073873944U, 32U, WriteMode>::Write<WriteMode, void>(uint32_t)
_ZN12RegisterBaseILj1073873944ELj32E9WriteModeE5WriteIS0_vEEvj:
        LDR.N    R1,??Write_3     ;; 0x40020418
        STR      R0,[R1, #+0]
        BX       LR               ;; return
        Nop      
        DATA
??Write_3:
        DATA32
        DC32     0x40020418
          CFI EndBlock cfiBlock178

        SECTION `.text`:CODE:REORDER:NOROOT(2)
        SECTION_GROUP _ZN12RegisterBaseILj1073759236ELj32E13ReadWriteModeE5WriteIS0_vEEvj
          CFI Block cfiBlock179 Using cfiCommon0
          CFI Function _ZN12RegisterBaseILj1073759236ELj32E13ReadWriteModeE5WriteIS0_vEEvj
          CFI NoCalls
        THUMB
// __interwork __vfp void RegisterBase<1073759236U, 32U, ReadWriteMode>::Write<ReadWriteMode, void>(uint32_t)
_ZN12RegisterBaseILj1073759236ELj32E13ReadWriteModeE5WriteIS0_vEEvj:
        LDR.N    R1,??Write_4     ;; 0x40004404
        STR      R0,[R1, #+0]
        BX       LR               ;; return
        Nop      
        DATA
??Write_4:
        DATA32
        DC32     0x40004404
          CFI EndBlock cfiBlock179

        SECTION `.text`:CODE:REORDER:NOROOT(2)
        SECTION_GROUP _ZN12RegisterBaseILj3758153988ELj32E13ReadWriteModeE5WriteIS0_vEEvj
          CFI Block cfiBlock180 Using cfiCommon0
          CFI Function _ZN12RegisterBaseILj3758153988ELj32E13ReadWriteModeE5WriteIS0_vEEvj
          CFI NoCalls
        THUMB
// __interwork __vfp void RegisterBase<3758153988U, 32U, ReadWriteMode>::Write<ReadWriteMode, void>(uint32_t)
_ZN12RegisterBaseILj3758153988ELj32E13ReadWriteModeE5WriteIS0_vEEvj:
        LDR.N    R1,??Write_5     ;; 0xe000e104
        STR      R0,[R1, #+0]
        BX       LR               ;; return
        Nop      
        DATA
??Write_5:
        DATA32
        DC32     0xe000e104
          CFI EndBlock cfiBlock180

        SECTION `.text`:CODE:REORDER:NOROOT(2)
        SECTION_GROUP _ZN12RegisterBaseILj1073874964ELj32E13ReadWriteModeE6ToggleIS0_vEEvj
          CFI Block cfiBlock181 Using cfiCommon0
          CFI Function _ZN12RegisterBaseILj1073874964ELj32E13ReadWriteModeE6ToggleIS0_vEEvj
          CFI NoCalls
        THUMB
// __interwork __vfp void RegisterBase<1073874964U, 32U, ReadWriteMode>::Toggle<ReadWriteMode, void>(uint32_t)
_ZN12RegisterBaseILj1073874964ELj32E13ReadWriteModeE6ToggleIS0_vEEvj:
        LDR.N    R1,??Toggle_0    ;; 0x40020814
        LDR      R2,[R1, #+0]
        EORS     R2,R0,R2
        STR      R2,[R1, #+0]
        BX       LR               ;; return
        Nop      
        DATA
??Toggle_0:
        DATA32
        DC32     0x40020814
          CFI EndBlock cfiBlock181

        SECTION `.text`:CODE:REORDER:NOROOT(2)
        SECTION_GROUP _ZN12RegisterBaseILj1073872916ELj32E13ReadWriteModeE6ToggleIS0_vEEvj
          CFI Block cfiBlock182 Using cfiCommon0
          CFI Function _ZN12RegisterBaseILj1073872916ELj32E13ReadWriteModeE6ToggleIS0_vEEvj
          CFI NoCalls
        THUMB
// __interwork __vfp void RegisterBase<1073872916U, 32U, ReadWriteMode>::Toggle<ReadWriteMode, void>(uint32_t)
_ZN12RegisterBaseILj1073872916ELj32E13ReadWriteModeE6ToggleIS0_vEEvj:
        LDR.N    R1,??Toggle_1    ;; 0x40020014
        LDR      R2,[R1, #+0]
        EORS     R2,R0,R2
        STR      R2,[R1, #+0]
        BX       LR               ;; return
        Nop      
        DATA
??Toggle_1:
        DATA32
        DC32     0x40020014
          CFI EndBlock cfiBlock182

        SECTION `.text`:CODE:REORDER:NOROOT(2)
        SECTION_GROUP _ZN12RegisterBaseILj1073874944ELj32E13ReadWriteModeE3GetIS0_vEEjv
          CFI Block cfiBlock183 Using cfiCommon0
          CFI Function _ZN12RegisterBaseILj1073874944ELj32E13ReadWriteModeE3GetIS0_vEEjv
          CFI NoCalls
        THUMB
// __interwork __vfp uint32_t RegisterBase<1073874944U, 32U, ReadWriteMode>::Get<ReadWriteMode, void>()
_ZN12RegisterBaseILj1073874944ELj32E13ReadWriteModeE3GetIS0_vEEjv:
        LDR.N    R0,??Get_1       ;; 0x40020800
        LDR      R0,[R0, #+0]
        BX       LR               ;; return
        Nop      
        DATA
??Get_1:
        DATA32
        DC32     0x40020800
          CFI EndBlock cfiBlock183

        SECTION `.text`:CODE:REORDER:NOROOT(2)
        SECTION_GROUP _ZN12RegisterBaseILj1073874960ELj32E8ReadModeE3GetIS0_vEEjv
          CFI Block cfiBlock184 Using cfiCommon0
          CFI Function _ZN12RegisterBaseILj1073874960ELj32E8ReadModeE3GetIS0_vEEjv
          CFI NoCalls
        THUMB
// __interwork __vfp uint32_t RegisterBase<1073874960U, 32U, ReadMode>::Get<ReadMode, void>()
_ZN12RegisterBaseILj1073874960ELj32E8ReadModeE3GetIS0_vEEjv:
        LDR.N    R0,??Get_2       ;; 0x40020810
        LDR      R0,[R0, #+0]
        BX       LR               ;; return
        Nop      
        DATA
??Get_2:
        DATA32
        DC32     0x40020810
          CFI EndBlock cfiBlock184

        SECTION `.text`:CODE:REORDER:NOROOT(2)
        SECTION_GROUP _ZN12RegisterBaseILj1073872896ELj32E13ReadWriteModeE3GetIS0_vEEjv
          CFI Block cfiBlock185 Using cfiCommon0
          CFI Function _ZN12RegisterBaseILj1073872896ELj32E13ReadWriteModeE3GetIS0_vEEjv
          CFI NoCalls
        THUMB
// __interwork __vfp uint32_t RegisterBase<1073872896U, 32U, ReadWriteMode>::Get<ReadWriteMode, void>()
_ZN12RegisterBaseILj1073872896ELj32E13ReadWriteModeE3GetIS0_vEEjv:
        LDR.N    R0,??Get_3       ;; 0x40020000
        LDR      R0,[R0, #+0]
        BX       LR               ;; return
        Nop      
        DATA
??Get_3:
        DATA32
        DC32     0x40020000
          CFI EndBlock cfiBlock185

        SECTION `.text`:CODE:REORDER:NOROOT(2)
        SECTION_GROUP _ZN12RegisterBaseILj1073873936ELj32E8ReadModeE3GetIS0_vEEjv
          CFI Block cfiBlock186 Using cfiCommon0
          CFI Function _ZN12RegisterBaseILj1073873936ELj32E8ReadModeE3GetIS0_vEEjv
          CFI NoCalls
        THUMB
// __interwork __vfp uint32_t RegisterBase<1073873936U, 32U, ReadMode>::Get<ReadMode, void>()
_ZN12RegisterBaseILj1073873936ELj32E8ReadModeE3GetIS0_vEEjv:
        LDR.N    R0,??Get_4       ;; 0x40020410
        LDR      R0,[R0, #+0]
        BX       LR               ;; return
        Nop      
        DATA
??Get_4:
        DATA32
        DC32     0x40020410
          CFI EndBlock cfiBlock186

        SECTION `.text`:CODE:REORDER:NOROOT(2)
        SECTION_GROUP _ZN8RegisterILj1073887280ELj32E13ReadWriteModeN3RCC14RCCAHB1ENRBaseEJ10FieldValueI26RCC_AHB1ENR_GPIOCEN_ValuesINS1_7AHB1ENRELj2ELj1ES0_S2_ES2_Lj1EvES3_I26RCC_AHB1ENR_GPIOBEN_ValuesIS5_Lj1ELj1ES0_S2_ES2_Lj1EvES3_I26RCC_AHB1ENR_GPIOAEN_ValuesIS5_Lj0ELj1ES0_S2_ES2_Lj1EvEEE3SetIS0_vEEvv
          CFI Block cfiBlock187 Using cfiCommon0
          CFI Function _ZN8RegisterILj1073887280ELj32E13ReadWriteModeN3RCC14RCCAHB1ENRBaseEJ10FieldValueI26RCC_AHB1ENR_GPIOCEN_ValuesINS1_7AHB1ENRELj2ELj1ES0_S2_ES2_Lj1EvES3_I26RCC_AHB1ENR_GPIOBEN_ValuesIS5_Lj1ELj1ES0_S2_ES2_Lj1EvES3_I26RCC_AHB1ENR_GPIOAEN_ValuesIS5_Lj0ELj1ES0_S2_ES2_Lj1EvEEE3SetIS0_vEEvv
          CFI NoCalls
        THUMB
// __interwork __vfp void Register<1073887280U, 32U, ReadWriteMode, RCC::RCCAHB1ENRBase, RCC_AHB1ENR_GPIOCEN_Values<RCC::AHB1ENR, 2U, 1U, ReadWriteMode, RCC::RCCAHB1ENRBase>::Enable, RCC_AHB1ENR_GPIOBEN_Values<RCC::AHB1ENR, 1U, 1U, ReadWriteMode, RCC::RCCAHB1ENRBase>::Enable, RCC_AHB1ENR_GPIOAEN_Values<RCC::AHB1ENR, 0U, 1U, ReadWriteMode, RCC::RCCAHB1ENRBase>::Enable>::Set<ReadWriteMode, void>()
_ZN8RegisterILj1073887280ELj32E13ReadWriteModeN3RCC14RCCAHB1ENRBaseEJ10FieldValueI26RCC_AHB1ENR_GPIOCEN_ValuesINS1_7AHB1ENRELj2ELj1ES0_S2_ES2_Lj1EvES3_I26RCC_AHB1ENR_GPIOBEN_ValuesIS5_Lj1ELj1ES0_S2_ES2_Lj1EvES3_I26RCC_AHB1ENR_GPIOAEN_ValuesIS5_Lj0ELj1ES0_S2_ES2_Lj1EvEEE3SetIS0_vEEvv:
        LDR.N    R1,??Set_54      ;; 0x40023830
        LDR      R0,[R1, #+0]
        LSRS     R0,R0,#+3
        LSLS     R0,R0,#+3
        ORRS     R0,R0,#0x7
        STR      R0,[R1, #+0]
        BX       LR               ;; return
        DATA
??Set_54:
        DATA32
        DC32     0x40023830
          CFI EndBlock cfiBlock187

        SECTION `.text`:CODE:REORDER:NOROOT(2)
        SECTION_GROUP _ZN8RegisterILj1073874944ELj32E13ReadWriteModeN5GPIOC14GPIOCMODERBaseEJ10FieldValueI26GPIOC_MODER_MODER15_ValuesINS1_5MODERELj4ELj2ES0_S2_ES2_Lj2EvES3_IS4_IS5_Lj6ELj2ES0_S2_ES2_Lj2EvES3_IS4_IS5_Lj14ELj2ES0_S2_ES2_Lj2EvEEE3SetIS0_vEEvv
          CFI Block cfiBlock188 Using cfiCommon0
          CFI Function _ZN8RegisterILj1073874944ELj32E13ReadWriteModeN5GPIOC14GPIOCMODERBaseEJ10FieldValueI26GPIOC_MODER_MODER15_ValuesINS1_5MODERELj4ELj2ES0_S2_ES2_Lj2EvES3_IS4_IS5_Lj6ELj2ES0_S2_ES2_Lj2EvES3_IS4_IS5_Lj14ELj2ES0_S2_ES2_Lj2EvEEE3SetIS0_vEEvv
          CFI NoCalls
        THUMB
// __interwork __vfp void Register<1073874944U, 32U, ReadWriteMode, GPIOC::GPIOCMODERBase, GPIOC_MODER_MODER15_Values<GPIOC::MODER, 4U, 2U, ReadWriteMode, GPIOC::GPIOCMODERBase>::Alternate, GPIOC_MODER_MODER15_Values<GPIOC::MODER, 6U, 2U, ReadWriteMode, GPIOC::GPIOCMODERBase>::Alternate, GPIOC_MODER_MODER15_Values<GPIOC::MODER, 14U, 2U, ReadWriteMode, GPIOC::GPIOCMODERBase>::Alternate>::Set<ReadWriteMode, void>()
_ZN8RegisterILj1073874944ELj32E13ReadWriteModeN5GPIOC14GPIOCMODERBaseEJ10FieldValueI26GPIOC_MODER_MODER15_ValuesINS1_5MODERELj4ELj2ES0_S2_ES2_Lj2EvES3_IS4_IS5_Lj6ELj2ES0_S2_ES2_Lj2EvES3_IS4_IS5_Lj14ELj2ES0_S2_ES2_Lj2EvEEE3SetIS0_vEEvv:
        LDR.N    R2,??Set_55      ;; 0x40020800
        LDR      R1,[R2, #+0]
        LDR.N    R0,??Set_55+0x4  ;; 0xffff3f0f
        ANDS     R1,R0,R1
        ORR      R1,R1,#0x8000
        ORRS     R1,R1,#0xA0
        STR      R1,[R2, #+0]
        BX       LR               ;; return
        DATA
??Set_55:
        DATA32
        DC32     0x40020800
        DC32     0xffff3f0f
          CFI EndBlock cfiBlock188

        SECTION `.text`:CODE:REORDER:NOROOT(2)
        SECTION_GROUP _ZN8RegisterILj1073874976ELj32E13ReadWriteModeN5GPIOC13GPIOCAFRLBaseEJ10FieldValueI23GPIOC_AFRL_AFRL7_ValuesINS1_4AFRLELj8ELj4ES0_S2_ES2_Lj5EvES3_IS4_IS5_Lj12ELj4ES0_S2_ES2_Lj5EvES3_IS4_IS5_Lj28ELj4ES0_S2_ES2_Lj5EvEEE3SetIS0_vEEvv
          CFI Block cfiBlock189 Using cfiCommon0
          CFI Function _ZN8RegisterILj1073874976ELj32E13ReadWriteModeN5GPIOC13GPIOCAFRLBaseEJ10FieldValueI23GPIOC_AFRL_AFRL7_ValuesINS1_4AFRLELj8ELj4ES0_S2_ES2_Lj5EvES3_IS4_IS5_Lj12ELj4ES0_S2_ES2_Lj5EvES3_IS4_IS5_Lj28ELj4ES0_S2_ES2_Lj5EvEEE3SetIS0_vEEvv
          CFI NoCalls
        THUMB
// __interwork __vfp void Register<1073874976U, 32U, ReadWriteMode, GPIOC::GPIOCAFRLBase, GPIOC_AFRL_AFRL7_Values<GPIOC::AFRL, 8U, 4U, ReadWriteMode, GPIOC::GPIOCAFRLBase>::Af5, GPIOC_AFRL_AFRL7_Values<GPIOC::AFRL, 12U, 4U, ReadWriteMode, GPIOC::GPIOCAFRLBase>::Af5, GPIOC_AFRL_AFRL7_Values<GPIOC::AFRL, 28U, 4U, ReadWriteMode, GPIOC::GPIOCAFRLBase>::Af5>::Set<ReadWriteMode, void>()
_ZN8RegisterILj1073874976ELj32E13ReadWriteModeN5GPIOC13GPIOCAFRLBaseEJ10FieldValueI23GPIOC_AFRL_AFRL7_ValuesINS1_4AFRLELj8ELj4ES0_S2_ES2_Lj5EvES3_IS4_IS5_Lj12ELj4ES0_S2_ES2_Lj5EvES3_IS4_IS5_Lj28ELj4ES0_S2_ES2_Lj5EvEEE3SetIS0_vEEvv:
        LDR.N    R2,??Set_56      ;; 0x40020820
        LDR      R1,[R2, #+0]
        LDR.N    R0,??Set_56+0x4  ;; 0xfff00ff
        ANDS     R1,R0,R1
        ORR      R1,R1,#0x50000000
        ORRS     R1,R1,#0x5500
        STR      R1,[R2, #+0]
        BX       LR               ;; return
        DATA
??Set_56:
        DATA32
        DC32     0x40020820
        DC32     0xfff00ff
          CFI EndBlock cfiBlock189

        SECTION `.text`:CODE:REORDER:NOROOT(2)
        SECTION_GROUP _ZN8RegisterILj1073873920ELj32E13ReadWriteModeN5GPIOB14GPIOBMODERBaseEJ10FieldValueI26GPIOB_MODER_MODER15_ValuesINS1_5MODERELj6ELj2ES0_S2_ES2_Lj2EvES3_IS4_IS5_Lj8ELj2ES0_S2_ES2_Lj2EvES3_IS4_IS5_Lj10ELj2ES0_S2_ES2_Lj2EvEEE3SetIS0_vEEvv
          CFI Block cfiBlock190 Using cfiCommon0
          CFI Function _ZN8RegisterILj1073873920ELj32E13ReadWriteModeN5GPIOB14GPIOBMODERBaseEJ10FieldValueI26GPIOB_MODER_MODER15_ValuesINS1_5MODERELj6ELj2ES0_S2_ES2_Lj2EvES3_IS4_IS5_Lj8ELj2ES0_S2_ES2_Lj2EvES3_IS4_IS5_Lj10ELj2ES0_S2_ES2_Lj2EvEEE3SetIS0_vEEvv
          CFI NoCalls
        THUMB
// __interwork __vfp void Register<1073873920U, 32U, ReadWriteMode, GPIOB::GPIOBMODERBase, GPIOB_MODER_MODER15_Values<GPIOB::MODER, 6U, 2U, ReadWriteMode, GPIOB::GPIOBMODERBase>::Alternate, GPIOB_MODER_MODER15_Values<GPIOB::MODER, 8U, 2U, ReadWriteMode, GPIOB::GPIOBMODERBase>::Alternate, GPIOB_MODER_MODER15_Values<GPIOB::MODER, 10U, 2U, ReadWriteMode, GPIOB::GPIOBMODERBase>::Alternate>::Set<ReadWriteMode, void>()
_ZN8RegisterILj1073873920ELj32E13ReadWriteModeN5GPIOB14GPIOBMODERBaseEJ10FieldValueI26GPIOB_MODER_MODER15_ValuesINS1_5MODERELj6ELj2ES0_S2_ES2_Lj2EvES3_IS4_IS5_Lj8ELj2ES0_S2_ES2_Lj2EvES3_IS4_IS5_Lj10ELj2ES0_S2_ES2_Lj2EvEEE3SetIS0_vEEvv:
        LDR.N    R1,??Set_57      ;; 0x40020400
        LDR      R0,[R1, #+0]
        BICS     R0,R0,#0xFC0
        ORRS     R0,R0,#0xA80
        STR      R0,[R1, #+0]
        BX       LR               ;; return
        DATA
??Set_57:
        DATA32
        DC32     0x40020400
          CFI EndBlock cfiBlock190

        SECTION `.text`:CODE:REORDER:NOROOT(2)
        SECTION_GROUP _ZN8RegisterILj1073873952ELj32E13ReadWriteModeN5GPIOB13GPIOBAFRLBaseEJ10FieldValueI23GPIOB_AFRL_AFRL7_ValuesINS1_4AFRLELj12ELj4ES0_S2_ES2_Lj5EvES3_IS4_IS5_Lj16ELj4ES0_S2_ES2_Lj5EvES3_IS4_IS5_Lj20ELj4ES0_S2_ES2_Lj5EvEEE3SetIS0_vEEvv
          CFI Block cfiBlock191 Using cfiCommon0
          CFI Function _ZN8RegisterILj1073873952ELj32E13ReadWriteModeN5GPIOB13GPIOBAFRLBaseEJ10FieldValueI23GPIOB_AFRL_AFRL7_ValuesINS1_4AFRLELj12ELj4ES0_S2_ES2_Lj5EvES3_IS4_IS5_Lj16ELj4ES0_S2_ES2_Lj5EvES3_IS4_IS5_Lj20ELj4ES0_S2_ES2_Lj5EvEEE3SetIS0_vEEvv
          CFI NoCalls
        THUMB
// __interwork __vfp void Register<1073873952U, 32U, ReadWriteMode, GPIOB::GPIOBAFRLBase, GPIOB_AFRL_AFRL7_Values<GPIOB::AFRL, 12U, 4U, ReadWriteMode, GPIOB::GPIOBAFRLBase>::Af5, GPIOB_AFRL_AFRL7_Values<GPIOB::AFRL, 16U, 4U, ReadWriteMode, GPIOB::GPIOBAFRLBase>::Af5, GPIOB_AFRL_AFRL7_Values<GPIOB::AFRL, 20U, 4U, ReadWriteMode, GPIOB::GPIOBAFRLBase>::Af5>::Set<ReadWriteMode, void>()
_ZN8RegisterILj1073873952ELj32E13ReadWriteModeN5GPIOB13GPIOBAFRLBaseEJ10FieldValueI23GPIOB_AFRL_AFRL7_ValuesINS1_4AFRLELj12ELj4ES0_S2_ES2_Lj5EvES3_IS4_IS5_Lj16ELj4ES0_S2_ES2_Lj5EvES3_IS4_IS5_Lj20ELj4ES0_S2_ES2_Lj5EvEEE3SetIS0_vEEvv:
        LDR.N    R1,??Set_58      ;; 0x40020420
        LDR      R0,[R1, #+0]
        BFC      R0,#+12,#+12
        ORR      R0,R0,#0x500000
        ORRS     R0,R0,#0x55000
        STR      R0,[R1, #+0]
        BX       LR               ;; return
        DATA
??Set_58:
        DATA32
        DC32     0x40020420
          CFI EndBlock cfiBlock191

        SECTION `.text`:CODE:REORDER:NOROOT(1)
        SECTION_GROUP _ZN4PortI5GPIOCE6ToggleEh
          CFI Block cfiBlock192 Using cfiCommon0
          CFI Function _ZN4PortI5GPIOCE6ToggleEh
        THUMB
// __interwork __vfp void Port<GPIOC>::Toggle(uint8_t)
_ZN4PortI5GPIOCE6ToggleEh:
        PUSH     {R4,LR}
          CFI R14 Frame(CFA, -4)
          CFI R4 Frame(CFA, -8)
          CFI CFA R13+8
        MOVS     R4,R0
        MOVS     R0,#+1
        LSLS     R0,R0,R4
          CFI FunCall _ZN12RegisterBaseILj1073874964ELj32E13ReadWriteModeE6ToggleIS0_vEEvj
        BL       _ZN12RegisterBaseILj1073874964ELj32E13ReadWriteModeE6ToggleIS0_vEEvj
        POP      {R4,PC}          ;; return
          CFI EndBlock cfiBlock192

        SECTION `.text`:CODE:REORDER:NOROOT(1)
        SECTION_GROUP _ZN4PortI5GPIOAE6ToggleEh
          CFI Block cfiBlock193 Using cfiCommon0
          CFI Function _ZN4PortI5GPIOAE6ToggleEh
        THUMB
// __interwork __vfp void Port<GPIOA>::Toggle(uint8_t)
_ZN4PortI5GPIOAE6ToggleEh:
        PUSH     {R4,LR}
          CFI R14 Frame(CFA, -4)
          CFI R4 Frame(CFA, -8)
          CFI CFA R13+8
        MOVS     R4,R0
        MOVS     R0,#+1
        LSLS     R0,R0,R4
          CFI FunCall _ZN12RegisterBaseILj1073872916ELj32E13ReadWriteModeE6ToggleIS0_vEEvj
        BL       _ZN12RegisterBaseILj1073872916ELj32E13ReadWriteModeE6ToggleIS0_vEEvj
        POP      {R4,PC}          ;; return
          CFI EndBlock cfiBlock193

        SECTION `.text`:CODE:REORDER:NOROOT(1)
        SECTION_GROUP _ZN4PortI5GPIOCE5IsSetEh
          CFI Block cfiBlock194 Using cfiCommon0
          CFI Function _ZN4PortI5GPIOCE5IsSetEh
        THUMB
// __interwork __vfp bool Port<GPIOC>::IsSet(uint8_t)
_ZN4PortI5GPIOCE5IsSetEh:
        PUSH     {R4,LR}
          CFI R14 Frame(CFA, -4)
          CFI R4 Frame(CFA, -8)
          CFI CFA R13+8
        MOVS     R4,R0
          CFI FunCall _ZN12RegisterBaseILj1073874960ELj32E8ReadModeE3GetIS0_vEEjv
        BL       _ZN12RegisterBaseILj1073874960ELj32E8ReadModeE3GetIS0_vEEjv
        LSRS     R0,R0,R4
        ANDS     R0,R0,#0x1
        POP      {R4,PC}          ;; return
          CFI EndBlock cfiBlock194

        SECTION `.text`:CODE:REORDER:NOROOT(1)
        SECTION_GROUP _ZN4PortI5GPIOBE5IsSetEh
          CFI Block cfiBlock195 Using cfiCommon0
          CFI Function _ZN4PortI5GPIOBE5IsSetEh
        THUMB
// __interwork __vfp bool Port<GPIOB>::IsSet(uint8_t)
_ZN4PortI5GPIOBE5IsSetEh:
        PUSH     {R4,LR}
          CFI R14 Frame(CFA, -4)
          CFI R4 Frame(CFA, -8)
          CFI CFA R13+8
        MOVS     R4,R0
          CFI FunCall _ZN12RegisterBaseILj1073873936ELj32E8ReadModeE3GetIS0_vEEjv
        BL       _ZN12RegisterBaseILj1073873936ELj32E8ReadModeE3GetIS0_vEEjv
        LSRS     R0,R0,R4
        ANDS     R0,R0,#0x1
        POP      {R4,PC}          ;; return
          CFI EndBlock cfiBlock195

        SECTION `.text`:CODE:REORDER:NOROOT(1)
        SECTION_GROUP _ZN4PortI5GPIOCE3SetEj
          CFI Block cfiBlock196 Using cfiCommon0
          CFI Function _ZN4PortI5GPIOCE3SetEj
        THUMB
// __interwork __vfp void Port<GPIOC>::Set(uint32_t)
_ZN4PortI5GPIOCE3SetEj:
        PUSH     {R4,LR}
          CFI R14 Frame(CFA, -4)
          CFI R4 Frame(CFA, -8)
          CFI CFA R13+8
        MOVS     R4,R0
        MOVS     R0,R4
          CFI FunCall _ZN12RegisterBaseILj1073874968ELj32E9WriteModeE5WriteIS0_vEEvj
        BL       _ZN12RegisterBaseILj1073874968ELj32E9WriteModeE5WriteIS0_vEEvj
        POP      {R4,PC}          ;; return
          CFI EndBlock cfiBlock196

        SECTION `.text`:CODE:REORDER:NOROOT(1)
        SECTION_GROUP _ZN4PortI5GPIOBE3SetEj
          CFI Block cfiBlock197 Using cfiCommon0
          CFI Function _ZN4PortI5GPIOBE3SetEj
        THUMB
// __interwork __vfp void Port<GPIOB>::Set(uint32_t)
_ZN4PortI5GPIOBE3SetEj:
        PUSH     {R4,LR}
          CFI R14 Frame(CFA, -4)
          CFI R4 Frame(CFA, -8)
          CFI CFA R13+8
        MOVS     R4,R0
        MOVS     R0,R4
          CFI FunCall _ZN12RegisterBaseILj1073873944ELj32E9WriteModeE5WriteIS0_vEEvj
        BL       _ZN12RegisterBaseILj1073873944ELj32E9WriteModeE5WriteIS0_vEEvj
        POP      {R4,PC}          ;; return
          CFI EndBlock cfiBlock197

        SECTION `.text`:CODE:REORDER:NOROOT(1)
        SECTION_GROUP _ZN4PortI5GPIOCE5ResetEj
          CFI Block cfiBlock198 Using cfiCommon0
          CFI Function _ZN4PortI5GPIOCE5ResetEj
        THUMB
// __interwork __vfp void Port<GPIOC>::Reset(uint32_t)
_ZN4PortI5GPIOCE5ResetEj:
        PUSH     {R4,LR}
          CFI R14 Frame(CFA, -4)
          CFI R4 Frame(CFA, -8)
          CFI CFA R13+8
        MOVS     R4,R0
        LSLS     R0,R4,#+16
          CFI FunCall _ZN12RegisterBaseILj1073874968ELj32E9WriteModeE5WriteIS0_vEEvj
        BL       _ZN12RegisterBaseILj1073874968ELj32E9WriteModeE5WriteIS0_vEEvj
        POP      {R4,PC}          ;; return
          CFI EndBlock cfiBlock198

        SECTION `.text`:CODE:REORDER:NOROOT(1)
        SECTION_GROUP _ZN4PortI5GPIOBE5ResetEj
          CFI Block cfiBlock199 Using cfiCommon0
          CFI Function _ZN4PortI5GPIOBE5ResetEj
        THUMB
// __interwork __vfp void Port<GPIOB>::Reset(uint32_t)
_ZN4PortI5GPIOBE5ResetEj:
        PUSH     {R4,LR}
          CFI R14 Frame(CFA, -4)
          CFI R4 Frame(CFA, -8)
          CFI CFA R13+8
        MOVS     R4,R0
        LSLS     R0,R4,#+16
          CFI FunCall _ZN12RegisterBaseILj1073873944ELj32E9WriteModeE5WriteIS0_vEEvj
        BL       _ZN12RegisterBaseILj1073873944ELj32E9WriteModeE5WriteIS0_vEEvj
        POP      {R4,PC}          ;; return
          CFI EndBlock cfiBlock199

        SECTION `.text`:CODE:REORDER:NOROOT(1)
        SECTION_GROUP _ZN4PortI5GPIOCE7ModeSetEh5Moder
          CFI Block cfiBlock200 Using cfiCommon0
          CFI Function _ZN4PortI5GPIOCE7ModeSetEh5Moder
        THUMB
// __interwork __vfp void Port<GPIOC>::ModeSet(uint8_t, Moder)
_ZN4PortI5GPIOCE7ModeSetEh5Moder:
        PUSH     {R4-R6,LR}
          CFI R14 Frame(CFA, -4)
          CFI R6 Frame(CFA, -8)
          CFI R5 Frame(CFA, -12)
          CFI R4 Frame(CFA, -16)
          CFI CFA R13+16
        MOVS     R4,R0
        MOVS     R5,R1
          CFI FunCall _ZN12RegisterBaseILj1073874944ELj32E13ReadWriteModeE3GetIS0_vEEjv
        BL       _ZN12RegisterBaseILj1073874944ELj32E13ReadWriteModeE3GetIS0_vEEjv
        MOVS     R6,R0
        MOVS     R1,#+3
        UXTB     R4,R4            ;; ZeroExt  R4,R4,#+24,#+24
        LSLS     R0,R4,#+1
        LSLS     R1,R1,R0
        BICS     R6,R6,R1
        MOVS     R1,R5
        UXTB     R1,R1            ;; ZeroExt  R1,R1,#+24,#+24
        UXTB     R4,R4            ;; ZeroExt  R4,R4,#+24,#+24
        LSLS     R0,R4,#+1
        LSLS     R1,R1,R0
        ORRS     R6,R1,R6
        MOVS     R0,R6
          CFI FunCall _ZN12RegisterBaseILj1073874944ELj32E13ReadWriteModeE5WriteIS0_vEEvj
        BL       _ZN12RegisterBaseILj1073874944ELj32E13ReadWriteModeE5WriteIS0_vEEvj
        POP      {R4-R6,PC}       ;; return
          CFI EndBlock cfiBlock200

        SECTION `.text`:CODE:REORDER:NOROOT(1)
        SECTION_GROUP _ZN4PortI5GPIOAE7ModeSetEh5Moder
          CFI Block cfiBlock201 Using cfiCommon0
          CFI Function _ZN4PortI5GPIOAE7ModeSetEh5Moder
        THUMB
// __interwork __vfp void Port<GPIOA>::ModeSet(uint8_t, Moder)
_ZN4PortI5GPIOAE7ModeSetEh5Moder:
        PUSH     {R4-R6,LR}
          CFI R14 Frame(CFA, -4)
          CFI R6 Frame(CFA, -8)
          CFI R5 Frame(CFA, -12)
          CFI R4 Frame(CFA, -16)
          CFI CFA R13+16
        MOVS     R4,R0
        MOVS     R5,R1
          CFI FunCall _ZN12RegisterBaseILj1073872896ELj32E13ReadWriteModeE3GetIS0_vEEjv
        BL       _ZN12RegisterBaseILj1073872896ELj32E13ReadWriteModeE3GetIS0_vEEjv
        MOVS     R6,R0
        MOVS     R1,#+3
        UXTB     R4,R4            ;; ZeroExt  R4,R4,#+24,#+24
        LSLS     R0,R4,#+1
        LSLS     R1,R1,R0
        BICS     R6,R6,R1
        MOVS     R1,R5
        UXTB     R1,R1            ;; ZeroExt  R1,R1,#+24,#+24
        UXTB     R4,R4            ;; ZeroExt  R4,R4,#+24,#+24
        LSLS     R0,R4,#+1
        LSLS     R1,R1,R0
        ORRS     R6,R1,R6
        MOVS     R0,R6
          CFI FunCall _ZN12RegisterBaseILj1073872896ELj32E13ReadWriteModeE5WriteIS0_vEEvj
        BL       _ZN12RegisterBaseILj1073872896ELj32E13ReadWriteModeE5WriteIS0_vEEvj
        POP      {R4-R6,PC}       ;; return
          CFI EndBlock cfiBlock201

        SECTION `.text`:CODE:REORDER:NOROOT(1)
        SECTION_GROUP _ZN4PortI5GPIOCE6EnableEv
          CFI Block cfiBlock202 Using cfiCommon0
          CFI Function _ZN4PortI5GPIOCE6EnableEv
        THUMB
// __interwork __vfp void Port<GPIOC>::Enable()
_ZN4PortI5GPIOCE6EnableEv:
        PUSH     {R7,LR}
          CFI R14 Frame(CFA, -4)
          CFI CFA R13+8
          CFI FunCall _ZN14FieldValueBaseI26RCC_AHB1ENR_GPIOCEN_ValuesIN3RCC7AHB1ENRELj2ELj1E13ReadWriteModeNS1_14RCCAHB1ENRBaseEES4_Lj1EE3SetIS3_vEEvv
        BL       _ZN14FieldValueBaseI26RCC_AHB1ENR_GPIOCEN_ValuesIN3RCC7AHB1ENRELj2ELj1E13ReadWriteModeNS1_14RCCAHB1ENRBaseEES4_Lj1EE3SetIS3_vEEvv
        POP      {R0,PC}          ;; return
          CFI EndBlock cfiBlock202

        SECTION `.text`:CODE:REORDER:NOROOT(1)
        SECTION_GROUP _ZN4PortI5GPIOAE6EnableEv
          CFI Block cfiBlock203 Using cfiCommon0
          CFI Function _ZN4PortI5GPIOAE6EnableEv
        THUMB
// __interwork __vfp void Port<GPIOA>::Enable()
_ZN4PortI5GPIOAE6EnableEv:
        PUSH     {R7,LR}
          CFI R14 Frame(CFA, -4)
          CFI CFA R13+8
          CFI FunCall _ZN14FieldValueBaseI26RCC_AHB1ENR_GPIOAEN_ValuesIN3RCC7AHB1ENRELj0ELj1E13ReadWriteModeNS1_14RCCAHB1ENRBaseEES4_Lj1EE3SetIS3_vEEvv
        BL       _ZN14FieldValueBaseI26RCC_AHB1ENR_GPIOAEN_ValuesIN3RCC7AHB1ENRELj0ELj1E13ReadWriteModeNS1_14RCCAHB1ENRBaseEES4_Lj1EE3SetIS3_vEEvv
        POP      {R0,PC}          ;; return
          CFI EndBlock cfiBlock203

        SECTION `.text`:CODE:REORDER:NOROOT(1)
        SECTION_GROUP _ZN4PortI5GPIOCE8IsEnableEv
          CFI Block cfiBlock204 Using cfiCommon0
          CFI Function _ZN4PortI5GPIOCE8IsEnableEv
        THUMB
// __interwork __vfp bool Port<GPIOC>::IsEnable()
_ZN4PortI5GPIOCE8IsEnableEv:
        PUSH     {R7,LR}
          CFI R14 Frame(CFA, -4)
          CFI CFA R13+8
          CFI FunCall _ZN14FieldValueBaseI26RCC_AHB1ENR_GPIOCEN_ValuesIN3RCC7AHB1ENRELj2ELj1E13ReadWriteModeNS1_14RCCAHB1ENRBaseEES4_Lj1EE5IsSetIS3_vEEbv
        BL       _ZN14FieldValueBaseI26RCC_AHB1ENR_GPIOCEN_ValuesIN3RCC7AHB1ENRELj2ELj1E13ReadWriteModeNS1_14RCCAHB1ENRBaseEES4_Lj1EE5IsSetIS3_vEEbv
        POP      {R1,PC}          ;; return
          CFI EndBlock cfiBlock204

        SECTION `.text`:CODE:REORDER:NOROOT(1)
        SECTION_GROUP _ZN4PortI5GPIOAE8IsEnableEv
          CFI Block cfiBlock205 Using cfiCommon0
          CFI Function _ZN4PortI5GPIOAE8IsEnableEv
        THUMB
// __interwork __vfp bool Port<GPIOA>::IsEnable()
_ZN4PortI5GPIOAE8IsEnableEv:
        PUSH     {R7,LR}
          CFI R14 Frame(CFA, -4)
          CFI CFA R13+8
          CFI FunCall _ZN14FieldValueBaseI26RCC_AHB1ENR_GPIOAEN_ValuesIN3RCC7AHB1ENRELj0ELj1E13ReadWriteModeNS1_14RCCAHB1ENRBaseEES4_Lj1EE5IsSetIS3_vEEbv
        BL       _ZN14FieldValueBaseI26RCC_AHB1ENR_GPIOAEN_ValuesIN3RCC7AHB1ENRELj0ELj1E13ReadWriteModeNS1_14RCCAHB1ENRBaseEES4_Lj1EE5IsSetIS3_vEEbv
        POP      {R1,PC}          ;; return
          CFI EndBlock cfiBlock205

        SECTION `.text`:CODE:REORDER:NOROOT(1)
        SECTION_GROUP _ZN3PinI4PortI5GPIOAELh5EE6ToggleEv
          CFI Block cfiBlock206 Using cfiCommon0
          CFI Function _ZN3PinI4PortI5GPIOAELh5EE6ToggleEv
        THUMB
// __interwork __vfp void Pin<PortA, (uint8_t)'\005'>::Toggle()
_ZN3PinI4PortI5GPIOAELh5EE6ToggleEv:
        PUSH     {R7,LR}
          CFI R14 Frame(CFA, -4)
          CFI CFA R13+8
        MOVS     R0,#+5
          CFI FunCall _ZN4PortI5GPIOAE6ToggleEh
        BL       _ZN4PortI5GPIOAE6ToggleEh
        POP      {R0,PC}          ;; return
          CFI EndBlock cfiBlock206

        SECTION `.text`:CODE:REORDER:NOROOT(1)
        SECTION_GROUP _ZN3PinI4PortI5GPIOCELh9EE6ToggleEv
          CFI Block cfiBlock207 Using cfiCommon0
          CFI Function _ZN3PinI4PortI5GPIOCELh9EE6ToggleEv
        THUMB
// __interwork __vfp void Pin<PortC, (uint8_t)'\t'>::Toggle()
_ZN3PinI4PortI5GPIOCELh9EE6ToggleEv:
        PUSH     {R7,LR}
          CFI R14 Frame(CFA, -4)
          CFI CFA R13+8
        MOVS     R0,#+9
          CFI FunCall _ZN4PortI5GPIOCE6ToggleEh
        BL       _ZN4PortI5GPIOCE6ToggleEh
        POP      {R0,PC}          ;; return
          CFI EndBlock cfiBlock207

        SECTION `.text`:CODE:REORDER:NOROOT(1)
        SECTION_GROUP _ZN3PinI4PortI5GPIOCELh6EE3SetEv
          CFI Block cfiBlock208 Using cfiCommon0
          CFI Function _ZN3PinI4PortI5GPIOCELh6EE3SetEv
        THUMB
// __interwork __vfp void Pin<PortC, (uint8_t)'\006'>::Set()
_ZN3PinI4PortI5GPIOCELh6EE3SetEv:
        PUSH     {R7,LR}
          CFI R14 Frame(CFA, -4)
          CFI CFA R13+8
        MOVS     R0,#+64
          CFI FunCall _ZN4PortI5GPIOCE3SetEj
        BL       _ZN4PortI5GPIOCE3SetEj
        POP      {R0,PC}          ;; return
          CFI EndBlock cfiBlock208

        SECTION `.text`:CODE:REORDER:NOROOT(1)
        SECTION_GROUP _ZN3PinI4PortI5GPIOBELh13EE3SetEv
          CFI Block cfiBlock209 Using cfiCommon0
          CFI Function _ZN3PinI4PortI5GPIOBELh13EE3SetEv
        THUMB
// __interwork __vfp void Pin<PortB, (uint8_t)'\r'>::Set()
_ZN3PinI4PortI5GPIOBELh13EE3SetEv:
        PUSH     {R7,LR}
          CFI R14 Frame(CFA, -4)
          CFI CFA R13+8
        MOV      R0,#+8192
          CFI FunCall _ZN4PortI5GPIOBE3SetEj
        BL       _ZN4PortI5GPIOBE3SetEj
        POP      {R0,PC}          ;; return
          CFI EndBlock cfiBlock209

        SECTION `.text`:CODE:REORDER:NOROOT(1)
        SECTION_GROUP _ZN3PinI4PortI5GPIOBELh14EE3SetEv
          CFI Block cfiBlock210 Using cfiCommon0
          CFI Function _ZN3PinI4PortI5GPIOBELh14EE3SetEv
        THUMB
// __interwork __vfp void Pin<PortB, (uint8_t)'\016'>::Set()
_ZN3PinI4PortI5GPIOBELh14EE3SetEv:
        PUSH     {R7,LR}
          CFI R14 Frame(CFA, -4)
          CFI CFA R13+8
        MOV      R0,#+16384
          CFI FunCall _ZN4PortI5GPIOBE3SetEj
        BL       _ZN4PortI5GPIOBE3SetEj
        POP      {R0,PC}          ;; return
          CFI EndBlock cfiBlock210

        SECTION `.text`:CODE:REORDER:NOROOT(1)
        SECTION_GROUP _ZN3PinI4PortI5GPIOBELh15EE3SetEv
          CFI Block cfiBlock211 Using cfiCommon0
          CFI Function _ZN3PinI4PortI5GPIOBELh15EE3SetEv
        THUMB
// __interwork __vfp void Pin<PortB, (uint8_t)'\017'>::Set()
_ZN3PinI4PortI5GPIOBELh15EE3SetEv:
        PUSH     {R7,LR}
          CFI R14 Frame(CFA, -4)
          CFI CFA R13+8
        MOV      R0,#+32768
          CFI FunCall _ZN4PortI5GPIOBE3SetEj
        BL       _ZN4PortI5GPIOBE3SetEj
        POP      {R0,PC}          ;; return
          CFI EndBlock cfiBlock211

        SECTION `.text`:CODE:REORDER:NOROOT(1)
        SECTION_GROUP _ZN3PinI4PortI5GPIOCELh6EE5ResetEv
          CFI Block cfiBlock212 Using cfiCommon0
          CFI Function _ZN3PinI4PortI5GPIOCELh6EE5ResetEv
        THUMB
// __interwork __vfp void Pin<PortC, (uint8_t)'\006'>::Reset()
_ZN3PinI4PortI5GPIOCELh6EE5ResetEv:
        PUSH     {R7,LR}
          CFI R14 Frame(CFA, -4)
          CFI CFA R13+8
        MOVS     R0,#+64
          CFI FunCall _ZN4PortI5GPIOCE5ResetEj
        BL       _ZN4PortI5GPIOCE5ResetEj
        POP      {R0,PC}          ;; return
          CFI EndBlock cfiBlock212

        SECTION `.text`:CODE:REORDER:NOROOT(1)
        SECTION_GROUP _ZN3PinI4PortI5GPIOBELh13EE5ResetEv
          CFI Block cfiBlock213 Using cfiCommon0
          CFI Function _ZN3PinI4PortI5GPIOBELh13EE5ResetEv
        THUMB
// __interwork __vfp void Pin<PortB, (uint8_t)'\r'>::Reset()
_ZN3PinI4PortI5GPIOBELh13EE5ResetEv:
        PUSH     {R7,LR}
          CFI R14 Frame(CFA, -4)
          CFI CFA R13+8
        MOV      R0,#+8192
          CFI FunCall _ZN4PortI5GPIOBE5ResetEj
        BL       _ZN4PortI5GPIOBE5ResetEj
        POP      {R0,PC}          ;; return
          CFI EndBlock cfiBlock213

        SECTION `.text`:CODE:REORDER:NOROOT(1)
        SECTION_GROUP _ZN3PinI4PortI5GPIOBELh14EE5ResetEv
          CFI Block cfiBlock214 Using cfiCommon0
          CFI Function _ZN3PinI4PortI5GPIOBELh14EE5ResetEv
        THUMB
// __interwork __vfp void Pin<PortB, (uint8_t)'\016'>::Reset()
_ZN3PinI4PortI5GPIOBELh14EE5ResetEv:
        PUSH     {R7,LR}
          CFI R14 Frame(CFA, -4)
          CFI CFA R13+8
        MOV      R0,#+16384
          CFI FunCall _ZN4PortI5GPIOBE5ResetEj
        BL       _ZN4PortI5GPIOBE5ResetEj
        POP      {R0,PC}          ;; return
          CFI EndBlock cfiBlock214

        SECTION `.text`:CODE:REORDER:NOROOT(1)
        SECTION_GROUP _ZN3PinI4PortI5GPIOBELh15EE5ResetEv
          CFI Block cfiBlock215 Using cfiCommon0
          CFI Function _ZN3PinI4PortI5GPIOBELh15EE5ResetEv
        THUMB
// __interwork __vfp void Pin<PortB, (uint8_t)'\017'>::Reset()
_ZN3PinI4PortI5GPIOBELh15EE5ResetEv:
        PUSH     {R7,LR}
          CFI R14 Frame(CFA, -4)
          CFI CFA R13+8
        MOV      R0,#+32768
          CFI FunCall _ZN4PortI5GPIOBE5ResetEj
        BL       _ZN4PortI5GPIOBE5ResetEj
        POP      {R0,PC}          ;; return
          CFI EndBlock cfiBlock215

        SECTION `.text`:CODE:REORDER:NOROOT(1)
        SECTION_GROUP _ZN3PinI4PortI5GPIOCELh13EE5IsSetEv
          CFI Block cfiBlock216 Using cfiCommon0
          CFI Function _ZN3PinI4PortI5GPIOCELh13EE5IsSetEv
        THUMB
// __interwork __vfp bool Pin<PortC, (uint8_t)'\r'>::IsSet()
_ZN3PinI4PortI5GPIOCELh13EE5IsSetEv:
        PUSH     {R7,LR}
          CFI R14 Frame(CFA, -4)
          CFI CFA R13+8
        MOVS     R0,#+13
          CFI FunCall _ZN4PortI5GPIOCE5IsSetEh
        BL       _ZN4PortI5GPIOCE5IsSetEh
        POP      {R1,PC}          ;; return
          CFI EndBlock cfiBlock216

        SECTION `.text`:CODE:REORDER:NOROOT(1)
        SECTION_GROUP _ZN3PinI4PortI5GPIOBELh1EE5IsSetEv
          CFI Block cfiBlock217 Using cfiCommon0
          CFI Function _ZN3PinI4PortI5GPIOBELh1EE5IsSetEv
        THUMB
// __interwork __vfp bool Pin<PortB, (uint8_t)'\001'>::IsSet()
_ZN3PinI4PortI5GPIOBELh1EE5IsSetEv:
        PUSH     {R7,LR}
          CFI R14 Frame(CFA, -4)
          CFI CFA R13+8
        MOVS     R0,#+1
          CFI FunCall _ZN4PortI5GPIOBE5IsSetEh
        BL       _ZN4PortI5GPIOBE5IsSetEh
        POP      {R1,PC}          ;; return
          CFI EndBlock cfiBlock217

        SECTION `.text`:CODE:REORDER:NOROOT(1)
        SECTION_GROUP _ZN3PinI4PortI5GPIOAELh5EE6EnableEv
          CFI Block cfiBlock218 Using cfiCommon0
          CFI Function _ZN3PinI4PortI5GPIOAELh5EE6EnableEv
        THUMB
// __interwork __vfp void Pin<PortA, (uint8_t)'\005'>::Enable()
_ZN3PinI4PortI5GPIOAELh5EE6EnableEv:
        PUSH     {R7,LR}
          CFI R14 Frame(CFA, -4)
          CFI CFA R13+8
          CFI FunCall _ZN4PortI5GPIOAE8IsEnableEv
        BL       _ZN4PortI5GPIOAE8IsEnableEv
        CMP      R0,#+0
        BNE.N    ??Enable_0
          CFI FunCall _ZN4PortI5GPIOAE6EnableEv
        BL       _ZN4PortI5GPIOAE6EnableEv
??Enable_0:
        POP      {R0,PC}          ;; return
          CFI EndBlock cfiBlock218

        SECTION `.text`:CODE:REORDER:NOROOT(1)
        SECTION_GROUP _ZN3PinI4PortI5GPIOCELh9EE6EnableEv
          CFI Block cfiBlock219 Using cfiCommon0
          CFI Function _ZN3PinI4PortI5GPIOCELh9EE6EnableEv
        THUMB
// __interwork __vfp void Pin<PortC, (uint8_t)'\t'>::Enable()
_ZN3PinI4PortI5GPIOCELh9EE6EnableEv:
        PUSH     {R7,LR}
          CFI R14 Frame(CFA, -4)
          CFI CFA R13+8
          CFI FunCall _ZN4PortI5GPIOCE8IsEnableEv
        BL       _ZN4PortI5GPIOCE8IsEnableEv
        CMP      R0,#+0
        BNE.N    ??Enable_1
          CFI FunCall _ZN4PortI5GPIOCE6EnableEv
        BL       _ZN4PortI5GPIOCE6EnableEv
??Enable_1:
        POP      {R0,PC}          ;; return
          CFI EndBlock cfiBlock219

        SECTION `.text`:CODE:REORDER:NOROOT(1)
        SECTION_GROUP _ZN3PinI4PortI5GPIOCELh13EE6EnableEv
          CFI Block cfiBlock220 Using cfiCommon0
          CFI Function _ZN3PinI4PortI5GPIOCELh13EE6EnableEv
        THUMB
// __interwork __vfp void Pin<PortC, (uint8_t)'\r'>::Enable()
_ZN3PinI4PortI5GPIOCELh13EE6EnableEv:
        PUSH     {R7,LR}
          CFI R14 Frame(CFA, -4)
          CFI CFA R13+8
          CFI FunCall _ZN4PortI5GPIOCE8IsEnableEv
        BL       _ZN4PortI5GPIOCE8IsEnableEv
        CMP      R0,#+0
        BNE.N    ??Enable_2
          CFI FunCall _ZN4PortI5GPIOCE6EnableEv
        BL       _ZN4PortI5GPIOCE6EnableEv
??Enable_2:
        POP      {R0,PC}          ;; return
          CFI EndBlock cfiBlock220

        SECTION `.text`:CODE:REORDER:NOROOT(1)
        SECTION_GROUP _ZN3PinI4PortI5GPIOCELh13EE15SelectInputModeEv
          CFI Block cfiBlock221 Using cfiCommon0
          CFI Function _ZN3PinI4PortI5GPIOCELh13EE15SelectInputModeEv
        THUMB
// __interwork __vfp void Pin<PortC, (uint8_t)'\r'>::SelectInputMode()
_ZN3PinI4PortI5GPIOCELh13EE15SelectInputModeEv:
        PUSH     {R7,LR}
          CFI R14 Frame(CFA, -4)
          CFI CFA R13+8
        MOVS     R1,#+0
        MOVS     R0,#+13
          CFI FunCall _ZN4PortI5GPIOCE7ModeSetEh5Moder
        BL       _ZN4PortI5GPIOCE7ModeSetEh5Moder
        POP      {R0,PC}          ;; return
          CFI EndBlock cfiBlock221

        SECTION `.text`:CODE:REORDER:NOROOT(1)
        SECTION_GROUP _ZN3PinI4PortI5GPIOAELh5EE16SelectOutputModeEv
          CFI Block cfiBlock222 Using cfiCommon0
          CFI Function _ZN3PinI4PortI5GPIOAELh5EE16SelectOutputModeEv
        THUMB
// __interwork __vfp void Pin<PortA, (uint8_t)'\005'>::SelectOutputMode()
_ZN3PinI4PortI5GPIOAELh5EE16SelectOutputModeEv:
        PUSH     {R7,LR}
          CFI R14 Frame(CFA, -4)
          CFI CFA R13+8
        MOVS     R1,#+1
        MOVS     R0,#+5
          CFI FunCall _ZN4PortI5GPIOAE7ModeSetEh5Moder
        BL       _ZN4PortI5GPIOAE7ModeSetEh5Moder
        POP      {R0,PC}          ;; return
          CFI EndBlock cfiBlock222

        SECTION `.text`:CODE:REORDER:NOROOT(1)
        SECTION_GROUP _ZN3PinI4PortI5GPIOCELh9EE16SelectOutputModeEv
          CFI Block cfiBlock223 Using cfiCommon0
          CFI Function _ZN3PinI4PortI5GPIOCELh9EE16SelectOutputModeEv
        THUMB
// __interwork __vfp void Pin<PortC, (uint8_t)'\t'>::SelectOutputMode()
_ZN3PinI4PortI5GPIOCELh9EE16SelectOutputModeEv:
        PUSH     {R7,LR}
          CFI R14 Frame(CFA, -4)
          CFI CFA R13+8
        MOVS     R1,#+1
        MOVS     R0,#+9
          CFI FunCall _ZN4PortI5GPIOCE7ModeSetEh5Moder
        BL       _ZN4PortI5GPIOCE7ModeSetEh5Moder
        POP      {R0,PC}          ;; return
          CFI EndBlock cfiBlock223

        SECTION `.text`:CODE:REORDER:NOROOT(1)
        SECTION_GROUP _ZN3LedI3PinI4PortI5GPIOAELh5EEE6ToggleEv
          CFI Block cfiBlock224 Using cfiCommon0
          CFI Function _ZN3LedI3PinI4PortI5GPIOAELh5EEE6ToggleEv
        THUMB
// __interwork __vfp void Led<PinLed1>::Toggle()
_ZN3LedI3PinI4PortI5GPIOAELh5EEE6ToggleEv:
        PUSH     {R7,LR}
          CFI R14 Frame(CFA, -4)
          CFI CFA R13+8
          CFI FunCall _ZN3PinI4PortI5GPIOAELh5EE6ToggleEv
        BL       _ZN3PinI4PortI5GPIOAELh5EE6ToggleEv
        POP      {R0,PC}          ;; return
          CFI EndBlock cfiBlock224

        SECTION `.text`:CODE:REORDER:NOROOT(1)
        SECTION_GROUP _ZN3LedI3PinI4PortI5GPIOCELh9EEE6ToggleEv
          CFI Block cfiBlock225 Using cfiCommon0
          CFI Function _ZN3LedI3PinI4PortI5GPIOCELh9EEE6ToggleEv
        THUMB
// __interwork __vfp void Led<PinLed2>::Toggle()
_ZN3LedI3PinI4PortI5GPIOCELh9EEE6ToggleEv:
        PUSH     {R7,LR}
          CFI R14 Frame(CFA, -4)
          CFI CFA R13+8
          CFI FunCall _ZN3PinI4PortI5GPIOCELh9EE6ToggleEv
        BL       _ZN3PinI4PortI5GPIOCELh9EE6ToggleEv
        POP      {R0,PC}          ;; return
          CFI EndBlock cfiBlock225

        SECTION `.text`:CODE:REORDER:NOROOT(1)
        SECTION_GROUP _ZN3LedI3PinI4PortI5GPIOAELh5EEE6EnableEv
          CFI Block cfiBlock226 Using cfiCommon0
          CFI Function _ZN3LedI3PinI4PortI5GPIOAELh5EEE6EnableEv
        THUMB
// __interwork __vfp void Led<PinLed1>::Enable()
_ZN3LedI3PinI4PortI5GPIOAELh5EEE6EnableEv:
        PUSH     {R7,LR}
          CFI R14 Frame(CFA, -4)
          CFI CFA R13+8
          CFI FunCall _ZN3PinI4PortI5GPIOAELh5EE6EnableEv
        BL       _ZN3PinI4PortI5GPIOAELh5EE6EnableEv
          CFI FunCall _ZN3PinI4PortI5GPIOAELh5EE16SelectOutputModeEv
        BL       _ZN3PinI4PortI5GPIOAELh5EE16SelectOutputModeEv
        POP      {R0,PC}          ;; return
          CFI EndBlock cfiBlock226

        SECTION `.text`:CODE:REORDER:NOROOT(1)
        SECTION_GROUP _ZN3LedI3PinI4PortI5GPIOCELh9EEE6EnableEv
          CFI Block cfiBlock227 Using cfiCommon0
          CFI Function _ZN3LedI3PinI4PortI5GPIOCELh9EEE6EnableEv
        THUMB
// __interwork __vfp void Led<PinLed2>::Enable()
_ZN3LedI3PinI4PortI5GPIOCELh9EEE6EnableEv:
        PUSH     {R7,LR}
          CFI R14 Frame(CFA, -4)
          CFI CFA R13+8
          CFI FunCall _ZN3PinI4PortI5GPIOCELh9EE6EnableEv
        BL       _ZN3PinI4PortI5GPIOCELh9EE6EnableEv
          CFI FunCall _ZN3PinI4PortI5GPIOCELh9EE16SelectOutputModeEv
        BL       _ZN3PinI4PortI5GPIOCELh9EE16SelectOutputModeEv
        POP      {R0,PC}          ;; return
          CFI EndBlock cfiBlock227

        SECTION `.text`:CODE:REORDER:NOROOT(1)
        SECTION_GROUP _ZN6ButtonI3PinI4PortI5GPIOCELh13EEE10WasPressedEv
          CFI Block cfiBlock228 Using cfiCommon0
          CFI Function _ZN6ButtonI3PinI4PortI5GPIOCELh13EEE10WasPressedEv
        THUMB
// __interwork __vfp bool Button<PinButton>::WasPressed()
_ZN6ButtonI3PinI4PortI5GPIOCELh13EEE10WasPressedEv:
        PUSH     {R7,LR}
          CFI R14 Frame(CFA, -4)
          CFI CFA R13+8
          CFI FunCall _ZN3PinI4PortI5GPIOCELh13EE5IsSetEv
        BL       _ZN3PinI4PortI5GPIOCELh13EE5IsSetEv
        CMP      R0,#+0
        BNE.N    ??WasPressed_0
??WasPressed_1:
          CFI FunCall _ZN3PinI4PortI5GPIOCELh13EE5IsSetEv
        BL       _ZN3PinI4PortI5GPIOCELh13EE5IsSetEv
        CMP      R0,#+0
        BEQ.N    ??WasPressed_1
        MOVS     R0,#+1
        B.N      ??WasPressed_2
??WasPressed_0:
        MOVS     R0,#+0
??WasPressed_2:
        POP      {R1,PC}          ;; return
          CFI EndBlock cfiBlock228

        SECTION `.text`:CODE:REORDER:NOROOT(1)
        SECTION_GROUP _ZN6ButtonI3PinI4PortI5GPIOCELh13EEE6EnableEv
          CFI Block cfiBlock229 Using cfiCommon0
          CFI Function _ZN6ButtonI3PinI4PortI5GPIOCELh13EEE6EnableEv
        THUMB
// __interwork __vfp void Button<PinButton>::Enable()
_ZN6ButtonI3PinI4PortI5GPIOCELh13EEE6EnableEv:
        PUSH     {R7,LR}
          CFI R14 Frame(CFA, -4)
          CFI CFA R13+8
          CFI FunCall _ZN3PinI4PortI5GPIOCELh13EE6EnableEv
        BL       _ZN3PinI4PortI5GPIOCELh13EE6EnableEv
          CFI FunCall _ZN3PinI4PortI5GPIOCELh13EE15SelectInputModeEv
        BL       _ZN3PinI4PortI5GPIOCELh13EE15SelectInputModeEv
        POP      {R0,PC}          ;; return
          CFI EndBlock cfiBlock229

        SECTION `.text`:CODE:REORDER:NOROOT(1)
        SECTION_GROUP _ZN5USARTI6USART2L_Z20bluetoothTransceiverEE8SendByteEh
          CFI Block cfiBlock230 Using cfiCommon0
          CFI Function _ZN5USARTI6USART2L_Z20bluetoothTransceiverEE8SendByteEh
        THUMB
// __interwork __vfp void USART<USART2, bluetoothTransceiver>::SendByte(uint8_t)
_ZN5USARTI6USART2L_Z20bluetoothTransceiverEE8SendByteEh:
        PUSH     {R4,LR}
          CFI R14 Frame(CFA, -4)
          CFI R4 Frame(CFA, -8)
          CFI CFA R13+8
        MOVS     R4,R0
        MOVS     R0,R4
        UXTB     R0,R0            ;; ZeroExt  R0,R0,#+24,#+24
          CFI FunCall _ZN12RegisterBaseILj1073759236ELj32E13ReadWriteModeE5WriteIS0_vEEvj
        BL       _ZN12RegisterBaseILj1073759236ELj32E13ReadWriteModeE5WriteIS0_vEEvj
        POP      {R4,PC}          ;; return
          CFI EndBlock cfiBlock230

        SECTION `.text`:CODE:REORDER:NOROOT(1)
        SECTION_GROUP _ZN5USARTI6USART2L_Z20bluetoothTransceiverEE15TransmiteEnableEv
          CFI Block cfiBlock231 Using cfiCommon0
          CFI Function _ZN5USARTI6USART2L_Z20bluetoothTransceiverEE15TransmiteEnableEv
        THUMB
// __interwork __vfp void USART<USART2, bluetoothTransceiver>::TransmiteEnable()
_ZN5USARTI6USART2L_Z20bluetoothTransceiverEE15TransmiteEnableEv:
        PUSH     {R7,LR}
          CFI R14 Frame(CFA, -4)
          CFI CFA R13+8
          CFI FunCall _ZN14FieldValueBaseI20USART2_CR1_TE_ValuesIN6USART23CR1ELj3ELj1E13ReadWriteModeNS1_13USART2CR1BaseEES4_Lj1EE3SetIS3_vEEvv
        BL       _ZN14FieldValueBaseI20USART2_CR1_TE_ValuesIN6USART23CR1ELj3ELj1E13ReadWriteModeNS1_13USART2CR1BaseEES4_Lj1EE3SetIS3_vEEvv
        POP      {R0,PC}          ;; return
          CFI EndBlock cfiBlock231

        SECTION `.text`:CODE:REORDER:NOROOT(1)
        SECTION_GROUP _ZN5USARTI6USART2L_Z20bluetoothTransceiverEE32TransmiteBufEmptyInterruptEnableEv
          CFI Block cfiBlock232 Using cfiCommon0
          CFI Function _ZN5USARTI6USART2L_Z20bluetoothTransceiverEE32TransmiteBufEmptyInterruptEnableEv
        THUMB
// __interwork __vfp void USART<USART2, bluetoothTransceiver>::TransmiteBufEmptyInterruptEnable()
_ZN5USARTI6USART2L_Z20bluetoothTransceiverEE32TransmiteBufEmptyInterruptEnableEv:
        PUSH     {R7,LR}
          CFI R14 Frame(CFA, -4)
          CFI CFA R13+8
          CFI FunCall _ZN14FieldValueBaseI23USART2_CR1_TXEIE_ValuesIN6USART23CR1ELj7ELj1E13ReadWriteModeNS1_13USART2CR1BaseEES4_Lj1EE3SetIS3_vEEvv
        BL       _ZN14FieldValueBaseI23USART2_CR1_TXEIE_ValuesIN6USART23CR1ELj7ELj1E13ReadWriteModeNS1_13USART2CR1BaseEES4_Lj1EE3SetIS3_vEEvv
        POP      {R0,PC}          ;; return
          CFI EndBlock cfiBlock232

        SECTION `.text`:CODE:REORDER:NOROOT(1)
        SECTION_GROUP _ZN11usartDriverI6usart2EC1Ev
          CFI Block cfiBlock233 Using cfiCommon0
          CFI Function _ZN11usartDriverI6usart2EC1Ev
          CFI NoCalls
        THUMB
// __code __interwork __vfp usartDriver<usart2>::usartDriver()
_ZN11usartDriverI6usart2EC1Ev:
        MOVS     R1,#+0
        STR      R1,[R0, #+2048]
        MOVS     R1,#+0
        STR      R1,[R0, #+2052]
        MOVS     R1,#+0
        STRB     R1,[R0, #+2056]
        MOVS     R1,#+0
        STRB     R1,[R0, #+2057]
        MOVS     R1,#+63
        STRB     R1,[R0, #+2058]
        MOVS     R1,#+0
        STR      R1,[R0, #+2060]
        MOVS     R1,#+0
        STR      R1,[R0, #+2064]
        BX       LR               ;; return
          CFI EndBlock cfiBlock233

        SECTION `.text`:CODE:REORDER:NOROOT(1)
        SECTION_GROUP _ZN11usartDriverI6usart2E11SendMessageEPcj
          CFI Block cfiBlock234 Using cfiCommon0
          CFI Function _ZN11usartDriverI6usart2E11SendMessageEPcj
        THUMB
// __interwork __vfp void usartDriver<usart2>::SendMessage(char *, uint32_t)
_ZN11usartDriverI6usart2E11SendMessageEPcj:
        PUSH     {R4-R10,LR}
          CFI R14 Frame(CFA, -4)
          CFI R10 Frame(CFA, -8)
          CFI R9 Frame(CFA, -12)
          CFI R8 Frame(CFA, -16)
          CFI R7 Frame(CFA, -20)
          CFI R6 Frame(CFA, -24)
          CFI R5 Frame(CFA, -28)
          CFI R4 Frame(CFA, -32)
          CFI CFA R13+32
        MOVS     R4,R0
        MOVS     R5,R1
        MOVS     R6,R2
        MOVS     R7,R6
        MOVS     R0,R4
          CFI FunCall _ZNKSt5arrayIcLj1024EE4sizeEv
        BL       _ZNKSt5arrayIcLj1024EE4sizeEv
        CMP      R0,R7
        BCS.N    ??SendMessage_0
        MOVS     R0,R4
          CFI FunCall _ZNKSt5arrayIcLj1024EE4sizeEv
        BL       _ZNKSt5arrayIcLj1024EE4sizeEv
        MOVS     R7,R0
??SendMessage_0:
        STR      R7,[R4, #+2048]
        MOVS     R0,R4
          CFI FunCall _ZNSt5arrayIcLj1024EE4dataEv
        BL       _ZNSt5arrayIcLj1024EE4dataEv
        MOV      R10,R0
        MOV      R8,R7
        MOV      R9,R5
        MOV      R2,R8
        MOV      R1,R9
        MOV      R0,R10
          CFI FunCall __aeabi_memcpy
        BL       __aeabi_memcpy
          CFI FunCall _ZN5USARTI6USART2L_Z20bluetoothTransceiverEE15TransmiteEnableEv
        BL       _ZN5USARTI6USART2L_Z20bluetoothTransceiverEE15TransmiteEnableEv
          CFI FunCall _ZN5USARTI6USART2L_Z20bluetoothTransceiverEE32TransmiteBufEmptyInterruptEnableEv
        BL       _ZN5USARTI6USART2L_Z20bluetoothTransceiverEE32TransmiteBufEmptyInterruptEnableEv
        MOVS     R1,#+0
        MOVS     R0,R4
          CFI FunCall _ZNSt5arrayIcLj1024EEixEj
        BL       _ZNSt5arrayIcLj1024EEixEj
        LDRB     R0,[R0, #+0]
          CFI FunCall _ZN5USARTI6USART2L_Z20bluetoothTransceiverEE8SendByteEh
        BL       _ZN5USARTI6USART2L_Z20bluetoothTransceiverEE8SendByteEh
        MOVS     R0,#+0
        STRB     R0,[R4, #+2057]
        POP      {R4-R10,PC}      ;; return
          CFI EndBlock cfiBlock234

        SECTION `.text`:CODE:REORDER:NOROOT(1)
        SECTION_GROUP _ZN3SPII4SPI2L_Z15spi2TransceiverEE32TransmiteBufEmptyInterruptEnableEv
          CFI Block cfiBlock235 Using cfiCommon0
          CFI Function _ZN3SPII4SPI2L_Z15spi2TransceiverEE32TransmiteBufEmptyInterruptEnableEv
        THUMB
// __interwork __vfp void SPI<SPI2, spi2Transceiver>::TransmiteBufEmptyInterruptEnable()
_ZN3SPII4SPI2L_Z15spi2TransceiverEE32TransmiteBufEmptyInterruptEnableEv:
        PUSH     {R7,LR}
          CFI R14 Frame(CFA, -4)
          CFI CFA R13+8
          CFI FunCall _ZN14FieldValueBaseI21SPI2_CR2_TXEIE_ValuesIN4SPI23CR2ELj7ELj1E13ReadWriteModeNS1_11SPI2CR2BaseEES4_Lj1EE3SetIS3_vEEvv
        BL       _ZN14FieldValueBaseI21SPI2_CR2_TXEIE_ValuesIN4SPI23CR2ELj7ELj1E13ReadWriteModeNS1_11SPI2CR2BaseEES4_Lj1EE3SetIS3_vEEvv
        POP      {R0,PC}          ;; return
          CFI EndBlock cfiBlock235

        SECTION `.text`:CODE:REORDER:NOROOT(1)
        SECTION_GROUP _ZN3SPII4SPI1L_Z15spi1TransceiverEE32TransmiteBufEmptyInterruptEnableEv
          CFI Block cfiBlock236 Using cfiCommon0
          CFI Function _ZN3SPII4SPI1L_Z15spi1TransceiverEE32TransmiteBufEmptyInterruptEnableEv
        THUMB
// __interwork __vfp void SPI<SPI1, spi1Transceiver>::TransmiteBufEmptyInterruptEnable()
_ZN3SPII4SPI1L_Z15spi1TransceiverEE32TransmiteBufEmptyInterruptEnableEv:
        PUSH     {R7,LR}
          CFI R14 Frame(CFA, -4)
          CFI CFA R13+8
          CFI FunCall _ZN14FieldValueBaseI21SPI1_CR2_TXEIE_ValuesIN4SPI13CR2ELj7ELj1E13ReadWriteModeNS1_11SPI1CR2BaseEES4_Lj1EE3SetIS3_vEEvv
        BL       _ZN14FieldValueBaseI21SPI1_CR2_TXEIE_ValuesIN4SPI13CR2ELj7ELj1E13ReadWriteModeNS1_11SPI1CR2BaseEES4_Lj1EE3SetIS3_vEEvv
        POP      {R0,PC}          ;; return
          CFI EndBlock cfiBlock236

        SECTION `.text`:CODE:REORDER:NOROOT(1)
        SECTION_GROUP _ZN3SPII4SPI2L_Z15spi2TransceiverEE33ReceiveBufNotEmptyInterruptEnableEv
          CFI Block cfiBlock237 Using cfiCommon0
          CFI Function _ZN3SPII4SPI2L_Z15spi2TransceiverEE33ReceiveBufNotEmptyInterruptEnableEv
        THUMB
// __interwork __vfp void SPI<SPI2, spi2Transceiver>::ReceiveBufNotEmptyInterruptEnable()
_ZN3SPII4SPI2L_Z15spi2TransceiverEE33ReceiveBufNotEmptyInterruptEnableEv:
        PUSH     {R7,LR}
          CFI R14 Frame(CFA, -4)
          CFI CFA R13+8
          CFI FunCall _ZN14FieldValueBaseI22SPI2_CR2_RXNEIE_ValuesIN4SPI23CR2ELj6ELj1E13ReadWriteModeNS1_11SPI2CR2BaseEES4_Lj1EE3SetIS3_vEEvv
        BL       _ZN14FieldValueBaseI22SPI2_CR2_RXNEIE_ValuesIN4SPI23CR2ELj6ELj1E13ReadWriteModeNS1_11SPI2CR2BaseEES4_Lj1EE3SetIS3_vEEvv
        POP      {R0,PC}          ;; return
          CFI EndBlock cfiBlock237

        SECTION `.text`:CODE:REORDER:NOROOT(1)
        SECTION_GROUP _ZN3SPII4SPI1L_Z15spi1TransceiverEE33ReceiveBufNotEmptyInterruptEnableEv
          CFI Block cfiBlock238 Using cfiCommon0
          CFI Function _ZN3SPII4SPI1L_Z15spi1TransceiverEE33ReceiveBufNotEmptyInterruptEnableEv
        THUMB
// __interwork __vfp void SPI<SPI1, spi1Transceiver>::ReceiveBufNotEmptyInterruptEnable()
_ZN3SPII4SPI1L_Z15spi1TransceiverEE33ReceiveBufNotEmptyInterruptEnableEv:
        PUSH     {R7,LR}
          CFI R14 Frame(CFA, -4)
          CFI CFA R13+8
          CFI FunCall _ZN14FieldValueBaseI22SPI1_CR2_RXNEIE_ValuesIN4SPI13CR2ELj6ELj1E13ReadWriteModeNS1_11SPI1CR2BaseEES4_Lj1EE3SetIS3_vEEvv
        BL       _ZN14FieldValueBaseI22SPI1_CR2_RXNEIE_ValuesIN4SPI13CR2ELj6ELj1E13ReadWriteModeNS1_11SPI1CR2BaseEES4_Lj1EE3SetIS3_vEEvv
        POP      {R0,PC}          ;; return
          CFI EndBlock cfiBlock238

        SECTION `.text`:CODE:REORDER:NOROOT(1)
        SECTION_GROUP _ZN9SpiDriverI4spi2E11SendMessageEPcj
          CFI Block cfiBlock239 Using cfiCommon0
          CFI Function _ZN9SpiDriverI4spi2E11SendMessageEPcj
        THUMB
// __interwork __vfp void SpiDriver<spi2>::SendMessage(char *, size_t)
_ZN9SpiDriverI4spi2E11SendMessageEPcj:
        PUSH     {R4-R10,LR}
          CFI R14 Frame(CFA, -4)
          CFI R10 Frame(CFA, -8)
          CFI R9 Frame(CFA, -12)
          CFI R8 Frame(CFA, -16)
          CFI R7 Frame(CFA, -20)
          CFI R6 Frame(CFA, -24)
          CFI R5 Frame(CFA, -28)
          CFI R4 Frame(CFA, -32)
          CFI CFA R13+32
        MOVS     R4,R0
        MOVS     R5,R1
        MOVS     R6,R2
        MOVS     R0,#+0
        STRB     R0,[R4, #+409]
        MOVS     R7,R6
        MOVS     R0,R4
          CFI FunCall _ZNKSt5arrayIcLj200EE4sizeEv
        BL       _ZNKSt5arrayIcLj200EE4sizeEv
        CMP      R0,R7
        BCS.N    ??SendMessage_1
        MOVS     R0,R4
          CFI FunCall _ZNKSt5arrayIcLj200EE4sizeEv
        BL       _ZNKSt5arrayIcLj200EE4sizeEv
        MOVS     R7,R0
??SendMessage_1:
        STR      R7,[R4, #+400]
        MOVS     R0,R4
          CFI FunCall _ZNSt5arrayIcLj200EE4dataEv
        BL       _ZNSt5arrayIcLj200EE4dataEv
        MOV      R8,R0
        LDR      R9,[R4, #+400]
        MOV      R10,R5
        MOV      R2,R9
        MOV      R1,R10
        MOV      R0,R8
          CFI FunCall __aeabi_memcpy
        BL       __aeabi_memcpy
        LDR      R0,[R4, #+404]
        CMP      R0,#+0
        BNE.N    ??SendMessage_2
        MOVS     R0,#+1
        B.N      ??SendMessage_3
??SendMessage_2:
        MOVS     R0,#+0
??SendMessage_3:
        STRB     R0,[R4, #+408]
        LDR      R0,[R4, #+404]
        CMP      R0,#+0
        BEQ.N    ??SendMessage_4
          CFI FunCall _ZN3SPII4SPI2L_Z15spi2TransceiverEE33ReceiveBufNotEmptyInterruptEnableEv
        BL       _ZN3SPII4SPI2L_Z15spi2TransceiverEE33ReceiveBufNotEmptyInterruptEnableEv
??SendMessage_4:
          CFI FunCall _ZN3SPII4SPI2L_Z15spi2TransceiverEE32TransmiteBufEmptyInterruptEnableEv
        BL       _ZN3SPII4SPI2L_Z15spi2TransceiverEE32TransmiteBufEmptyInterruptEnableEv
        POP      {R4-R10,PC}      ;; return
          CFI EndBlock cfiBlock239

        SECTION `.text`:CODE:REORDER:NOROOT(1)
        SECTION_GROUP _ZN9SpiDriverI4spi2E8SendByteEc
          CFI Block cfiBlock240 Using cfiCommon0
          CFI Function _ZN9SpiDriverI4spi2E8SendByteEc
        THUMB
// __interwork __vfp void SpiDriver<spi2>::SendByte(char)
_ZN9SpiDriverI4spi2E8SendByteEc:
        PUSH     {R3-R5,LR}
          CFI R14 Frame(CFA, -4)
          CFI R5 Frame(CFA, -8)
          CFI R4 Frame(CFA, -12)
          CFI CFA R13+16
        MOVS     R4,R0
        MOVS     R5,R1
        MOVS     R0,#+0
        STRB     R0,[R4, #+409]
        MOVS     R0,#+1
        STR      R0,[R4, #+400]
        MOVS     R1,#+0
        MOVS     R0,R4
          CFI FunCall _ZNSt5arrayIcLj200EEixEj
        BL       _ZNSt5arrayIcLj200EEixEj
        STRB     R5,[R0, #+0]
        LDR      R0,[R4, #+404]
        CMP      R0,#+0
        BNE.N    ??SendByte_0
        MOVS     R0,#+1
        B.N      ??SendByte_1
??SendByte_0:
        MOVS     R0,#+0
??SendByte_1:
        STRB     R0,[R4, #+408]
        LDR      R0,[R4, #+404]
        CMP      R0,#+0
        BEQ.N    ??SendByte_2
          CFI FunCall _ZN3SPII4SPI2L_Z15spi2TransceiverEE33ReceiveBufNotEmptyInterruptEnableEv
        BL       _ZN3SPII4SPI2L_Z15spi2TransceiverEE33ReceiveBufNotEmptyInterruptEnableEv
??SendByte_2:
          CFI FunCall _ZN3SPII4SPI2L_Z15spi2TransceiverEE32TransmiteBufEmptyInterruptEnableEv
        BL       _ZN3SPII4SPI2L_Z15spi2TransceiverEE32TransmiteBufEmptyInterruptEnableEv
        POP      {R0,R4,R5,PC}    ;; return
          CFI EndBlock cfiBlock240

        SECTION `.text`:CODE:REORDER:NOROOT(1)
        SECTION_GROUP _ZN9SpiDriverI4spi1E8SendByteEc
          CFI Block cfiBlock241 Using cfiCommon0
          CFI Function _ZN9SpiDriverI4spi1E8SendByteEc
        THUMB
// __interwork __vfp void SpiDriver<spi1>::SendByte(char)
_ZN9SpiDriverI4spi1E8SendByteEc:
        PUSH     {R3-R5,LR}
          CFI R14 Frame(CFA, -4)
          CFI R5 Frame(CFA, -8)
          CFI R4 Frame(CFA, -12)
          CFI CFA R13+16
        MOVS     R4,R0
        MOVS     R5,R1
        MOVS     R0,#+0
        STRB     R0,[R4, #+409]
        MOVS     R0,#+1
        STR      R0,[R4, #+400]
        MOVS     R1,#+0
        MOVS     R0,R4
          CFI FunCall _ZNSt5arrayIcLj200EEixEj
        BL       _ZNSt5arrayIcLj200EEixEj
        STRB     R5,[R0, #+0]
        LDR      R0,[R4, #+404]
        CMP      R0,#+0
        BNE.N    ??SendByte_3
        MOVS     R0,#+1
        B.N      ??SendByte_4
??SendByte_3:
        MOVS     R0,#+0
??SendByte_4:
        STRB     R0,[R4, #+408]
        LDR      R0,[R4, #+404]
        CMP      R0,#+0
        BEQ.N    ??SendByte_5
          CFI FunCall _ZN3SPII4SPI1L_Z15spi1TransceiverEE33ReceiveBufNotEmptyInterruptEnableEv
        BL       _ZN3SPII4SPI1L_Z15spi1TransceiverEE33ReceiveBufNotEmptyInterruptEnableEv
??SendByte_5:
          CFI FunCall _ZN3SPII4SPI1L_Z15spi1TransceiverEE32TransmiteBufEmptyInterruptEnableEv
        BL       _ZN3SPII4SPI1L_Z15spi1TransceiverEE32TransmiteBufEmptyInterruptEnableEv
        POP      {R0,R4,R5,PC}    ;; return
          CFI EndBlock cfiBlock241

        SECTION `.text`:CODE:REORDER:NOROOT(1)
        SECTION_GROUP _ZN9SpiDriverI4spi2E17IsMessageReceivedEv
          CFI Block cfiBlock242 Using cfiCommon0
          CFI Function _ZN9SpiDriverI4spi2E17IsMessageReceivedEv
          CFI NoCalls
        THUMB
// __interwork __vfp bool SpiDriver<spi2>::IsMessageReceived()
_ZN9SpiDriverI4spi2E17IsMessageReceivedEv:
        LDRB     R0,[R0, #+408]
        BX       LR               ;; return
          CFI EndBlock cfiBlock242

        SECTION `.text`:CODE:REORDER:NOROOT(1)
        SECTION_GROUP _ZN9SpiDriverI4spi1E19IsMessageTransmitedEv
          CFI Block cfiBlock243 Using cfiCommon0
          CFI Function _ZN9SpiDriverI4spi1E19IsMessageTransmitedEv
          CFI NoCalls
        THUMB
// __interwork __vfp bool SpiDriver<spi1>::IsMessageTransmited()
_ZN9SpiDriverI4spi1E19IsMessageTransmitedEv:
        LDRB     R0,[R0, #+409]
        BX       LR               ;; return
          CFI EndBlock cfiBlock243

        SECTION `.text`:CODE:REORDER:NOROOT(1)
        SECTION_GROUP _ZN9SpiDriverI4spi2E10GetMessageEPc
          CFI Block cfiBlock244 Using cfiCommon0
          CFI Function _ZN9SpiDriverI4spi2E10GetMessageEPc
        THUMB
// __interwork __vfp void SpiDriver<spi2>::GetMessage(char *)
_ZN9SpiDriverI4spi2E10GetMessageEPc:
        PUSH     {R2-R8,LR}
          CFI R14 Frame(CFA, -4)
          CFI R8 Frame(CFA, -8)
          CFI R7 Frame(CFA, -12)
          CFI R6 Frame(CFA, -16)
          CFI R5 Frame(CFA, -20)
          CFI R4 Frame(CFA, -24)
          CFI CFA R13+32
        MOVS     R4,R0
        MOVS     R5,R1
        ADDS     R0,R4,#+200
          CFI FunCall _ZNSt5arrayIcLj200EE4dataEv
        BL       _ZNSt5arrayIcLj200EE4dataEv
        MOVS     R6,R0
        LDR      R7,[R4, #+404]
        MOV      R8,R5
        MOVS     R2,R7
        MOVS     R1,R6
        MOV      R0,R8
          CFI FunCall __aeabi_memcpy
        BL       __aeabi_memcpy
        MOVS     R0,#+0
        STRB     R0,[SP, #+0]
        MOV      R1,SP
        ADDS     R0,R4,#+200
          CFI FunCall _ZNSt5arrayIcLj200EE4fillERKc
        BL       _ZNSt5arrayIcLj200EE4fillERKc
        MOVS     R0,#+0
        STRB     R0,[R4, #+408]
        POP      {R0,R1,R4-R8,PC}  ;; return
          CFI EndBlock cfiBlock244

        SECTION `.text`:CODE:REORDER:NOROOT(1)
        SECTION_GROUP _ZN9SpiDriverI4spi2E7GetByteEv
          CFI Block cfiBlock245 Using cfiCommon0
          CFI Function _ZN9SpiDriverI4spi2E7GetByteEv
        THUMB
// __interwork __vfp char SpiDriver<spi2>::GetByte()
_ZN9SpiDriverI4spi2E7GetByteEv:
        PUSH     {R3-R5,LR}
          CFI R14 Frame(CFA, -4)
          CFI R5 Frame(CFA, -8)
          CFI R4 Frame(CFA, -12)
          CFI CFA R13+16
        MOVS     R4,R0
        MOVS     R0,#+0
        STRB     R0,[R4, #+408]
        MOVS     R1,#+0
        ADDS     R0,R4,#+200
          CFI FunCall _ZNSt5arrayIcLj200EEixEj
        BL       _ZNSt5arrayIcLj200EEixEj
        LDRB     R5,[R0, #+0]
        MOVS     R1,#+0
        ADDS     R0,R4,#+200
          CFI FunCall _ZNSt5arrayIcLj200EEixEj
        BL       _ZNSt5arrayIcLj200EEixEj
        MOVS     R1,#+0
        STRB     R1,[R0, #+0]
        MOVS     R0,R5
        UXTB     R0,R0            ;; ZeroExt  R0,R0,#+24,#+24
        POP      {R1,R4,R5,PC}    ;; return
          CFI EndBlock cfiBlock245

        SECTION `.text`:CODE:REORDER:NOROOT(1)
        SECTION_GROUP _ZN9SpiDriverI4spi2E20SetReceivedMesLengthEj
          CFI Block cfiBlock246 Using cfiCommon0
          CFI Function _ZN9SpiDriverI4spi2E20SetReceivedMesLengthEj
          CFI NoCalls
        THUMB
// __interwork __vfp void SpiDriver<spi2>::SetReceivedMesLength(size_t)
_ZN9SpiDriverI4spi2E20SetReceivedMesLengthEj:
        STR      R1,[R0, #+404]
        BX       LR               ;; return
          CFI EndBlock cfiBlock246

        SECTION `.text`:CODE:REORDER:NOROOT(1)
        SECTION_GROUP _ZN9SpiDriverI4spi1E20SetReceivedMesLengthEj
          CFI Block cfiBlock247 Using cfiCommon0
          CFI Function _ZN9SpiDriverI4spi1E20SetReceivedMesLengthEj
          CFI NoCalls
        THUMB
// __interwork __vfp void SpiDriver<spi1>::SetReceivedMesLength(size_t)
_ZN9SpiDriverI4spi1E20SetReceivedMesLengthEj:
        STR      R1,[R0, #+404]
        BX       LR               ;; return
          CFI EndBlock cfiBlock247

        SECTION `.text`:CODE:REORDER:NOROOT(1)
        SECTION_GROUP _ZN12BME280DriverIL_Z15spi2TransceiverE3PinI4PortI5GPIOCELh6EEE13CircuitSelectEv
          CFI Block cfiBlock248 Using cfiCommon0
          CFI Function _ZN12BME280DriverIL_Z15spi2TransceiverE3PinI4PortI5GPIOCELh6EEE13CircuitSelectEv
        THUMB
// __interwork __vfp void BME280Driver<spi2Transceiver, PinCSforBME280>::CircuitSelect()
_ZN12BME280DriverIL_Z15spi2TransceiverE3PinI4PortI5GPIOCELh6EEE13CircuitSelectEv:
        PUSH     {R4,LR}
          CFI R14 Frame(CFA, -4)
          CFI R4 Frame(CFA, -8)
          CFI CFA R13+8
        MOVS     R4,R0
          CFI FunCall _ZN3PinI4PortI5GPIOCELh6EE5ResetEv
        BL       _ZN3PinI4PortI5GPIOCELh6EE5ResetEv
        POP      {R4,PC}          ;; return
          CFI EndBlock cfiBlock248

        SECTION `.text`:CODE:REORDER:NOROOT(1)
        SECTION_GROUP _ZN12BME280DriverIL_Z15spi2TransceiverE3PinI4PortI5GPIOCELh6EEE15CircuitDeselectEv
          CFI Block cfiBlock249 Using cfiCommon0
          CFI Function _ZN12BME280DriverIL_Z15spi2TransceiverE3PinI4PortI5GPIOCELh6EEE15CircuitDeselectEv
        THUMB
// __interwork __vfp void BME280Driver<spi2Transceiver, PinCSforBME280>::CircuitDeselect()
_ZN12BME280DriverIL_Z15spi2TransceiverE3PinI4PortI5GPIOCELh6EEE15CircuitDeselectEv:
        PUSH     {R4,LR}
          CFI R14 Frame(CFA, -4)
          CFI R4 Frame(CFA, -8)
          CFI CFA R13+8
        MOVS     R4,R0
          CFI FunCall _ZN3PinI4PortI5GPIOCELh6EE3SetEv
        BL       _ZN3PinI4PortI5GPIOCELh6EE3SetEv
        POP      {R4,PC}          ;; return
          CFI EndBlock cfiBlock249

        SECTION `.text`:CODE:REORDER:NOROOT(2)
        SECTION_GROUP _ZN12BME280DriverIL_Z15spi2TransceiverE3PinI4PortI5GPIOCELh6EEEC1Ev
          CFI Block cfiBlock250 Using cfiCommon0
          CFI Function _ZN12BME280DriverIL_Z15spi2TransceiverE3PinI4PortI5GPIOCELh6EEEC1Ev
        THUMB
// __code __interwork __vfp BME280Driver<spi2Transceiver, PinCSforBME280>::BME280Driver()
_ZN12BME280DriverIL_Z15spi2TransceiverE3PinI4PortI5GPIOCELh6EEEC1Ev:
        PUSH     {R4,LR}
          CFI R14 Frame(CFA, -4)
          CFI R4 Frame(CFA, -8)
          CFI CFA R13+8
        MOVS     R4,R0
        LDR.N    R0,??BME280Driver_0  ;; 0x21c6b
        STR      R0,[R4, #+72]
        ADDS     R0,R4,#+40
        STR      R0,[R4, #+80]
        ADDS     R0,R4,#+48
        STR      R0,[R4, #+84]
        ADDS     R0,R4,#+56
        STR      R0,[R4, #+88]
        ADDS     R0,R4,#+64
        STR      R0,[R4, #+92]
          CFI FunCall _ZN3PinI4PortI5GPIOCELh6EE3SetEv
        BL       _ZN3PinI4PortI5GPIOCELh6EE3SetEv
        MOVS     R0,R4
        POP      {R4,PC}          ;; return
        DATA
??BME280Driver_0:
        DATA32
        DC32     0x21c6b
          CFI EndBlock cfiBlock250

        SECTION `.text`:CODE:REORDER:NOROOT(2)
        SECTION_GROUP _ZN12BME280DriverIL_Z15spi2TransceiverE3PinI4PortI5GPIOCELh6EEE12ReadRegisterEc
          CFI Block cfiBlock251 Using cfiCommon0
          CFI Function _ZN12BME280DriverIL_Z15spi2TransceiverE3PinI4PortI5GPIOCELh6EEE12ReadRegisterEc
        THUMB
// __interwork __vfp char BME280Driver<spi2Transceiver, PinCSforBME280>::ReadRegister(char)
_ZN12BME280DriverIL_Z15spi2TransceiverE3PinI4PortI5GPIOCELh6EEE12ReadRegisterEc:
        PUSH     {R4-R6,LR}
          CFI R14 Frame(CFA, -4)
          CFI R6 Frame(CFA, -8)
          CFI R5 Frame(CFA, -12)
          CFI R4 Frame(CFA, -16)
          CFI CFA R13+16
        MOVS     R4,R0
        MOVS     R5,R1
        MOVS     R0,R4
          CFI FunCall _ZN12BME280DriverIL_Z15spi2TransceiverE3PinI4PortI5GPIOCELh6EEE13CircuitSelectEv
        BL       _ZN12BME280DriverIL_Z15spi2TransceiverE3PinI4PortI5GPIOCELh6EEE13CircuitSelectEv
        LDR.N    R6,??ReadRegister_0
        MOVS     R1,#+1
        MOVS     R0,R6
          CFI FunCall _ZN9SpiDriverI4spi2E20SetReceivedMesLengthEj
        BL       _ZN9SpiDriverI4spi2E20SetReceivedMesLengthEj
        ORRS     R1,R5,#0x80
        UXTB     R1,R1            ;; ZeroExt  R1,R1,#+24,#+24
        MOVS     R0,R6
          CFI FunCall _ZN9SpiDriverI4spi2E8SendByteEc
        BL       _ZN9SpiDriverI4spi2E8SendByteEc
??ReadRegister_1:
        MOVS     R0,R6
          CFI FunCall _ZN9SpiDriverI4spi2E17IsMessageReceivedEv
        BL       _ZN9SpiDriverI4spi2E17IsMessageReceivedEv
        CMP      R0,#+0
        BEQ.N    ??ReadRegister_1
        MOVS     R0,R4
          CFI FunCall _ZN12BME280DriverIL_Z15spi2TransceiverE3PinI4PortI5GPIOCELh6EEE15CircuitDeselectEv
        BL       _ZN12BME280DriverIL_Z15spi2TransceiverE3PinI4PortI5GPIOCELh6EEE15CircuitDeselectEv
        MOVS     R0,R6
          CFI FunCall _ZN9SpiDriverI4spi2E7GetByteEv
        BL       _ZN9SpiDriverI4spi2E7GetByteEv
        POP      {R4-R6,PC}       ;; return
        Nop      
        DATA
??ReadRegister_0:
        DATA32
        DC32     spi2Transceiver
          CFI EndBlock cfiBlock251

        SECTION `.text`:CODE:REORDER:NOROOT(2)
        SECTION_GROUP _ZN12BME280DriverIL_Z15spi2TransceiverE3PinI4PortI5GPIOCELh6EEE13WriteRegisterEcc
          CFI Block cfiBlock252 Using cfiCommon0
          CFI Function _ZN12BME280DriverIL_Z15spi2TransceiverE3PinI4PortI5GPIOCELh6EEE13WriteRegisterEcc
        THUMB
// __interwork __vfp void BME280Driver<spi2Transceiver, PinCSforBME280>::WriteRegister(char, char)
_ZN12BME280DriverIL_Z15spi2TransceiverE3PinI4PortI5GPIOCELh6EEE13WriteRegisterEcc:
        PUSH     {R3-R7,LR}
          CFI R14 Frame(CFA, -4)
          CFI R7 Frame(CFA, -8)
          CFI R6 Frame(CFA, -12)
          CFI R5 Frame(CFA, -16)
          CFI R4 Frame(CFA, -20)
          CFI CFA R13+24
        MOVS     R4,R0
        MOVS     R5,R1
        MOVS     R6,R2
        LDR.N    R7,??WriteRegister_0
        MOVS     R1,#+0
        MOVS     R0,R7
          CFI FunCall _ZN9SpiDriverI4spi2E20SetReceivedMesLengthEj
        BL       _ZN9SpiDriverI4spi2E20SetReceivedMesLengthEj
        ANDS     R0,R5,#0x7F
        STRB     R0,[SP, #+0]
        STRB     R6,[SP, #+1]
        MOVS     R0,R4
          CFI FunCall _ZN12BME280DriverIL_Z15spi2TransceiverE3PinI4PortI5GPIOCELh6EEE13CircuitSelectEv
        BL       _ZN12BME280DriverIL_Z15spi2TransceiverE3PinI4PortI5GPIOCELh6EEE13CircuitSelectEv
        MOVS     R2,#+2
        MOV      R1,SP
        MOVS     R0,R7
          CFI FunCall _ZN9SpiDriverI4spi2E11SendMessageEPcj
        BL       _ZN9SpiDriverI4spi2E11SendMessageEPcj
        MOVS     R0,R4
          CFI FunCall _ZN12BME280DriverIL_Z15spi2TransceiverE3PinI4PortI5GPIOCELh6EEE15CircuitDeselectEv
        BL       _ZN12BME280DriverIL_Z15spi2TransceiverE3PinI4PortI5GPIOCELh6EEE15CircuitDeselectEv
        POP      {R0,R4-R7,PC}    ;; return
        Nop      
        DATA
??WriteRegister_0:
        DATA32
        DC32     spi2Transceiver
          CFI EndBlock cfiBlock252

        SECTION `.text`:CODE:REORDER:NOROOT(2)
        SECTION_GROUP _ZN12BME280DriverIL_Z15spi2TransceiverE3PinI4PortI5GPIOCELh6EEE19ReadSpanOfRegistersEcPcj
          CFI Block cfiBlock253 Using cfiCommon0
          CFI Function _ZN12BME280DriverIL_Z15spi2TransceiverE3PinI4PortI5GPIOCELh6EEE19ReadSpanOfRegistersEcPcj
        THUMB
// __interwork __vfp void BME280Driver<spi2Transceiver, PinCSforBME280>::ReadSpanOfRegisters(char, char *, size_t)
_ZN12BME280DriverIL_Z15spi2TransceiverE3PinI4PortI5GPIOCELh6EEE19ReadSpanOfRegistersEcPcj:
        PUSH     {R4-R8,LR}
          CFI R14 Frame(CFA, -4)
          CFI R8 Frame(CFA, -8)
          CFI R7 Frame(CFA, -12)
          CFI R6 Frame(CFA, -16)
          CFI R5 Frame(CFA, -20)
          CFI R4 Frame(CFA, -24)
          CFI CFA R13+24
        MOVS     R4,R0
        MOVS     R5,R1
        MOVS     R6,R2
        MOVS     R7,R3
        LDR.W    R8,??ReadSpanOfRegisters_0
        MOVS     R1,R7
        MOV      R0,R8
          CFI FunCall _ZN9SpiDriverI4spi2E20SetReceivedMesLengthEj
        BL       _ZN9SpiDriverI4spi2E20SetReceivedMesLengthEj
        MOVS     R0,R4
          CFI FunCall _ZN12BME280DriverIL_Z15spi2TransceiverE3PinI4PortI5GPIOCELh6EEE13CircuitSelectEv
        BL       _ZN12BME280DriverIL_Z15spi2TransceiverE3PinI4PortI5GPIOCELh6EEE13CircuitSelectEv
        ORRS     R1,R5,#0x80
        UXTB     R1,R1            ;; ZeroExt  R1,R1,#+24,#+24
        MOV      R0,R8
          CFI FunCall _ZN9SpiDriverI4spi2E8SendByteEc
        BL       _ZN9SpiDriverI4spi2E8SendByteEc
??ReadSpanOfRegisters_1:
        MOV      R0,R8
          CFI FunCall _ZN9SpiDriverI4spi2E17IsMessageReceivedEv
        BL       _ZN9SpiDriverI4spi2E17IsMessageReceivedEv
        CMP      R0,#+0
        BEQ.N    ??ReadSpanOfRegisters_1
        MOVS     R0,R4
          CFI FunCall _ZN12BME280DriverIL_Z15spi2TransceiverE3PinI4PortI5GPIOCELh6EEE15CircuitDeselectEv
        BL       _ZN12BME280DriverIL_Z15spi2TransceiverE3PinI4PortI5GPIOCELh6EEE15CircuitDeselectEv
        MOVS     R1,R6
        MOV      R0,R8
          CFI FunCall _ZN9SpiDriverI4spi2E10GetMessageEPc
        BL       _ZN9SpiDriverI4spi2E10GetMessageEPc
        POP      {R4-R8,PC}       ;; return
        Nop      
        DATA
??ReadSpanOfRegisters_0:
        DATA32
        DC32     spi2Transceiver
          CFI EndBlock cfiBlock253

        SECTION `.text`:CODE:REORDER:NOROOT(1)
        SECTION_GROUP _ZN12BME280DriverIL_Z15spi2TransceiverE3PinI4PortI5GPIOCELh6EEE23InitializeCalibrateDataEv
          CFI Block cfiBlock254 Using cfiCommon0
          CFI Function _ZN12BME280DriverIL_Z15spi2TransceiverE3PinI4PortI5GPIOCELh6EEE23InitializeCalibrateDataEv
        THUMB
// __interwork __vfp void BME280Driver<spi2Transceiver, PinCSforBME280>::InitializeCalibrateData()
_ZN12BME280DriverIL_Z15spi2TransceiverE3PinI4PortI5GPIOCELh6EEE23InitializeCalibrateDataEv:
        PUSH     {R3-R7,LR}
          CFI R14 Frame(CFA, -4)
          CFI R7 Frame(CFA, -8)
          CFI R6 Frame(CFA, -12)
          CFI R5 Frame(CFA, -16)
          CFI R4 Frame(CFA, -20)
          CFI CFA R13+24
        MOVS     R4,R0
        MOVS     R3,#+24
        MOVS     R2,R4
        MOVS     R1,#+136
        MOVS     R0,R4
          CFI FunCall _ZN12BME280DriverIL_Z15spi2TransceiverE3PinI4PortI5GPIOCELh6EEE19ReadSpanOfRegistersEcPcj
        BL       _ZN12BME280DriverIL_Z15spi2TransceiverE3PinI4PortI5GPIOCELh6EEE19ReadSpanOfRegistersEcPcj
        MOVS     R1,#+161
        MOVS     R0,R4
          CFI FunCall _ZN12BME280DriverIL_Z15spi2TransceiverE3PinI4PortI5GPIOCELh6EEE12ReadRegisterEc
        BL       _ZN12BME280DriverIL_Z15spi2TransceiverE3PinI4PortI5GPIOCELh6EEE12ReadRegisterEc
        STRB     R0,[R4, #+24]
        MOVS     R3,#+3
        ADDS     R2,R4,#+25
        MOVS     R1,#+225
        MOVS     R0,R4
          CFI FunCall _ZN12BME280DriverIL_Z15spi2TransceiverE3PinI4PortI5GPIOCELh6EEE19ReadSpanOfRegistersEcPcj
        BL       _ZN12BME280DriverIL_Z15spi2TransceiverE3PinI4PortI5GPIOCELh6EEE19ReadSpanOfRegistersEcPcj
        MOVS     R1,#+228
        MOVS     R0,R4
          CFI FunCall _ZN12BME280DriverIL_Z15spi2TransceiverE3PinI4PortI5GPIOCELh6EEE12ReadRegisterEc
        BL       _ZN12BME280DriverIL_Z15spi2TransceiverE3PinI4PortI5GPIOCELh6EEE12ReadRegisterEc
        MOVS     R5,R0
        MOVS     R1,#+229
        MOVS     R0,R4
          CFI FunCall _ZN12BME280DriverIL_Z15spi2TransceiverE3PinI4PortI5GPIOCELh6EEE12ReadRegisterEc
        BL       _ZN12BME280DriverIL_Z15spi2TransceiverE3PinI4PortI5GPIOCELh6EEE12ReadRegisterEc
        MOVS     R6,R0
        MOVS     R1,#+230
        MOVS     R0,R4
          CFI FunCall _ZN12BME280DriverIL_Z15spi2TransceiverE3PinI4PortI5GPIOCELh6EEE12ReadRegisterEc
        BL       _ZN12BME280DriverIL_Z15spi2TransceiverE3PinI4PortI5GPIOCELh6EEE12ReadRegisterEc
        MOVS     R7,R0
        ANDS     R0,R6,#0xF
        ORRS     R0,R0,R5, LSL #+4
        STRH     R0,[R4, #+28]
        UBFX     R0,R6,#+4,#+4
        ORRS     R0,R0,R7, LSL #+4
        STRH     R0,[R4, #+30]
        MOVS     R1,#+231
        MOVS     R0,R4
          CFI FunCall _ZN12BME280DriverIL_Z15spi2TransceiverE3PinI4PortI5GPIOCELh6EEE12ReadRegisterEc
        BL       _ZN12BME280DriverIL_Z15spi2TransceiverE3PinI4PortI5GPIOCELh6EEE12ReadRegisterEc
        STRB     R0,[R4, #+32]
        POP      {R0,R4-R7,PC}    ;; return
          CFI EndBlock cfiBlock254

        SECTION `.text`:CODE:REORDER:NOROOT(1)
        SECTION_GROUP _ZN12BME280DriverIL_Z15spi2TransceiverE3PinI4PortI5GPIOCELh6EEE17StartMeasurementsEv
          CFI Block cfiBlock255 Using cfiCommon0
          CFI Function _ZN12BME280DriverIL_Z15spi2TransceiverE3PinI4PortI5GPIOCELh6EEE17StartMeasurementsEv
        THUMB
// __interwork __vfp void BME280Driver<spi2Transceiver, PinCSforBME280>::StartMeasurements()
_ZN12BME280DriverIL_Z15spi2TransceiverE3PinI4PortI5GPIOCELh6EEE17StartMeasurementsEv:
        PUSH     {R4,LR}
          CFI R14 Frame(CFA, -4)
          CFI R4 Frame(CFA, -8)
          CFI CFA R13+8
        MOVS     R4,R0
        MOVS     R2,#+1
        MOVS     R1,#+242
        MOVS     R0,R4
          CFI FunCall _ZN12BME280DriverIL_Z15spi2TransceiverE3PinI4PortI5GPIOCELh6EEE13WriteRegisterEcc
        BL       _ZN12BME280DriverIL_Z15spi2TransceiverE3PinI4PortI5GPIOCELh6EEE13WriteRegisterEcc
        MOVS     R2,#+39
        MOVS     R1,#+244
        MOVS     R0,R4
          CFI FunCall _ZN12BME280DriverIL_Z15spi2TransceiverE3PinI4PortI5GPIOCELh6EEE13WriteRegisterEcc
        BL       _ZN12BME280DriverIL_Z15spi2TransceiverE3PinI4PortI5GPIOCELh6EEE13WriteRegisterEcc
        POP      {R4,PC}          ;; return
          CFI EndBlock cfiBlock255

        SECTION `.text`:CODE:REORDER:NOROOT(1)
        SECTION_GROUP _ZN12BME280DriverIL_Z15spi2TransceiverE3PinI4PortI5GPIOCELh6EEE7MeasureEv
          CFI Block cfiBlock256 Using cfiCommon0
          CFI Function _ZN12BME280DriverIL_Z15spi2TransceiverE3PinI4PortI5GPIOCELh6EEE7MeasureEv
        THUMB
// __interwork __vfp void BME280Driver<spi2Transceiver, PinCSforBME280>::Measure()
_ZN12BME280DriverIL_Z15spi2TransceiverE3PinI4PortI5GPIOCELh6EEE7MeasureEv:
        PUSH     {R4,LR}
          CFI R14 Frame(CFA, -4)
          CFI R4 Frame(CFA, -8)
          CFI CFA R13+8
        MOVS     R4,R0
        MOVS     R0,R4
          CFI FunCall _ZN12BME280DriverIL_Z15spi2TransceiverE3PinI4PortI5GPIOCELh6EEE15ReadTemperatureEv
        BL       _ZN12BME280DriverIL_Z15spi2TransceiverE3PinI4PortI5GPIOCELh6EEE15ReadTemperatureEv
        VMOV     R0,S0
          CFI FunCall __aeabi_f2d
        BL       __aeabi_f2d
        STRD     R0,R1,[R4, #+40]
        MOVS     R0,R4
          CFI FunCall _ZN12BME280DriverIL_Z15spi2TransceiverE3PinI4PortI5GPIOCELh6EEE12ReadPressureEv
        BL       _ZN12BME280DriverIL_Z15spi2TransceiverE3PinI4PortI5GPIOCELh6EEE12ReadPressureEv
        VMOV     R0,S0
          CFI FunCall __aeabi_f2d
        BL       __aeabi_f2d
        STRD     R0,R1,[R4, #+48]
        MOVS     R0,R4
          CFI FunCall _ZN12BME280DriverIL_Z15spi2TransceiverE3PinI4PortI5GPIOCELh6EEE12ReadHumidityEv
        BL       _ZN12BME280DriverIL_Z15spi2TransceiverE3PinI4PortI5GPIOCELh6EEE12ReadHumidityEv
        VMOV     R0,S0
          CFI FunCall __aeabi_f2d
        BL       __aeabi_f2d
        STRD     R0,R1,[R4, #+56]
        MOVS     R0,R4
          CFI FunCall _ZN12BME280DriverIL_Z15spi2TransceiverE3PinI4PortI5GPIOCELh6EEE12CalcDewPointEv
        BL       _ZN12BME280DriverIL_Z15spi2TransceiverE3PinI4PortI5GPIOCELh6EEE12CalcDewPointEv
        VMOV     R0,S0
          CFI FunCall __aeabi_f2d
        BL       __aeabi_f2d
        STRD     R0,R1,[R4, #+64]
        POP      {R4,PC}          ;; return
          CFI EndBlock cfiBlock256

        SECTION `.text`:CODE:REORDER:NOROOT(2)
        SECTION_GROUP _ZN12BME280DriverIL_Z15spi2TransceiverE3PinI4PortI5GPIOCELh6EEE15ReadTemperatureEv
          CFI Block cfiBlock257 Using cfiCommon0
          CFI Function _ZN12BME280DriverIL_Z15spi2TransceiverE3PinI4PortI5GPIOCELh6EEE15ReadTemperatureEv
        THUMB
// __interwork __vfp float BME280Driver<spi2Transceiver, PinCSforBME280>::ReadTemperature()
_ZN12BME280DriverIL_Z15spi2TransceiverE3PinI4PortI5GPIOCELh6EEE15ReadTemperatureEv:
        PUSH     {R3-R5,LR}
          CFI R14 Frame(CFA, -4)
          CFI R5 Frame(CFA, -8)
          CFI R4 Frame(CFA, -12)
          CFI CFA R13+16
        MOVS     R4,R0
        MOVS     R1,#+3
        MOVS     R2,#+0
        MOV      R5,SP
        MOVS     R0,R5
          CFI FunCall __aeabi_memset
        BL       __aeabi_memset
        MOVS     R3,#+3
        MOV      R2,SP
        MOVS     R1,#+250
        MOVS     R0,R4
          CFI FunCall _ZN12BME280DriverIL_Z15spi2TransceiverE3PinI4PortI5GPIOCELh6EEE19ReadSpanOfRegistersEcPcj
        BL       _ZN12BME280DriverIL_Z15spi2TransceiverE3PinI4PortI5GPIOCELh6EEE19ReadSpanOfRegistersEcPcj
        MOV      R0,SP
        LDRB     R1,[SP, #+0]
        LDRB     R2,[R0, #+1]
        LSLS     R2,R2,#+8
        ADDS     R2,R2,R1, LSL #+16
        LDRB     R0,[R0, #+2]
        ADDS     R1,R2,R0
        LSRS     R1,R1,#+4
        MOVS     R2,R1
        LSRS     R2,R2,#+3
        LDRH     R0,[R4, #+0]
        SUBS     R2,R2,R0, LSL #+1
        LDRSH    R0,[R4, #+2]
        MULS     R2,R0,R2
        LSRS     R2,R2,#+11
        LDRH     R3,[R4, #+0]
        RSBS     R3,R3,R1, LSR #+4
        LDRH     R0,[R4, #+0]
        RSBS     R0,R0,R1, LSR #+4
        MULS     R3,R0,R3
        LSRS     R3,R3,#+12
        LDRSH    R0,[R4, #+4]
        MULS     R3,R0,R3
        LSRS     R3,R3,#+14
        ADDS     R0,R3,R2
        MOVS     R5,#+5
        MUL      R5,R5,R0
        ADDS     R5,R5,#+128
        LSRS     R5,R5,#+8
        VMOV     S0,R5
        VCVT.F32.U32 S0,S0
        VLDR.W   S1,??ReadTemperature_0  ;; 0x42c80000
        VDIV.F32 S0,S0,S1
        POP      {R0,R4,R5,PC}    ;; return
        DATA
??ReadTemperature_0:
        DATA32
        DC32     0x42c80000
          CFI EndBlock cfiBlock257

        SECTION `.text`:CODE:REORDER:NOROOT(2)
        SECTION_GROUP _ZN12BME280DriverIL_Z15spi2TransceiverE3PinI4PortI5GPIOCELh6EEE12ReadPressureEv
          CFI Block cfiBlock258 Using cfiCommon0
          CFI Function _ZN12BME280DriverIL_Z15spi2TransceiverE3PinI4PortI5GPIOCELh6EEE12ReadPressureEv
        THUMB
// __interwork __vfp float BME280Driver<spi2Transceiver, PinCSforBME280>::ReadPressure()
_ZN12BME280DriverIL_Z15spi2TransceiverE3PinI4PortI5GPIOCELh6EEE12ReadPressureEv:
        PUSH     {R3-R11,LR}
          CFI R14 Frame(CFA, -4)
          CFI R11 Frame(CFA, -8)
          CFI R10 Frame(CFA, -12)
          CFI R9 Frame(CFA, -16)
          CFI R8 Frame(CFA, -20)
          CFI R7 Frame(CFA, -24)
          CFI R6 Frame(CFA, -28)
          CFI R5 Frame(CFA, -32)
          CFI R4 Frame(CFA, -36)
          CFI CFA R13+40
        SUB      SP,SP,#+16
          CFI CFA R13+56
        MOV      R10,R0
        MOVS     R1,#+3
        MOVS     R2,#+0
        MOV      R4,SP
        MOVS     R0,R4
          CFI FunCall __aeabi_memset
        BL       __aeabi_memset
        MOVS     R3,#+3
        MOV      R2,SP
        MOVS     R1,#+247
        MOV      R0,R10
          CFI FunCall _ZN12BME280DriverIL_Z15spi2TransceiverE3PinI4PortI5GPIOCELh6EEE19ReadSpanOfRegistersEcPcj
        BL       _ZN12BME280DriverIL_Z15spi2TransceiverE3PinI4PortI5GPIOCELh6EEE19ReadSpanOfRegistersEcPcj
        LDRB     R0,[SP, #+0]
        LDRB     R1,[SP, #+1]
        LSLS     R1,R1,#+8
        ADDS     R1,R1,R0, LSL #+16
        LDRB     R0,[SP, #+2]
        UXTAB    R11,R1,R0
        LSRS     R11,R11,#+4
        LDR      R0,[R10, #+72]
        MOVS     R1,#+0
        SUBS     R0,R0,#+128000
        SBCS     R1,R1,#+0
        UMULL    R2,R3,R0,R0
        MLA      R3,R0,R1,R3
        MLA      R3,R1,R0,R3
        LDRSH    R6,[R10, #+16]
        ASRS     R7,R6,#+31
        UMULL    R4,R5,R6,R2
        MLA      R5,R6,R3,R5
        MLA      R5,R7,R2,R5
        LDRSH    R2,[R10, #+14]
        ASRS     R3,R2,#+31
        UMULL    R6,R7,R2,R0
        MLA      R7,R2,R1,R7
        MLA      R7,R3,R0,R7
        LSLS     R7,R7,#+17
        ORR      R7,R7,R6, LSR #+15
        LSLS     R6,R6,#+17
        ADDS     R4,R4,R6
        ADCS     R5,R5,R7
        LDRSH    R2,[R10, #+12]
        ASRS     R3,R2,#+31
        LSLS     R3,R2,#+3
        MOVS     R2,#+0
        ADDS     R2,R4,R2
        ADCS     R3,R5,R3
        STRD     R2,R3,[SP, #+8]
        UMULL    R4,R5,R0,R0
        MLA      R5,R0,R1,R5
        MLA      R5,R1,R0,R5
        LDRSH    R6,[R10, #+10]
        ASRS     R7,R6,#+31
        UMULL    R2,R3,R6,R4
        MLA      R3,R6,R5,R3
        MLA      R3,R7,R4,R3
        LSRS     R2,R2,#+8
        ORR      R2,R2,R3, LSL #+24
        ASRS     R3,R3,#+8
        LDRSH    R4,[R10, #+8]
        ASRS     R5,R4,#+31
        UMULL    R6,R7,R4,R0
        MLA      R7,R4,R1,R7
        MLA      R7,R5,R0,R7
        LSLS     R7,R7,#+12
        ORR      R7,R7,R6, LSR #+20
        LSLS     R6,R6,#+12
        ADDS     R0,R2,R6
        ADCS     R1,R3,R7
        ADDS     R2,R0,#+0
        ADCS     R3,R1,#+32768
        LDRH     R0,[R10, #+6]
        MOVS     R1,#+0
        UMULL    R4,R5,R0,R2
        MLA      R5,R0,R3,R5
        MLA      R5,R1,R2,R5
        ASRS     R4,R5,#+1
        ASRS     R5,R5,#+31
        CMP      R5,#+0
        BNE.N    ??ReadPressure_1
        CMP      R4,#+0
        BNE.N    ??ReadPressure_1
        VLDR.W   S0,??ReadPressure_0  ;; 0x0
        B.N      ??ReadPressure_2
??ReadPressure_1:
        RSBS     R0,R11,#+1048576
        MOVS     R1,#+0
        LSLS     R1,R1,#+31
        ORR      R1,R1,R0, LSR #+1
        LSLS     R0,R0,#+31
        LDRD     R2,R3,[SP, #+8]
        SUBS     R2,R0,R2
        SBCS     R3,R1,R3
        MOVW     R6,#+3125
        MOVS     R7,#+0
        UMULL    R0,R1,R6,R2
        MLA      R1,R6,R3,R1
        MLA      R1,R7,R2,R1
        MOVS     R2,R4
        MOVS     R3,R5
          CFI FunCall __aeabi_ldivmod
        BL       __aeabi_ldivmod
        MOVS     R2,R0
        MOVS     R3,R1
        LDRSH    R6,[R10, #+22]
        ASRS     R7,R6,#+31
        MOVS     R0,R2
        MOVS     R1,R3
        LSRS     R0,R0,#+13
        ORR      R0,R0,R1, LSL #+19
        ASRS     R1,R1,#+13
        UMULL    R8,R9,R0,R6
        MLA      R9,R0,R7,R9
        MLA      R9,R1,R6,R9
        MOVS     R0,R2
        MOVS     R1,R3
        LSRS     R0,R0,#+13
        ORR      R0,R0,R1, LSL #+19
        ASRS     R1,R1,#+13
        UMULL    R6,R7,R0,R8
        MLA      R7,R0,R9,R7
        MLA      R7,R1,R8,R7
        LSRS     R6,R6,#+25
        ORR      R6,R6,R7, LSL #+7
        ASRS     R7,R7,#+25
        LDRSH    R0,[R10, #+20]
        ASRS     R1,R0,#+31
        UMULL    R8,R9,R2,R0
        MLA      R9,R2,R1,R9
        MLA      R9,R3,R0,R9
        LSRS     R8,R8,#+19
        ORR      R8,R8,R9, LSL #+13
        ASRS     R9,R9,#+19
        STRD     R8,R9,[SP, #+8]
        ADDS     R0,R2,R6
        ADCS     R1,R3,R7
        LDRD     R2,R3,[SP, #+8]
        ADDS     R0,R0,R2
        ADCS     R1,R1,R3
        LSRS     R0,R0,#+8
        ORR      R0,R0,R1, LSL #+24
        ASRS     R1,R1,#+8
        LDRSH    R2,[R10, #+18]
        ASRS     R3,R2,#+31
        LSLS     R3,R3,#+4
        ORR      R3,R3,R2, LSR #+28
        LSLS     R2,R2,#+4
        ADDS     R8,R0,R2
        ADCS     R9,R1,R3
        STR      R8,[R10, #+76]
        MOV      R0,R8
        MOV      R1,R9
          CFI FunCall __aeabi_l2f
        BL       __aeabi_l2f
        VMOV     S0,R0
        VLDR.W   S1,??ReadPressure_0+0x4  ;; 0x46c80000
        VDIV.F32 S0,S0,S1
??ReadPressure_2:
        ADD      SP,SP,#+20
          CFI CFA R13+36
        POP      {R4-R11,PC}      ;; return
        Nop      
        DATA
??ReadPressure_0:
        DATA32
        DC32     0x0
        DC32     0x46c80000
          CFI EndBlock cfiBlock258

        SECTION `.text`:CODE:REORDER:NOROOT(2)
        SECTION_GROUP _ZN12BME280DriverIL_Z15spi2TransceiverE3PinI4PortI5GPIOCELh6EEE12ReadHumidityEv
          CFI Block cfiBlock259 Using cfiCommon0
          CFI Function _ZN12BME280DriverIL_Z15spi2TransceiverE3PinI4PortI5GPIOCELh6EEE12ReadHumidityEv
        THUMB
// __interwork __vfp float BME280Driver<spi2Transceiver, PinCSforBME280>::ReadHumidity()
_ZN12BME280DriverIL_Z15spi2TransceiverE3PinI4PortI5GPIOCELh6EEE12ReadHumidityEv:
        PUSH     {R2-R6,LR}
          CFI R14 Frame(CFA, -4)
          CFI R6 Frame(CFA, -8)
          CFI R5 Frame(CFA, -12)
          CFI R4 Frame(CFA, -16)
          CFI CFA R13+24
        MOVS     R4,R0
        MOVS     R1,#+2
        MOVS     R2,#+0
        MOV      R5,SP
        MOVS     R0,R5
          CFI FunCall __aeabi_memset
        BL       __aeabi_memset
        MOVS     R3,#+2
        MOV      R2,SP
        MOVS     R1,#+253
        MOVS     R0,R4
          CFI FunCall _ZN12BME280DriverIL_Z15spi2TransceiverE3PinI4PortI5GPIOCELh6EEE19ReadSpanOfRegistersEcPcj
        BL       _ZN12BME280DriverIL_Z15spi2TransceiverE3PinI4PortI5GPIOCELh6EEE19ReadSpanOfRegistersEcPcj
        LDRB     R0,[SP, #+0]
        LSLS     R0,R0,#+8
        LDRB     R1,[SP, #+1]
        UXTAB    R1,R0,R1
        MOVS     R2,R1
        UXTH     R2,R2            ;; ZeroExt  R2,R2,#+16,#+16
        LDR      R3,[R4, #+72]
        SUBS     R3,R3,#+76800
        LSLS     R5,R2,#+14
        LDRSH    R0,[R4, #+28]
        SUBS     R5,R5,R0, LSL #+20
        LDRSH    R0,[R4, #+30]
        MLS      R5,R3,R0,R5
        ADDS     R5,R5,#+16384
        ASRS     R5,R5,#+15
        LDRSB    R6,[R4, #+32]
        MUL      R6,R6,R3
        ASRS     R6,R6,#+10
        LDRB     R0,[R4, #+27]
        MULS     R3,R0,R3
        ASRS     R3,R3,#+11
        ADDS     R3,R3,#+32768
        MUL      R3,R3,R6
        ASRS     R3,R3,#+10
        ADDS     R3,R3,#+2097152
        LDRSH    R0,[R4, #+25]
        MULS     R3,R0,R3
        ADDS     R3,R3,#+8192
        ASRS     R3,R3,#+14
        MUL      R3,R3,R5
        MOVS     R5,R3
        ASRS     R5,R5,#+15
        MOVS     R0,R3
        ASRS     R0,R0,#+15
        MULS     R5,R0,R5
        ASRS     R5,R5,#+7
        LDRB     R0,[R4, #+24]
        MULS     R5,R0,R5
        SUBS     R3,R3,R5, ASR #+4
        CMP      R3,#+0
        BPL.N    ??ReadHumidity_1
        MOVS     R3,#+0
        B.N      ??ReadHumidity_2
??ReadHumidity_1:
??ReadHumidity_2:
        LDR.N    R0,??ReadHumidity_0+0x4  ;; 0x19000001
        CMP      R3,R0
        BLT.N    ??ReadHumidity_3
        MOVS     R3,#+419430400
        B.N      ??ReadHumidity_4
??ReadHumidity_3:
??ReadHumidity_4:
        MOVS     R0,R3
        ASRS     R0,R0,#+12
        VMOV     S0,R0
        VCVT.F32.S32 S0,S0
        VLDR.W   S1,??ReadHumidity_0  ;; 0x44800000
        VDIV.F32 S0,S0,S1
        POP      {R0,R1,R4-R6,PC}  ;; return
        DATA
??ReadHumidity_0:
        DATA32
        DC32     0x44800000
        DC32     0x19000001
          CFI EndBlock cfiBlock259

        SECTION `.text`:CODE:REORDER:NOROOT(2)
        SECTION_GROUP _ZN12BME280DriverIL_Z15spi2TransceiverE3PinI4PortI5GPIOCELh6EEE12CalcDewPointEv
          CFI Block cfiBlock260 Using cfiCommon0
          CFI Function _ZN12BME280DriverIL_Z15spi2TransceiverE3PinI4PortI5GPIOCELh6EEE12CalcDewPointEv
        THUMB
// __interwork __vfp float BME280Driver<spi2Transceiver, PinCSforBME280>::CalcDewPoint()
_ZN12BME280DriverIL_Z15spi2TransceiverE3PinI4PortI5GPIOCELh6EEE12CalcDewPointEv:
        PUSH     {R4,LR}
          CFI R14 Frame(CFA, -4)
          CFI R4 Frame(CFA, -8)
          CFI CFA R13+8
        VPUSH    {D8-D10}
          CFI D10 Frame(CFA, -16)
          CFI D9 Frame(CFA, -24)
          CFI D8 Frame(CFA, -32)
          CFI CFA R13+32
        MOVS     R4,R0
        VLDR.W   S16,??CalcDewPoint_0  ;; 0x418a28f6
        VLDR.W   S17,??CalcDewPoint_0+0x4  ;; 0x436db333
        LDR      R0,[R4, #+80]
        LDRD     R0,R1,[R0, #+0]
          CFI FunCall __aeabi_d2f
        BL       __aeabi_d2f
        VMOV     S18,R0
        LDR      R0,[R4, #+88]
        LDRD     R0,R1,[R0, #+0]
        MOVS     R2,#+0
        LDR.N    R3,??CalcDewPoint_0+0x8  ;; 0x40590000
          CFI FunCall __aeabi_ddiv
        BL       __aeabi_ddiv
          CFI FunCall __aeabi_d2f
        BL       __aeabi_d2f
        VMOV     S19,R0
        VMOV.F32 S20,S19
        VMOV.F32 S0,S20
          CFI FunCall logf
        BL       logf
        VMUL.F32 S1,S16,S18
        VADD.F32 S2,S17,S18
        VDIV.F32 S1,S1,S2
        VADD.F32 S1,S1,S0
        VMUL.F32 S0,S17,S1
        VSUB.F32 S2,S16,S1
        VDIV.F32 S0,S0,S2
        VPOP     {D8-D10}
          CFI D8 SameValue
          CFI D9 SameValue
          CFI D10 SameValue
          CFI CFA R13+8
        POP      {R4,PC}          ;; return
        Nop      
        DATA
??CalcDewPoint_0:
        DATA32
        DC32     0x418a28f6
        DC32     0x436db333
        DC32     0x40590000
          CFI EndBlock cfiBlock260

        SECTION `.text`:CODE:REORDER:NOROOT(1)
        SECTION_GROUP _ZN11MeasurementD2Ev
          CFI Block cfiBlock261 Using cfiCommon0
          CFI Function _ZN11MeasurementD2Ev
        THUMB
// __code __interwork __vfp Measurement::subobject ~Measurement()
_ZN11MeasurementD2Ev:
        PUSH     {R4,LR}
          CFI R14 Frame(CFA, -4)
          CFI R4 Frame(CFA, -8)
          CFI CFA R13+8
        MOVS     R4,R0
        MOVS     R0,R4
          CFI FunCall _ZN11MeasurementD1Ev
        BL       _ZN11MeasurementD1Ev
        POP      {R4,PC}          ;; return
          CFI EndBlock cfiBlock261

        SECTION `.text`:CODE:REORDER:NOROOT(2)
        SECTION_GROUP _ZN11MeasurementD1Ev
          CFI Block cfiBlock262 Using cfiCommon0
          CFI Function _ZN11MeasurementD1Ev
        THUMB
// __code __interwork __vfp Measurement::~Measurement()
_ZN11MeasurementD1Ev:
        PUSH     {R4,LR}
          CFI R14 Frame(CFA, -4)
          CFI R4 Frame(CFA, -8)
          CFI CFA R13+8
        MOVS     R4,R0
        LDR.N    R0,`?~Measurement_0`
        STR      R0,[R4, #+0]
        ADDS     R0,R4,#+20
          CFI FunCall _ZNSsD1Ev
        BL       _ZNSsD1Ev
        MOVS     R0,R4
        POP      {R4,PC}          ;; return
        DATA
`?~Measurement_0`:
        DATA32
        DC32     _ZTV11Measurement+0x8
          CFI EndBlock cfiBlock262

        SECTION `.text`:CODE:REORDER:NOROOT(1)
        SECTION_GROUP _ZN11MeasurementC2ESsP4UnitjS0_PFdvE
          CFI Block cfiBlock263 Using cfiCommon0
          CFI Function _ZN11MeasurementC2ESsP4UnitjS0_PFdvE
        THUMB
// __code __interwork __vfp Measurement::subobject Measurement(std::string *, Unit *, size_t, Unit, double (*)())
_ZN11MeasurementC2ESsP4UnitjS0_PFdvE:
        PUSH     {R2-R4,LR}
          CFI R14 Frame(CFA, -4)
          CFI R4 Frame(CFA, -8)
          CFI CFA R13+16
        MOVS     R4,R0
        LDR      R0,[SP, #+20]
        STR      R0,[SP, #+4]
        LDRB     R0,[SP, #+16]
        STR      R0,[SP, #+0]
        MOVS     R0,R4
          CFI FunCall _ZN11MeasurementC1ESsP4UnitjS0_PFdvE
        BL       _ZN11MeasurementC1ESsP4UnitjS0_PFdvE
        POP      {R1,R2,R4,PC}    ;; return
          CFI EndBlock cfiBlock263

        SECTION `.text`:CODE:REORDER:NOROOT(2)
        SECTION_GROUP _ZN11MeasurementC1ESsP4UnitjS0_PFdvE
          CFI Block cfiBlock264 Using cfiCommon0
          CFI Function _ZN11MeasurementC1ESsP4UnitjS0_PFdvE
        THUMB
// __code __interwork __vfp Measurement::Measurement(std::string, Unit *, size_t, Unit, double (*)())
_ZN11MeasurementC1ESsP4UnitjS0_PFdvE:
        PUSH     {R3-R9,LR}
          CFI R14 Frame(CFA, -4)
          CFI R9 Frame(CFA, -8)
          CFI R8 Frame(CFA, -12)
          CFI R7 Frame(CFA, -16)
          CFI R6 Frame(CFA, -20)
          CFI R5 Frame(CFA, -24)
          CFI R4 Frame(CFA, -28)
          CFI CFA R13+32
        MOVS     R5,R0
        MOVS     R6,R1
        MOVS     R7,R2
        MOV      R8,R3
        LDR      R4,[SP, #+32]
        LDR      R9,[SP, #+36]
        LDR.N    R0,??Measurement_0
        STR      R0,[R5, #+0]
        STR      R9,[R5, #+4]
        STR      R7,[R5, #+8]
        STR      R8,[R5, #+12]
        STRB     R4,[R5, #+16]
        MOVS     R1,R6
        ADDS     R0,R5,#+20
          CFI FunCall _ZNSsC1ERKSs
        BL       _ZNSsC1ERKSs
        MOVS     R1,R4
        UXTB     R1,R1            ;; ZeroExt  R1,R1,#+24,#+24
        MOVS     R0,R5
          CFI FunCall _ZN11Measurement9CheckUnitE4Unit
        BL       _ZN11Measurement9CheckUnitE4Unit
        CMP      R0,#+0
        BNE.N    ??Measurement_2
        MOVS     R2,#+27
        LDR.N    R1,??Measurement_0+0x4
        LDR.N    R0,??Measurement_0+0x8
          CFI FunCall __aeabi_assert
        BL       __aeabi_assert
          CFI FunCall __iar_EmptyStepPoint
        BL       __iar_EmptyStepPoint
??Measurement_2:
        MOVS     R0,R5
        POP      {R1,R4-R9,PC}    ;; return
        Nop      
        DATA
??Measurement_0:
        DATA32
        DC32     _ZTV11Measurement+0x8
        DC32     _ZZN11MeasurementC1ESsP4UnitjS0_PFdvEEs_1
        DC32     _ZZN11MeasurementC1ESsP4UnitjS0_PFdvEEs_0
          CFI EndBlock cfiBlock264

        SECTION `.text`:CODE:REORDER:NOROOT(2)
        SECTION_GROUP _ZN11MeasurementC1ESs4UnitPFdvE
          CFI Block cfiBlock265 Using cfiCommon0
          CFI Function _ZN11MeasurementC1ESs4UnitPFdvE
        THUMB
// __code __interwork __vfp Measurement::Measurement(std::string, Unit, double (*)())
_ZN11MeasurementC1ESs4UnitPFdvE:
        PUSH     {R3-R7,LR}
          CFI R14 Frame(CFA, -4)
          CFI R7 Frame(CFA, -8)
          CFI R6 Frame(CFA, -12)
          CFI R5 Frame(CFA, -16)
          CFI R4 Frame(CFA, -20)
          CFI CFA R13+24
        MOVS     R4,R0
        MOVS     R5,R1
        MOVS     R6,R2
        MOVS     R7,R3
        LDR.N    R0,??Measurement_1
        STR      R0,[R4, #+0]
        STR      R7,[R4, #+4]
        ADDS     R0,R4,#+16
        STR      R0,[R4, #+8]
        MOVS     R0,#+1
        STR      R0,[R4, #+12]
        STRB     R6,[R4, #+16]
        MOVS     R1,R5
        ADDS     R0,R4,#+20
          CFI FunCall _ZNSsC1ERKSs
        BL       _ZNSsC1ERKSs
        MOVS     R0,R4
        POP      {R1,R4-R7,PC}    ;; return
        Nop      
        DATA
??Measurement_1:
        DATA32
        DC32     _ZTV11Measurement+0x8
          CFI EndBlock cfiBlock265

        SECTION `.text`:CODE:REORDER:NOROOT(1)
        SECTION_GROUP _ZN11Measurement8GetValueEv
          CFI Block cfiBlock266 Using cfiCommon0
          CFI Function _ZN11Measurement8GetValueEv
        THUMB
// __interwork __vfp double Measurement::GetValue()
_ZN11Measurement8GetValueEv:
        PUSH     {R4,LR}
          CFI R14 Frame(CFA, -4)
          CFI R4 Frame(CFA, -8)
          CFI CFA R13+8
        MOVS     R4,R0
        LDR      R0,[R4, #+4]
          CFI FunCall
        BLX      R0
        POP      {R4,PC}          ;; return
          CFI EndBlock cfiBlock266

        SECTION `.text`:CODE:REORDER:NOROOT(2)
        SECTION_GROUP _ZN11Measurement8GetValueE4Unit
          CFI Block cfiBlock267 Using cfiCommon0
          CFI Function _ZN11Measurement8GetValueE4Unit
        THUMB
// __interwork __vfp double Measurement::GetValue(Unit)
_ZN11Measurement8GetValueE4Unit:
        PUSH     {R3-R5,LR}
          CFI R14 Frame(CFA, -4)
          CFI R5 Frame(CFA, -8)
          CFI R4 Frame(CFA, -12)
          CFI CFA R13+16
        MOVS     R4,R0
        MOVS     R5,R1
        MOVS     R1,R5
        UXTB     R1,R1            ;; ZeroExt  R1,R1,#+24,#+24
        MOVS     R0,R4
          CFI FunCall _ZN11Measurement9CheckUnitE4Unit
        BL       _ZN11Measurement9CheckUnitE4Unit
        CMP      R0,#+0
        BNE.N    ??GetValue_2
        MOVS     R2,#+40
        LDR.N    R1,??GetValue_0
        LDR.N    R0,??GetValue_0+0x4
          CFI FunCall __aeabi_assert
        BL       __aeabi_assert
          CFI FunCall __iar_EmptyStepPoint
        BL       __iar_EmptyStepPoint
??GetValue_2:
        LDR      R0,[R4, #+4]
          CFI FunCall
        BLX      R0
        POP      {R0,R4,R5,PC}    ;; return
        DATA
??GetValue_0:
        DATA32
        DC32     _ZZN11Measurement8GetValueE4UnitEs_1
        DC32     _ZZN11Measurement8GetValueE4UnitEs_0
          CFI EndBlock cfiBlock267

        SECTION `.text`:CODE:REORDER:NOROOT(1)
        SECTION_GROUP _ZN11Measurement9CheckUnitE4Unit
          CFI Block cfiBlock268 Using cfiCommon0
          CFI Function _ZN11Measurement9CheckUnitE4Unit
          CFI NoCalls
        THUMB
// __interwork __vfp bool Measurement::CheckUnit(Unit)
_ZN11Measurement9CheckUnitE4Unit:
        PUSH     {R4,R5}
          CFI R5 Frame(CFA, -4)
          CFI R4 Frame(CFA, -8)
          CFI CFA R13+8
        MOVS     R2,R0
        MOVS     R0,#+0
        MOVS     R3,#+0
??CheckUnit_0:
        LDR      R4,[R2, #+12]
        CMP      R3,R4
        BCS.N    ??CheckUnit_1
        MOVS     R4,R1
        LDR      R5,[R2, #+8]
        LDRB     R5,[R5, R3]
        UXTB     R4,R4            ;; ZeroExt  R4,R4,#+24,#+24
        CMP      R4,R5
        BNE.N    ??CheckUnit_2
        MOVS     R4,#+1
        MOVS     R0,R4
??CheckUnit_2:
        ADDS     R3,R3,#+1
        B.N      ??CheckUnit_0
??CheckUnit_1:
        UXTB     R0,R0            ;; ZeroExt  R0,R0,#+24,#+24
        POP      {R4,R5}
          CFI R4 SameValue
          CFI R5 SameValue
          CFI CFA R13+0
        BX       LR               ;; return
          CFI EndBlock cfiBlock268

        SECTION `.text`:CODE:REORDER:NOROOT(2)
        SECTION_GROUP _ZN11Measurement12ShowUnitNameE4Unit
          CFI Block cfiBlock269 Using cfiCommon0
          CFI Function _ZN11Measurement12ShowUnitNameE4Unit
        THUMB
// __interwork __vfp void Measurement::ShowUnitName(Unit)
_ZN11Measurement12ShowUnitNameE4Unit:
        PUSH     {R3-R5,LR}
          CFI R14 Frame(CFA, -4)
          CFI R5 Frame(CFA, -8)
          CFI R4 Frame(CFA, -12)
          CFI CFA R13+16
        MOVS     R4,R0
        MOVS     R5,R1
        MOVS     R0,R4
          CFI FunCall _ZNSsC1Ev
        BL       _ZNSsC1Ev
        MOVS     R0,R5
        UXTB     R0,R0            ;; ZeroExt  R0,R0,#+24,#+24
        CMP      R0,#+0
        BEQ.N    ??ShowUnitName_1
        CMP      R0,#+2
        BEQ.N    ??ShowUnitName_2
        BCC.N    ??ShowUnitName_3
        CMP      R0,#+4
        BEQ.N    ??ShowUnitName_4
        BCC.N    ??ShowUnitName_5
        B.N      ??ShowUnitName_6
??ShowUnitName_1:
        LDR.N    R1,??ShowUnitName_0
        MOVS     R0,R4
          CFI FunCall _ZNSsaSEPKc
        BL       _ZNSsaSEPKc
        B.N      ??ShowUnitName_7
??ShowUnitName_3:
        LDR.N    R1,??ShowUnitName_0+0x4
        MOVS     R0,R4
          CFI FunCall _ZNSsaSEPKc
        BL       _ZNSsaSEPKc
        B.N      ??ShowUnitName_7
??ShowUnitName_2:
        LDR.N    R1,??ShowUnitName_0+0x8
        MOVS     R0,R4
          CFI FunCall _ZNSsaSEPKc
        BL       _ZNSsaSEPKc
        B.N      ??ShowUnitName_7
??ShowUnitName_5:
        LDR.N    R1,??ShowUnitName_0+0xC
        MOVS     R0,R4
          CFI FunCall _ZNSsaSEPKc
        BL       _ZNSsaSEPKc
        B.N      ??ShowUnitName_7
??ShowUnitName_4:
        LDR.N    R1,??ShowUnitName_0+0x10
        MOVS     R0,R4
          CFI FunCall _ZNSsaSEPKc
        BL       _ZNSsaSEPKc
        B.N      ??ShowUnitName_7
??ShowUnitName_6:
        MOVS     R2,#+77
        LDR.N    R1,??ShowUnitName_0+0x14
        LDR.N    R0,??ShowUnitName_0+0x18
          CFI FunCall __aeabi_assert
        BL       __aeabi_assert
          CFI FunCall __iar_EmptyStepPoint
        BL       __iar_EmptyStepPoint
??ShowUnitName_7:
        POP      {R0,R4,R5,PC}    ;; return
        DATA
??ShowUnitName_0:
        DATA32
        DC32     _ZZN11Measurement12ShowUnitNameE4UnitEs
        DC32     _ZZN11Measurement12ShowUnitNameE4UnitEs_0
        DC32     _ZZN11Measurement12ShowUnitNameE4UnitEs_1
        DC32     _ZZN11Measurement12ShowUnitNameE4UnitEs_2
        DC32     _ZZN11Measurement12ShowUnitNameE4UnitEs_3
        DC32     _ZZN11Measurement12ShowUnitNameE4UnitEs_6
        DC32     _ZZN11Measurement12ShowUnitNameE4UnitEs_5
          CFI EndBlock cfiBlock269

        SECTION `.text`:CODE:REORDER:NOROOT(1)
        SECTION_GROUP _ZN11TemperatureD1Ev
          CFI Block cfiBlock270 Using cfiCommon0
          CFI Function _ZN11TemperatureD1Ev
        THUMB
// __code __interwork __vfp Temperature::~Temperature()
_ZN11TemperatureD1Ev:
        PUSH     {R4,LR}
          CFI R14 Frame(CFA, -4)
          CFI R4 Frame(CFA, -8)
          CFI CFA R13+8
        MOVS     R4,R0
        MOVS     R0,R4
          CFI FunCall _ZN11MeasurementD2Ev
        BL       _ZN11MeasurementD2Ev
        MOVS     R0,R4
        POP      {R4,PC}          ;; return
          CFI EndBlock cfiBlock270

        SECTION `.text`:CODE:REORDER:NOROOT(2)
        SECTION_GROUP _ZN11TemperatureC1ESsPFdvE
          CFI Block cfiBlock271 Using cfiCommon0
          CFI Function _ZN11TemperatureC1ESsPFdvE
        THUMB
// __code __interwork __vfp Temperature::Temperature(std::string, double (*)())
_ZN11TemperatureC1ESsPFdvE:
        PUSH     {R4-R6,LR}
          CFI R14 Frame(CFA, -4)
          CFI R6 Frame(CFA, -8)
          CFI R5 Frame(CFA, -12)
          CFI R4 Frame(CFA, -16)
          CFI CFA R13+16
        SUB      SP,SP,#+32
          CFI CFA R13+48
        MOVS     R4,R0
        MOVS     R5,R1
        MOVS     R6,R2
        MOVS     R1,R5
        ADD      R0,SP,#+8
          CFI FunCall _ZNSsC1ERKSs
        BL       _ZNSsC1ERKSs
        STR      R6,[SP, #+4]
        MOVS     R1,#+2
        STR      R1,[SP, #+0]
        MOVS     R3,#+3
        LDR.N    R2,??Temperature_0
        MOVS     R1,R0
        MOVS     R0,R4
          CFI FunCall _ZN11MeasurementC2ESsP4UnitjS0_PFdvE
        BL       _ZN11MeasurementC2ESsP4UnitjS0_PFdvE
        ADD      R0,SP,#+8
          CFI FunCall _ZNSsD1Ev
        BL       _ZNSsD1Ev
        LDR.N    R0,??Temperature_0+0x4
        STR      R0,[R4, #+0]
        MOVS     R0,R4
        ADD      SP,SP,#+32
          CFI CFA R13+16
        POP      {R4-R6,PC}       ;; return
        DATA
??Temperature_0:
        DATA32
        DC32     temperatureUnits
        DC32     _ZTV11Temperature+0x8
          CFI EndBlock cfiBlock271

        SECTION `.text`:CODE:REORDER:NOROOT(1)
        SECTION_GROUP _ZN11Temperature8GetValueEv
          CFI Block cfiBlock272 Using cfiCommon0
          CFI Function _ZN11Temperature8GetValueEv
        THUMB
// __interwork __vfp double Temperature::GetValue()
_ZN11Temperature8GetValueEv:
        PUSH     {R4,LR}
          CFI R14 Frame(CFA, -4)
          CFI R4 Frame(CFA, -8)
          CFI CFA R13+8
        MOVS     R4,R0
        LDR      R0,[R4, #+4]
          CFI FunCall
        BLX      R0
        POP      {R4,PC}          ;; return
          CFI EndBlock cfiBlock272

        SECTION `.text`:CODE:REORDER:NOROOT(2)
        SECTION_GROUP _ZN11Temperature8GetValueE4Unit
          CFI Block cfiBlock273 Using cfiCommon0
          CFI Function _ZN11Temperature8GetValueE4Unit
        THUMB
// __interwork __vfp double Temperature::GetValue(Unit)
_ZN11Temperature8GetValueE4Unit:
        PUSH     {R3-R5,LR}
          CFI R14 Frame(CFA, -4)
          CFI R5 Frame(CFA, -8)
          CFI R4 Frame(CFA, -12)
          CFI CFA R13+16
        VPUSH    {D8}
          CFI D8 Frame(CFA, -24)
          CFI CFA R13+24
        MOVS     R4,R0
        MOVS     R5,R1
        MOVS     R0,R5
        UXTB     R0,R0            ;; ZeroExt  R0,R0,#+24,#+24
        CMP      R0,#+0
        BEQ.N    ??GetValue_3
        CMP      R0,#+2
        BEQ.N    ??GetValue_4
        BCC.N    ??GetValue_5
        B.N      ??GetValue_6
??GetValue_4:
        MOVS     R0,R4
          CFI FunCall _ZN11Measurement8GetValueEv
        BL       _ZN11Measurement8GetValueEv
        VMOV.F32 S16,S0
        VMOV.F32 S17,S1
        B.N      ??GetValue_7
??GetValue_3:
        MOVS     R0,R4
        LDR      R1,[R4, #+0]
        LDR      R1,[R1, #+0]
          CFI FunCall
        BLX      R1
        VMOV     R2,R3,D0
        MOVS     R0,#+1717986918
        LDR.N    R1,??GetValue_1  ;; 0x40711266
          CFI FunCall __aeabi_dadd
        BL       __aeabi_dadd
        VMOV     D8,R0,R1
        B.N      ??GetValue_7
??GetValue_5:
        MOVS     R0,R4
        LDR      R1,[R4, #+0]
        LDR      R1,[R1, #+0]
          CFI FunCall
        BLX      R1
        VMOV     R2,R3,D0
        LDR.N    R0,??GetValue_1+0x4  ;; 0xcccccccd
        LDR.N    R1,??GetValue_1+0x8  ;; 0x3ffccccc
          CFI FunCall __aeabi_dmul
        BL       __aeabi_dmul
        MOVS     R2,#+0
        LDR.N    R3,??GetValue_1+0xC  ;; 0x40400000
          CFI FunCall __aeabi_dadd
        BL       __aeabi_dadd
        VMOV     D8,R0,R1
        B.N      ??GetValue_7
??GetValue_6:
        MOVS     R2,#+32
        LDR.N    R1,??GetValue_1+0x10
        LDR.N    R0,??GetValue_1+0x14
          CFI FunCall __aeabi_assert
        BL       __aeabi_assert
          CFI FunCall __iar_EmptyStepPoint
        BL       __iar_EmptyStepPoint
??GetValue_7:
        VMOV.F32 S0,S16
        VMOV.F32 S1,S17
        VPOP     {D8}
          CFI D8 SameValue
          CFI CFA R13+16
        POP      {R0,R4,R5,PC}    ;; return
        DATA
??GetValue_1:
        DATA32
        DC32     0x40711266
        DC32     0xcccccccd
        DC32     0x3ffccccc
        DC32     0x40400000
        DC32     _ZZN11Temperature8GetValueE4UnitEs_1
        DC32     _ZZN11Temperature8GetValueE4UnitEs_0
          CFI EndBlock cfiBlock273

        SECTION `.text`:CODE:REORDER:NOROOT(2)
        SECTION_GROUP _ZN13BluetoothTaskC1Ev
          CFI Block cfiBlock274 Using cfiCommon0
          CFI Function _ZN13BluetoothTaskC1Ev
        THUMB
// __code __interwork __vfp BluetoothTask::BluetoothTask()
_ZN13BluetoothTaskC1Ev:
        PUSH     {R4,LR}
          CFI R14 Frame(CFA, -4)
          CFI R4 Frame(CFA, -8)
          CFI CFA R13+8
        MOVS     R4,R0
        MOVS     R0,R4
          CFI FunCall _ZN9OsWrapper6ThreadILj400EEC2Ev
        BL       _ZN9OsWrapper6ThreadILj400EEC2Ev
        LDR.N    R0,??BluetoothTask_0
        STR      R0,[R4, #+0]
        LDR.N    R0,??BluetoothTask_0+0x4
        LDRD     R2,R3,[R0, #+0]
        ADDS     R0,R4,#+1696
        STRD     R2,R3,[R0, #+0]
        MOVS     R0,R4
        POP      {R4,PC}          ;; return
        DATA
??BluetoothTask_0:
        DATA32
        DC32     _ZTV13BluetoothTask+0x8
        DC32     ?_9
          CFI EndBlock cfiBlock274

        SECTION `.text`:CODE:REORDER:NOROOT(2)
        SECTION_GROUP _ZN13BluetoothTask7ExecuteEv
          CFI Block cfiBlock275 Using cfiCommon0
          CFI Function _ZN13BluetoothTask7ExecuteEv
        THUMB
// __interwork __vfp void BluetoothTask::Execute()
_ZN13BluetoothTask7ExecuteEv:
        PUSH     {R4-R8,LR}
          CFI R14 Frame(CFA, -4)
          CFI R8 Frame(CFA, -8)
          CFI R7 Frame(CFA, -12)
          CFI R6 Frame(CFA, -16)
          CFI R5 Frame(CFA, -20)
          CFI R4 Frame(CFA, -24)
          CFI CFA R13+24
        VPUSH    {D8}
          CFI D8 Frame(CFA, -32)
          CFI CFA R13+32
        SUB      SP,SP,#+288
          CFI CFA R13+320
        MOVS     R4,R0
??Execute_3:
        MOVS     R1,#+150
        MOVS     R2,#+0
        ADD      R5,SP,#+136
        MOVS     R0,R5
          CFI FunCall __aeabi_memset
        BL       __aeabi_memset
        MOVS     R5,#+0
??Execute_4:
        CMP      R5,#+4
        BGE.N    ??Execute_5
        MOVS     R1,#+100
        MOVS     R2,#+0
        ADD      R6,SP,#+36
        MOVS     R0,R6
          CFI FunCall __aeabi_memset
        BL       __aeabi_memset
        LDR.N    R7,??Execute_0
        LDRB     R1,[R7, R5]
        ADD      R0,SP,#+12
          CFI FunCall _ZN11Measurement12ShowUnitNameE4Unit
        BL       _ZN11Measurement12ShowUnitNameE4Unit
        ADD      R0,SP,#+12
          CFI FunCall _ZNKSs5c_strEv
        BL       _ZNKSs5c_strEv
        MOVS     R6,R0
        LDR.W    R8,??Execute_0+0x4
        LDRB     R1,[R7, R5]
        LDR      R0,[R8, R5, LSL #+2]
        LDR      R2,[R8, R5, LSL #+2]
        LDR      R2,[R2, #+0]
        LDR      R2,[R2, #+4]
          CFI FunCall
        BLX      R2
        VMOV.F32 S16,S0
        VMOV.F32 S17,S1
        LDR      R0,[R8, R5, LSL #+2]
        ADDS     R0,R0,#+20
          CFI FunCall _ZNKSs5c_strEv
        BL       _ZNKSs5c_strEv
        MOVS     R2,R0
        STR      R6,[SP, #+8]
        VSTR     D8,[SP, #+0]
        LDR.N    R1,??Execute_0+0x8
        ADD      R0,SP,#+36
          CFI FunCall sprintf
        BL       sprintf
        ADD      R0,SP,#+12
          CFI FunCall _ZNSsD1Ev
        BL       _ZNSsD1Ev
        MOVS     R2,#+100
        ADD      R1,SP,#+36
        ADD      R0,SP,#+136
          CFI FunCall strncat
        BL       strncat
        ADDS     R5,R5,#+1
        B.N      ??Execute_4
??Execute_5:
        ADD      R0,SP,#+136
          CFI FunCall strlen
        BL       strlen
        MOVS     R5,R0
        ADDS     R5,R5,#+1
        MOVS     R2,R5
        ADD      R1,SP,#+136
        LDR.N    R0,??Execute_0+0xC
          CFI FunCall _ZN11usartDriverI6usart2E11SendMessageEPcj
        BL       _ZN11usartDriverI6usart2E11SendMessageEPcj
          CFI FunCall _ZN3LedI3PinI4PortI5GPIOAELh5EEE6ToggleEv
        BL       _ZN3LedI3PinI4PortI5GPIOAELh5EEE6ToggleEv
        ADDS     R2,R4,#+1696
        LDRD     R0,R1,[R2, #+0]
          CFI FunCall _ZN9OsWrapper7IThread5SleepENSt6chrono8durationIxSt5ratioILx1ELx1000EEEE
        BL       _ZN9OsWrapper7IThread5SleepENSt6chrono8durationIxSt5ratioILx1ELx1000EEEE
        B.N      ??Execute_3
        DATA
??Execute_0:
        DATA32
        DC32     userUnits
        DC32     measurements
        DC32     _ZZN13BluetoothTask7ExecuteEvEs
        DC32     bluetoothTransceiver
          CFI EndBlock cfiBlock275

        SECTION `.text`:CODE:REORDER:NOROOT(2)
        SECTION_GROUP _ZN15ButtonEventTaskI6ButtonI3PinI4PortI5GPIOCELh13EEEL_Z5eventEEC1Ev
          CFI Block cfiBlock276 Using cfiCommon0
          CFI Function _ZN15ButtonEventTaskI6ButtonI3PinI4PortI5GPIOCELh13EEEL_Z5eventEEC1Ev
        THUMB
// __code __interwork __vfp ButtonEventTask<UserButton, event>::ButtonEventTask()
_ZN15ButtonEventTaskI6ButtonI3PinI4PortI5GPIOCELh13EEEL_Z5eventEEC1Ev:
        PUSH     {R4,LR}
          CFI R14 Frame(CFA, -4)
          CFI R4 Frame(CFA, -8)
          CFI CFA R13+8
        MOVS     R4,R0
        MOVS     R0,R4
          CFI FunCall _ZN9OsWrapper6ThreadILj128EEC2Ev
        BL       _ZN9OsWrapper6ThreadILj128EEC2Ev
        LDR.N    R0,??ButtonEventTask_0
        STR      R0,[R4, #+0]
          CFI FunCall _ZN6ButtonI3PinI4PortI5GPIOCELh13EEE6EnableEv
        BL       _ZN6ButtonI3PinI4PortI5GPIOCELh13EEE6EnableEv
        MOVS     R0,R4
        POP      {R4,PC}          ;; return
        Nop      
        DATA
??ButtonEventTask_0:
        DATA32
        DC32     _ZTV15ButtonEventTaskI6ButtonI3PinI4PortI5GPIOCELh13EEEL_Z5eventEE+0x8
          CFI EndBlock cfiBlock276

        SECTION `.text`:CODE:REORDER:NOROOT(2)
        SECTION_GROUP _ZN15ButtonEventTaskI6ButtonI3PinI4PortI5GPIOCELh13EEEL_Z5eventEE7ExecuteEv
          CFI Block cfiBlock277 Using cfiCommon0
          CFI Function _ZN15ButtonEventTaskI6ButtonI3PinI4PortI5GPIOCELh13EEEL_Z5eventEE7ExecuteEv
        THUMB
// __interwork __vfp void ButtonEventTask<UserButton, event>::Execute()
_ZN15ButtonEventTaskI6ButtonI3PinI4PortI5GPIOCELh13EEEL_Z5eventEE7ExecuteEv:
        PUSH     {R4,LR}
          CFI R14 Frame(CFA, -4)
          CFI R4 Frame(CFA, -8)
          CFI CFA R13+8
        MOVS     R4,R0
??Execute_6:
          CFI FunCall _ZN6ButtonI3PinI4PortI5GPIOCELh13EEE10WasPressedEv
        BL       _ZN6ButtonI3PinI4PortI5GPIOCELh13EEE10WasPressedEv
        CMP      R0,#+0
        BEQ.N    ??Execute_6
        LDR.N    R0,??Execute_1
          CFI FunCall _ZN9OsWrapper5Event6SignalEv
        BL       _ZN9OsWrapper5Event6SignalEv
        LDR.N    R2,??Execute_1+0x4
        LDRD     R0,R1,[R2, #+0]
          CFI FunCall _ZN9OsWrapper7IThread5SleepENSt6chrono8durationIxSt5ratioILx1ELx1000EEEE
        BL       _ZN9OsWrapper7IThread5SleepENSt6chrono8durationIxSt5ratioILx1ELx1000EEEE
        B.N      ??Execute_6
        Nop      
        DATA
??Execute_1:
        DATA32
        DC32     event
        DC32     ?_3
          CFI EndBlock cfiBlock277

        SECTION `.text`:CODE:REORDER:NOROOT(2)
        SECTION_GROUP _ZN15MeasurementTaskC1ERN9OsWrapper5EventE
          CFI Block cfiBlock278 Using cfiCommon0
          CFI Function _ZN15MeasurementTaskC1ERN9OsWrapper5EventE
        THUMB
// __code __interwork __vfp MeasurementTask::MeasurementTask(OsWrapper::Event &)
_ZN15MeasurementTaskC1ERN9OsWrapper5EventE:
        PUSH     {R3-R5,LR}
          CFI R14 Frame(CFA, -4)
          CFI R5 Frame(CFA, -8)
          CFI R4 Frame(CFA, -12)
          CFI CFA R13+16
        MOVS     R4,R0
        MOVS     R5,R1
        MOVS     R0,R4
          CFI FunCall _ZN9OsWrapper6ThreadILj128EEC2Ev
        BL       _ZN9OsWrapper6ThreadILj128EEC2Ev
        LDR.N    R0,??MeasurementTask_0
        STR      R0,[R4, #+0]
        STR      R5,[R4, #+604]
        LDR.N    R0,??MeasurementTask_0+0x4
        LDRD     R2,R3,[R0, #+0]
        ADDS     R0,R4,#+608
        STRD     R2,R3,[R0, #+0]
        MOVS     R0,R4
        POP      {R1,R4,R5,PC}    ;; return
        Nop      
        DATA
??MeasurementTask_0:
        DATA32
        DC32     _ZTV15MeasurementTask+0x8
        DC32     ?_10
          CFI EndBlock cfiBlock278

        SECTION `.text`:CODE:REORDER:NOROOT(2)
        SECTION_GROUP _ZN15MeasurementTask7ExecuteEv
          CFI Block cfiBlock279 Using cfiCommon0
          CFI Function _ZN15MeasurementTask7ExecuteEv
        THUMB
// __interwork __vfp void MeasurementTask::Execute()
_ZN15MeasurementTask7ExecuteEv:
        PUSH     {R4,LR}
          CFI R14 Frame(CFA, -4)
          CFI R4 Frame(CFA, -8)
          CFI CFA R13+8
        MOVS     R4,R0
??Execute_7:
        LDR.N    R0,??Execute_2
          CFI FunCall _ZN12BME280DriverIL_Z15spi2TransceiverE3PinI4PortI5GPIOCELh6EEE7MeasureEv
        BL       _ZN12BME280DriverIL_Z15spi2TransceiverE3PinI4PortI5GPIOCELh6EEE7MeasureEv
          CFI FunCall _ZN3LedI3PinI4PortI5GPIOCELh9EEE6ToggleEv
        BL       _ZN3LedI3PinI4PortI5GPIOCELh9EEE6ToggleEv
        ADDS     R2,R4,#+608
        LDRD     R0,R1,[R2, #+0]
          CFI FunCall _ZN9OsWrapper7IThread5SleepENSt6chrono8durationIxSt5ratioILx1ELx1000EEEE
        BL       _ZN9OsWrapper7IThread5SleepENSt6chrono8durationIxSt5ratioILx1ELx1000EEEE
        MOVS     R2,#+255
        MOVS     R1,#+0
        LDR      R0,[R4, #+604]
          CFI FunCall _ZNK9OsWrapper5Event4WaitENS_9EventModeEj
        BL       _ZNK9OsWrapper5Event4WaitENS_9EventModeEj
        CMP      R0,#+0
        BEQ.N    ??Execute_7
        MOVS     R0,R4
          CFI FunCall _ZN15MeasurementTask11UnitsUpdateEv
        BL       _ZN15MeasurementTask11UnitsUpdateEv
        B.N      ??Execute_7
        Nop      
        DATA
??Execute_2:
        DATA32
        DC32     bme280
          CFI EndBlock cfiBlock279

        SECTION `.text`:CODE:REORDER:NOROOT(2)
        SECTION_GROUP _ZN15MeasurementTask11UnitsUpdateEv
          CFI Block cfiBlock280 Using cfiCommon0
          CFI Function _ZN15MeasurementTask11UnitsUpdateEv
          CFI NoCalls
        THUMB
// __interwork __vfp void MeasurementTask::UnitsUpdate()
_ZN15MeasurementTask11UnitsUpdateEv:
        LDR.N    R1,??UnitsUpdate_0
        LDR      R2,[R1, #+0]
        CMP      R2,#+2
        BGE.N    ??UnitsUpdate_1
        LDR      R2,[R1, #+0]
        ADDS     R2,R2,#+1
        STR      R2,[R1, #+0]
        B.N      ??UnitsUpdate_2
??UnitsUpdate_1:
        MOVS     R2,#+0
        STR      R2,[R1, #+0]
??UnitsUpdate_2:
        LDR      R1,[R1, #+0]
        CMP      R1,#+0
        BEQ.N    ??UnitsUpdate_3
        CMP      R1,#+2
        BEQ.N    ??UnitsUpdate_4
        BCC.N    ??UnitsUpdate_5
        B.N      ??UnitsUpdate_6
??UnitsUpdate_3:
        LDR.N    R1,??UnitsUpdate_0+0x4
        MOVS     R2,#+1
        STRB     R2,[R1, #+0]
        MOVS     R2,#+1
        STRB     R2,[R1, #+3]
        B.N      ??UnitsUpdate_6
??UnitsUpdate_5:
        LDR.N    R1,??UnitsUpdate_0+0x4
        MOVS     R2,#+0
        STRB     R2,[R1, #+0]
        MOVS     R2,#+0
        STRB     R2,[R1, #+3]
        B.N      ??UnitsUpdate_6
??UnitsUpdate_4:
        LDR.N    R1,??UnitsUpdate_0+0x4
        MOVS     R2,#+2
        STRB     R2,[R1, #+0]
        MOVS     R2,#+2
        STRB     R2,[R1, #+3]
??UnitsUpdate_6:
        BX       LR               ;; return
        Nop      
        DATA
??UnitsUpdate_0:
        DATA32
        DC32     _ZZN15MeasurementTask11UnitsUpdateEvE7counter
        DC32     userUnits
          CFI EndBlock cfiBlock280

        SECTION `.text`:CODE:REORDER:NOROOT(1)
        SECTION_GROUP _ZN16Exh001ActionBase2DoEv
          CFI Block cfiBlock281 Using cfiCommon0
          CFI Function _ZN16Exh001ActionBase2DoEv
          CFI NoCalls
        THUMB
// __interwork __vfp void Exh001ActionBase::Do()
_ZN16Exh001ActionBase2DoEv:
        BX       LR               ;; return
          CFI EndBlock cfiBlock281

        SECTION `.text`:CODE:REORDER:NOROOT(1)
        SECTION_GROUP _ZN15EPDDriver4inch2IL_Z15spi1TransceiverE3PinI4PortI5GPIOBELh13EES0_IS3_Lh14EES0_IS3_Lh15EES0_IS3_Lh1EEE13CircuitSelectEv
          CFI Block cfiBlock282 Using cfiCommon0
          CFI Function _ZN15EPDDriver4inch2IL_Z15spi1TransceiverE3PinI4PortI5GPIOBELh13EES0_IS3_Lh14EES0_IS3_Lh15EES0_IS3_Lh1EEE13CircuitSelectEv
        THUMB
// __interwork __vfp void EPDDriver4inch2<spi1Transceiver, PinCSforEPD, PinDCforEPD, PinRSTforEPD, PinBSYforEPD>::CircuitSelect()
_ZN15EPDDriver4inch2IL_Z15spi1TransceiverE3PinI4PortI5GPIOBELh13EES0_IS3_Lh14EES0_IS3_Lh15EES0_IS3_Lh1EEE13CircuitSelectEv:
        PUSH     {R4,LR}
          CFI R14 Frame(CFA, -4)
          CFI R4 Frame(CFA, -8)
          CFI CFA R13+8
        MOVS     R4,R0
          CFI FunCall _ZN3PinI4PortI5GPIOBELh13EE5ResetEv
        BL       _ZN3PinI4PortI5GPIOBELh13EE5ResetEv
        POP      {R4,PC}          ;; return
          CFI EndBlock cfiBlock282

        SECTION `.text`:CODE:REORDER:NOROOT(1)
        SECTION_GROUP _ZN15EPDDriver4inch2IL_Z15spi1TransceiverE3PinI4PortI5GPIOBELh13EES0_IS3_Lh14EES0_IS3_Lh15EES0_IS3_Lh1EEE15CircuitDeselectEv
          CFI Block cfiBlock283 Using cfiCommon0
          CFI Function _ZN15EPDDriver4inch2IL_Z15spi1TransceiverE3PinI4PortI5GPIOBELh13EES0_IS3_Lh14EES0_IS3_Lh15EES0_IS3_Lh1EEE15CircuitDeselectEv
        THUMB
// __interwork __vfp void EPDDriver4inch2<spi1Transceiver, PinCSforEPD, PinDCforEPD, PinRSTforEPD, PinBSYforEPD>::CircuitDeselect()
_ZN15EPDDriver4inch2IL_Z15spi1TransceiverE3PinI4PortI5GPIOBELh13EES0_IS3_Lh14EES0_IS3_Lh15EES0_IS3_Lh1EEE15CircuitDeselectEv:
        PUSH     {R4,LR}
          CFI R14 Frame(CFA, -4)
          CFI R4 Frame(CFA, -8)
          CFI CFA R13+8
        MOVS     R4,R0
          CFI FunCall _ZN3PinI4PortI5GPIOBELh13EE3SetEv
        BL       _ZN3PinI4PortI5GPIOBELh13EE3SetEv
        POP      {R4,PC}          ;; return
          CFI EndBlock cfiBlock283

        SECTION `.text`:CODE:REORDER:NOROOT(1)
        SECTION_GROUP _ZN15EPDDriver4inch2IL_Z15spi1TransceiverE3PinI4PortI5GPIOBELh13EES0_IS3_Lh14EES0_IS3_Lh15EES0_IS3_Lh1EEE7CommandEv
          CFI Block cfiBlock284 Using cfiCommon0
          CFI Function _ZN15EPDDriver4inch2IL_Z15spi1TransceiverE3PinI4PortI5GPIOBELh13EES0_IS3_Lh14EES0_IS3_Lh15EES0_IS3_Lh1EEE7CommandEv
        THUMB
// __interwork __vfp void EPDDriver4inch2<spi1Transceiver, PinCSforEPD, PinDCforEPD, PinRSTforEPD, PinBSYforEPD>::Command()
_ZN15EPDDriver4inch2IL_Z15spi1TransceiverE3PinI4PortI5GPIOBELh13EES0_IS3_Lh14EES0_IS3_Lh15EES0_IS3_Lh1EEE7CommandEv:
        PUSH     {R4,LR}
          CFI R14 Frame(CFA, -4)
          CFI R4 Frame(CFA, -8)
          CFI CFA R13+8
        MOVS     R4,R0
          CFI FunCall _ZN3PinI4PortI5GPIOBELh14EE5ResetEv
        BL       _ZN3PinI4PortI5GPIOBELh14EE5ResetEv
        POP      {R4,PC}          ;; return
          CFI EndBlock cfiBlock284

        SECTION `.text`:CODE:REORDER:NOROOT(1)
        SECTION_GROUP _ZN15EPDDriver4inch2IL_Z15spi1TransceiverE3PinI4PortI5GPIOBELh13EES0_IS3_Lh14EES0_IS3_Lh15EES0_IS3_Lh1EEE4DataEv
          CFI Block cfiBlock285 Using cfiCommon0
          CFI Function _ZN15EPDDriver4inch2IL_Z15spi1TransceiverE3PinI4PortI5GPIOBELh13EES0_IS3_Lh14EES0_IS3_Lh15EES0_IS3_Lh1EEE4DataEv
        THUMB
// __interwork __vfp void EPDDriver4inch2<spi1Transceiver, PinCSforEPD, PinDCforEPD, PinRSTforEPD, PinBSYforEPD>::Data()
_ZN15EPDDriver4inch2IL_Z15spi1TransceiverE3PinI4PortI5GPIOBELh13EES0_IS3_Lh14EES0_IS3_Lh15EES0_IS3_Lh1EEE4DataEv:
        PUSH     {R4,LR}
          CFI R14 Frame(CFA, -4)
          CFI R4 Frame(CFA, -8)
          CFI CFA R13+8
        MOVS     R4,R0
          CFI FunCall _ZN3PinI4PortI5GPIOBELh14EE3SetEv
        BL       _ZN3PinI4PortI5GPIOBELh14EE3SetEv
        POP      {R4,PC}          ;; return
          CFI EndBlock cfiBlock285

        SECTION `.text`:CODE:REORDER:NOROOT(2)
        SECTION_GROUP _ZN15EPDDriver4inch2IL_Z15spi1TransceiverE3PinI4PortI5GPIOBELh13EES0_IS3_Lh14EES0_IS3_Lh15EES0_IS3_Lh1EEE8Delay_msEy
          CFI Block cfiBlock286 Using cfiCommon0
          CFI Function _ZN15EPDDriver4inch2IL_Z15spi1TransceiverE3PinI4PortI5GPIOBELh13EES0_IS3_Lh14EES0_IS3_Lh15EES0_IS3_Lh1EEE8Delay_msEy
        THUMB
// __interwork __vfp void EPDDriver4inch2<spi1Transceiver, PinCSforEPD, PinDCforEPD, PinRSTforEPD, PinBSYforEPD>::Delay_ms(uint64_t)
_ZN15EPDDriver4inch2IL_Z15spi1TransceiverE3PinI4PortI5GPIOBELh13EES0_IS3_Lh14EES0_IS3_Lh15EES0_IS3_Lh1EEE8Delay_msEy:
        PUSH     {R4-R6,LR}
          CFI R14 Frame(CFA, -4)
          CFI R6 Frame(CFA, -8)
          CFI R5 Frame(CFA, -12)
          CFI R4 Frame(CFA, -16)
          CFI CFA R13+16
        MOVS     R6,R0
        MOVS     R4,R2
        MOVS     R5,R3
        LDR.N    R0,??Delay_ms_0
        LDR      R2,[R0, #+0]
        MOVS     R3,#+0
        UMULL    R0,R1,R2,R4
        MLA      R1,R2,R5,R1
        MLA      R1,R3,R4,R1
        MOVW     R2,#+3000
        MOVS     R3,#+0
          CFI FunCall __aeabi_uldivmod
        BL       __aeabi_uldivmod
          CFI FunCall SysCtlDelay
        BL       SysCtlDelay
        POP      {R4-R6,PC}       ;; return
        Nop      
        DATA
??Delay_ms_0:
        DATA32
        DC32     SystemCoreClock
          CFI EndBlock cfiBlock286

        SECTION `.text`:CODE:REORDER:NOROOT(1)
        SECTION_GROUP _ZN15EPDDriver4inch2IL_Z15spi1TransceiverE3PinI4PortI5GPIOBELh13EES0_IS3_Lh14EES0_IS3_Lh15EES0_IS3_Lh1EEEC1Ev
          CFI Block cfiBlock287 Using cfiCommon0
          CFI Function _ZN15EPDDriver4inch2IL_Z15spi1TransceiverE3PinI4PortI5GPIOBELh13EES0_IS3_Lh14EES0_IS3_Lh15EES0_IS3_Lh1EEEC1Ev
        THUMB
// __code __interwork __vfp EPDDriver4inch2<spi1Transceiver, PinCSforEPD, PinDCforEPD, PinRSTforEPD, PinBSYforEPD>::EPDDriver4inch2()
_ZN15EPDDriver4inch2IL_Z15spi1TransceiverE3PinI4PortI5GPIOBELh13EES0_IS3_Lh14EES0_IS3_Lh15EES0_IS3_Lh1EEEC1Ev:
        PUSH     {R4,LR}
          CFI R14 Frame(CFA, -4)
          CFI R4 Frame(CFA, -8)
          CFI CFA R13+8
        MOVS     R4,R0
          CFI FunCall _ZN3PinI4PortI5GPIOBELh13EE3SetEv
        BL       _ZN3PinI4PortI5GPIOBELh13EE3SetEv
          CFI FunCall _ZN3PinI4PortI5GPIOBELh14EE3SetEv
        BL       _ZN3PinI4PortI5GPIOBELh14EE3SetEv
          CFI FunCall _ZN3PinI4PortI5GPIOBELh15EE3SetEv
        BL       _ZN3PinI4PortI5GPIOBELh15EE3SetEv
        MOVS     R0,R4
        POP      {R4,PC}          ;; return
          CFI EndBlock cfiBlock287

        SECTION `.text`:CODE:REORDER:NOROOT(2)
        SECTION_GROUP _ZN15EPDDriver4inch2IL_Z15spi1TransceiverE3PinI4PortI5GPIOBELh13EES0_IS3_Lh14EES0_IS3_Lh15EES0_IS3_Lh1EEE8SendDataEc
          CFI Block cfiBlock288 Using cfiCommon0
          CFI Function _ZN15EPDDriver4inch2IL_Z15spi1TransceiverE3PinI4PortI5GPIOBELh13EES0_IS3_Lh14EES0_IS3_Lh15EES0_IS3_Lh1EEE8SendDataEc
        THUMB
// __interwork __vfp void EPDDriver4inch2<spi1Transceiver, PinCSforEPD, PinDCforEPD, PinRSTforEPD, PinBSYforEPD>::SendData(char)
_ZN15EPDDriver4inch2IL_Z15spi1TransceiverE3PinI4PortI5GPIOBELh13EES0_IS3_Lh14EES0_IS3_Lh15EES0_IS3_Lh1EEE8SendDataEc:
        PUSH     {R4-R6,LR}
          CFI R14 Frame(CFA, -4)
          CFI R6 Frame(CFA, -8)
          CFI R5 Frame(CFA, -12)
          CFI R4 Frame(CFA, -16)
          CFI CFA R13+16
        MOVS     R4,R0
        MOVS     R5,R1
        LDR.N    R6,??SendData_0
        MOVS     R1,#+0
        MOVS     R0,R6
          CFI FunCall _ZN9SpiDriverI4spi1E20SetReceivedMesLengthEj
        BL       _ZN9SpiDriverI4spi1E20SetReceivedMesLengthEj
        MOVS     R0,R4
          CFI FunCall _ZN15EPDDriver4inch2IL_Z15spi1TransceiverE3PinI4PortI5GPIOBELh13EES0_IS3_Lh14EES0_IS3_Lh15EES0_IS3_Lh1EEE13CircuitSelectEv
        BL       _ZN15EPDDriver4inch2IL_Z15spi1TransceiverE3PinI4PortI5GPIOBELh13EES0_IS3_Lh14EES0_IS3_Lh15EES0_IS3_Lh1EEE13CircuitSelectEv
        MOVS     R0,R4
          CFI FunCall _ZN15EPDDriver4inch2IL_Z15spi1TransceiverE3PinI4PortI5GPIOBELh13EES0_IS3_Lh14EES0_IS3_Lh15EES0_IS3_Lh1EEE4DataEv
        BL       _ZN15EPDDriver4inch2IL_Z15spi1TransceiverE3PinI4PortI5GPIOBELh13EES0_IS3_Lh14EES0_IS3_Lh15EES0_IS3_Lh1EEE4DataEv
        MOVS     R1,R5
        UXTB     R1,R1            ;; ZeroExt  R1,R1,#+24,#+24
        MOVS     R0,R6
          CFI FunCall _ZN9SpiDriverI4spi1E8SendByteEc
        BL       _ZN9SpiDriverI4spi1E8SendByteEc
??SendData_1:
        MOVS     R0,R6
          CFI FunCall _ZN9SpiDriverI4spi1E19IsMessageTransmitedEv
        BL       _ZN9SpiDriverI4spi1E19IsMessageTransmitedEv
        CMP      R0,#+0
        BEQ.N    ??SendData_1
        MOVS     R0,R4
          CFI FunCall _ZN15EPDDriver4inch2IL_Z15spi1TransceiverE3PinI4PortI5GPIOBELh13EES0_IS3_Lh14EES0_IS3_Lh15EES0_IS3_Lh1EEE15CircuitDeselectEv
        BL       _ZN15EPDDriver4inch2IL_Z15spi1TransceiverE3PinI4PortI5GPIOBELh13EES0_IS3_Lh14EES0_IS3_Lh15EES0_IS3_Lh1EEE15CircuitDeselectEv
        POP      {R4-R6,PC}       ;; return
        DATA
??SendData_0:
        DATA32
        DC32     spi1Transceiver
          CFI EndBlock cfiBlock288

        SECTION `.text`:CODE:REORDER:NOROOT(2)
        SECTION_GROUP _ZN15EPDDriver4inch2IL_Z15spi1TransceiverE3PinI4PortI5GPIOBELh13EES0_IS3_Lh14EES0_IS3_Lh15EES0_IS3_Lh1EEE11SendCommandEc
          CFI Block cfiBlock289 Using cfiCommon0
          CFI Function _ZN15EPDDriver4inch2IL_Z15spi1TransceiverE3PinI4PortI5GPIOBELh13EES0_IS3_Lh14EES0_IS3_Lh15EES0_IS3_Lh1EEE11SendCommandEc
        THUMB
// __interwork __vfp void EPDDriver4inch2<spi1Transceiver, PinCSforEPD, PinDCforEPD, PinRSTforEPD, PinBSYforEPD>::SendCommand(char)
_ZN15EPDDriver4inch2IL_Z15spi1TransceiverE3PinI4PortI5GPIOBELh13EES0_IS3_Lh14EES0_IS3_Lh15EES0_IS3_Lh1EEE11SendCommandEc:
        PUSH     {R4-R6,LR}
          CFI R14 Frame(CFA, -4)
          CFI R6 Frame(CFA, -8)
          CFI R5 Frame(CFA, -12)
          CFI R4 Frame(CFA, -16)
          CFI CFA R13+16
        MOVS     R4,R0
        MOVS     R5,R1
        MOVS     R0,R4
          CFI FunCall _ZN15EPDDriver4inch2IL_Z15spi1TransceiverE3PinI4PortI5GPIOBELh13EES0_IS3_Lh14EES0_IS3_Lh15EES0_IS3_Lh1EEE13CircuitSelectEv
        BL       _ZN15EPDDriver4inch2IL_Z15spi1TransceiverE3PinI4PortI5GPIOBELh13EES0_IS3_Lh14EES0_IS3_Lh15EES0_IS3_Lh1EEE13CircuitSelectEv
        MOVS     R0,R4
          CFI FunCall _ZN15EPDDriver4inch2IL_Z15spi1TransceiverE3PinI4PortI5GPIOBELh13EES0_IS3_Lh14EES0_IS3_Lh15EES0_IS3_Lh1EEE7CommandEv
        BL       _ZN15EPDDriver4inch2IL_Z15spi1TransceiverE3PinI4PortI5GPIOBELh13EES0_IS3_Lh14EES0_IS3_Lh15EES0_IS3_Lh1EEE7CommandEv
        LDR.N    R6,??SendCommand_0
        MOVS     R1,#+0
        MOVS     R0,R6
          CFI FunCall _ZN9SpiDriverI4spi1E20SetReceivedMesLengthEj
        BL       _ZN9SpiDriverI4spi1E20SetReceivedMesLengthEj
        MOVS     R1,R5
        UXTB     R1,R1            ;; ZeroExt  R1,R1,#+24,#+24
        MOVS     R0,R6
          CFI FunCall _ZN9SpiDriverI4spi1E8SendByteEc
        BL       _ZN9SpiDriverI4spi1E8SendByteEc
??SendCommand_1:
        MOVS     R0,R6
          CFI FunCall _ZN9SpiDriverI4spi1E19IsMessageTransmitedEv
        BL       _ZN9SpiDriverI4spi1E19IsMessageTransmitedEv
        CMP      R0,#+0
        BEQ.N    ??SendCommand_1
        MOVS     R0,R4
          CFI FunCall _ZN15EPDDriver4inch2IL_Z15spi1TransceiverE3PinI4PortI5GPIOBELh13EES0_IS3_Lh14EES0_IS3_Lh15EES0_IS3_Lh1EEE15CircuitDeselectEv
        BL       _ZN15EPDDriver4inch2IL_Z15spi1TransceiverE3PinI4PortI5GPIOBELh13EES0_IS3_Lh14EES0_IS3_Lh15EES0_IS3_Lh1EEE15CircuitDeselectEv
        POP      {R4-R6,PC}       ;; return
        DATA
??SendCommand_0:
        DATA32
        DC32     spi1Transceiver
          CFI EndBlock cfiBlock289

        SECTION `.text`:CODE:REORDER:NOROOT(1)
        SECTION_GROUP _ZN15EPDDriver4inch2IL_Z15spi1TransceiverE3PinI4PortI5GPIOBELh13EES0_IS3_Lh14EES0_IS3_Lh15EES0_IS3_Lh1EEE8ReadBusyEv
          CFI Block cfiBlock290 Using cfiCommon0
          CFI Function _ZN15EPDDriver4inch2IL_Z15spi1TransceiverE3PinI4PortI5GPIOBELh13EES0_IS3_Lh14EES0_IS3_Lh15EES0_IS3_Lh1EEE8ReadBusyEv
        THUMB
// __interwork __vfp void EPDDriver4inch2<spi1Transceiver, PinCSforEPD, PinDCforEPD, PinRSTforEPD, PinBSYforEPD>::ReadBusy()
_ZN15EPDDriver4inch2IL_Z15spi1TransceiverE3PinI4PortI5GPIOBELh13EES0_IS3_Lh14EES0_IS3_Lh15EES0_IS3_Lh1EEE8ReadBusyEv:
        PUSH     {R4,LR}
          CFI R14 Frame(CFA, -4)
          CFI R4 Frame(CFA, -8)
          CFI CFA R13+8
        MOVS     R4,R0
        MOVS     R1,#+113
        MOVS     R0,R4
          CFI FunCall _ZN15EPDDriver4inch2IL_Z15spi1TransceiverE3PinI4PortI5GPIOBELh13EES0_IS3_Lh14EES0_IS3_Lh15EES0_IS3_Lh1EEE11SendCommandEc
        BL       _ZN15EPDDriver4inch2IL_Z15spi1TransceiverE3PinI4PortI5GPIOBELh13EES0_IS3_Lh14EES0_IS3_Lh15EES0_IS3_Lh1EEE11SendCommandEc
??ReadBusy_0:
          CFI FunCall _ZN3PinI4PortI5GPIOBELh1EE5IsSetEv
        BL       _ZN3PinI4PortI5GPIOBELh1EE5IsSetEv
        CMP      R0,#+0
        BNE.N    ??ReadBusy_1
        MOVS     R1,#+113
        MOVS     R0,R4
          CFI FunCall _ZN15EPDDriver4inch2IL_Z15spi1TransceiverE3PinI4PortI5GPIOBELh13EES0_IS3_Lh14EES0_IS3_Lh15EES0_IS3_Lh1EEE11SendCommandEc
        BL       _ZN15EPDDriver4inch2IL_Z15spi1TransceiverE3PinI4PortI5GPIOBELh13EES0_IS3_Lh14EES0_IS3_Lh15EES0_IS3_Lh1EEE11SendCommandEc
        MOVS     R2,#+100
        MOVS     R3,#+0
        MOVS     R0,R4
          CFI FunCall _ZN15EPDDriver4inch2IL_Z15spi1TransceiverE3PinI4PortI5GPIOBELh13EES0_IS3_Lh14EES0_IS3_Lh15EES0_IS3_Lh1EEE8Delay_msEy
        BL       _ZN15EPDDriver4inch2IL_Z15spi1TransceiverE3PinI4PortI5GPIOBELh13EES0_IS3_Lh14EES0_IS3_Lh15EES0_IS3_Lh1EEE8Delay_msEy
        B.N      ??ReadBusy_0
??ReadBusy_1:
        POP      {R4,PC}          ;; return
          CFI EndBlock cfiBlock290

        SECTION `.text`:CODE:REORDER:NOROOT(1)
        SECTION_GROUP _ZN15EPDDriver4inch2IL_Z15spi1TransceiverE3PinI4PortI5GPIOBELh13EES0_IS3_Lh14EES0_IS3_Lh15EES0_IS3_Lh1EEE13TurnOnDisplayEv
          CFI Block cfiBlock291 Using cfiCommon0
          CFI Function _ZN15EPDDriver4inch2IL_Z15spi1TransceiverE3PinI4PortI5GPIOBELh13EES0_IS3_Lh14EES0_IS3_Lh15EES0_IS3_Lh1EEE13TurnOnDisplayEv
        THUMB
// __interwork __vfp void EPDDriver4inch2<spi1Transceiver, PinCSforEPD, PinDCforEPD, PinRSTforEPD, PinBSYforEPD>::TurnOnDisplay()
_ZN15EPDDriver4inch2IL_Z15spi1TransceiverE3PinI4PortI5GPIOBELh13EES0_IS3_Lh14EES0_IS3_Lh15EES0_IS3_Lh1EEE13TurnOnDisplayEv:
        PUSH     {R4,LR}
          CFI R14 Frame(CFA, -4)
          CFI R4 Frame(CFA, -8)
          CFI CFA R13+8
        MOVS     R4,R0
        MOVS     R1,#+18
        MOVS     R0,R4
          CFI FunCall _ZN15EPDDriver4inch2IL_Z15spi1TransceiverE3PinI4PortI5GPIOBELh13EES0_IS3_Lh14EES0_IS3_Lh15EES0_IS3_Lh1EEE11SendCommandEc
        BL       _ZN15EPDDriver4inch2IL_Z15spi1TransceiverE3PinI4PortI5GPIOBELh13EES0_IS3_Lh14EES0_IS3_Lh15EES0_IS3_Lh1EEE11SendCommandEc
        MOVS     R2,#+100
        MOVS     R3,#+0
        MOVS     R0,R4
          CFI FunCall _ZN15EPDDriver4inch2IL_Z15spi1TransceiverE3PinI4PortI5GPIOBELh13EES0_IS3_Lh14EES0_IS3_Lh15EES0_IS3_Lh1EEE8Delay_msEy
        BL       _ZN15EPDDriver4inch2IL_Z15spi1TransceiverE3PinI4PortI5GPIOBELh13EES0_IS3_Lh14EES0_IS3_Lh15EES0_IS3_Lh1EEE8Delay_msEy
        MOVS     R0,R4
          CFI FunCall _ZN15EPDDriver4inch2IL_Z15spi1TransceiverE3PinI4PortI5GPIOBELh13EES0_IS3_Lh14EES0_IS3_Lh15EES0_IS3_Lh1EEE8ReadBusyEv
        BL       _ZN15EPDDriver4inch2IL_Z15spi1TransceiverE3PinI4PortI5GPIOBELh13EES0_IS3_Lh14EES0_IS3_Lh15EES0_IS3_Lh1EEE8ReadBusyEv
        POP      {R4,PC}          ;; return
          CFI EndBlock cfiBlock291

        SECTION `.text`:CODE:REORDER:NOROOT(1)
        SECTION_GROUP _ZN15EPDDriver4inch2IL_Z15spi1TransceiverE3PinI4PortI5GPIOBELh13EES0_IS3_Lh14EES0_IS3_Lh15EES0_IS3_Lh1EEE5ResetEv
          CFI Block cfiBlock292 Using cfiCommon0
          CFI Function _ZN15EPDDriver4inch2IL_Z15spi1TransceiverE3PinI4PortI5GPIOBELh13EES0_IS3_Lh14EES0_IS3_Lh15EES0_IS3_Lh1EEE5ResetEv
        THUMB
// __interwork __vfp void EPDDriver4inch2<spi1Transceiver, PinCSforEPD, PinDCforEPD, PinRSTforEPD, PinBSYforEPD>::Reset()
_ZN15EPDDriver4inch2IL_Z15spi1TransceiverE3PinI4PortI5GPIOBELh13EES0_IS3_Lh14EES0_IS3_Lh15EES0_IS3_Lh1EEE5ResetEv:
        PUSH     {R4,LR}
          CFI R14 Frame(CFA, -4)
          CFI R4 Frame(CFA, -8)
          CFI CFA R13+8
        MOVS     R4,R0
          CFI FunCall _ZN3PinI4PortI5GPIOBELh15EE3SetEv
        BL       _ZN3PinI4PortI5GPIOBELh15EE3SetEv
        MOVS     R2,#+20
        MOVS     R3,#+0
        MOVS     R0,R4
          CFI FunCall _ZN15EPDDriver4inch2IL_Z15spi1TransceiverE3PinI4PortI5GPIOBELh13EES0_IS3_Lh14EES0_IS3_Lh15EES0_IS3_Lh1EEE8Delay_msEy
        BL       _ZN15EPDDriver4inch2IL_Z15spi1TransceiverE3PinI4PortI5GPIOBELh13EES0_IS3_Lh14EES0_IS3_Lh15EES0_IS3_Lh1EEE8Delay_msEy
          CFI FunCall _ZN3PinI4PortI5GPIOBELh15EE5ResetEv
        BL       _ZN3PinI4PortI5GPIOBELh15EE5ResetEv
        MOVS     R2,#+2
        MOVS     R3,#+0
        MOVS     R0,R4
          CFI FunCall _ZN15EPDDriver4inch2IL_Z15spi1TransceiverE3PinI4PortI5GPIOBELh13EES0_IS3_Lh14EES0_IS3_Lh15EES0_IS3_Lh1EEE8Delay_msEy
        BL       _ZN15EPDDriver4inch2IL_Z15spi1TransceiverE3PinI4PortI5GPIOBELh13EES0_IS3_Lh14EES0_IS3_Lh15EES0_IS3_Lh1EEE8Delay_msEy
          CFI FunCall _ZN3PinI4PortI5GPIOBELh15EE3SetEv
        BL       _ZN3PinI4PortI5GPIOBELh15EE3SetEv
        MOVS     R2,#+20
        MOVS     R3,#+0
        MOVS     R0,R4
          CFI FunCall _ZN15EPDDriver4inch2IL_Z15spi1TransceiverE3PinI4PortI5GPIOBELh13EES0_IS3_Lh14EES0_IS3_Lh15EES0_IS3_Lh1EEE8Delay_msEy
        BL       _ZN15EPDDriver4inch2IL_Z15spi1TransceiverE3PinI4PortI5GPIOBELh13EES0_IS3_Lh14EES0_IS3_Lh15EES0_IS3_Lh1EEE8Delay_msEy
          CFI FunCall _ZN3PinI4PortI5GPIOBELh15EE5ResetEv
        BL       _ZN3PinI4PortI5GPIOBELh15EE5ResetEv
        MOVS     R2,#+2
        MOVS     R3,#+0
        MOVS     R0,R4
          CFI FunCall _ZN15EPDDriver4inch2IL_Z15spi1TransceiverE3PinI4PortI5GPIOBELh13EES0_IS3_Lh14EES0_IS3_Lh15EES0_IS3_Lh1EEE8Delay_msEy
        BL       _ZN15EPDDriver4inch2IL_Z15spi1TransceiverE3PinI4PortI5GPIOBELh13EES0_IS3_Lh14EES0_IS3_Lh15EES0_IS3_Lh1EEE8Delay_msEy
          CFI FunCall _ZN3PinI4PortI5GPIOBELh15EE3SetEv
        BL       _ZN3PinI4PortI5GPIOBELh15EE3SetEv
        MOVS     R2,#+20
        MOVS     R3,#+0
        MOVS     R0,R4
          CFI FunCall _ZN15EPDDriver4inch2IL_Z15spi1TransceiverE3PinI4PortI5GPIOBELh13EES0_IS3_Lh14EES0_IS3_Lh15EES0_IS3_Lh1EEE8Delay_msEy
        BL       _ZN15EPDDriver4inch2IL_Z15spi1TransceiverE3PinI4PortI5GPIOBELh13EES0_IS3_Lh14EES0_IS3_Lh15EES0_IS3_Lh1EEE8Delay_msEy
          CFI FunCall _ZN3PinI4PortI5GPIOBELh15EE5ResetEv
        BL       _ZN3PinI4PortI5GPIOBELh15EE5ResetEv
        MOVS     R2,#+2
        MOVS     R3,#+0
        MOVS     R0,R4
          CFI FunCall _ZN15EPDDriver4inch2IL_Z15spi1TransceiverE3PinI4PortI5GPIOBELh13EES0_IS3_Lh14EES0_IS3_Lh15EES0_IS3_Lh1EEE8Delay_msEy
        BL       _ZN15EPDDriver4inch2IL_Z15spi1TransceiverE3PinI4PortI5GPIOBELh13EES0_IS3_Lh14EES0_IS3_Lh15EES0_IS3_Lh1EEE8Delay_msEy
          CFI FunCall _ZN3PinI4PortI5GPIOBELh15EE3SetEv
        BL       _ZN3PinI4PortI5GPIOBELh15EE3SetEv
        MOVS     R2,#+20
        MOVS     R3,#+0
        MOVS     R0,R4
          CFI FunCall _ZN15EPDDriver4inch2IL_Z15spi1TransceiverE3PinI4PortI5GPIOBELh13EES0_IS3_Lh14EES0_IS3_Lh15EES0_IS3_Lh1EEE8Delay_msEy
        BL       _ZN15EPDDriver4inch2IL_Z15spi1TransceiverE3PinI4PortI5GPIOBELh13EES0_IS3_Lh14EES0_IS3_Lh15EES0_IS3_Lh1EEE8Delay_msEy
        POP      {R4,PC}          ;; return
          CFI EndBlock cfiBlock292

        SECTION `.text`:CODE:REORDER:NOROOT(1)
        SECTION_GROUP _ZN15EPDDriver4inch2IL_Z15spi1TransceiverE3PinI4PortI5GPIOBELh13EES0_IS3_Lh14EES0_IS3_Lh15EES0_IS3_Lh1EEE4InitEv
          CFI Block cfiBlock293 Using cfiCommon0
          CFI Function _ZN15EPDDriver4inch2IL_Z15spi1TransceiverE3PinI4PortI5GPIOBELh13EES0_IS3_Lh14EES0_IS3_Lh15EES0_IS3_Lh1EEE4InitEv
        THUMB
// __interwork __vfp void EPDDriver4inch2<spi1Transceiver, PinCSforEPD, PinDCforEPD, PinRSTforEPD, PinBSYforEPD>::Init()
_ZN15EPDDriver4inch2IL_Z15spi1TransceiverE3PinI4PortI5GPIOBELh13EES0_IS3_Lh14EES0_IS3_Lh15EES0_IS3_Lh1EEE4InitEv:
        PUSH     {R4,LR}
          CFI R14 Frame(CFA, -4)
          CFI R4 Frame(CFA, -8)
          CFI CFA R13+8
        MOVS     R4,R0
        MOVS     R0,R4
          CFI FunCall _ZN15EPDDriver4inch2IL_Z15spi1TransceiverE3PinI4PortI5GPIOBELh13EES0_IS3_Lh14EES0_IS3_Lh15EES0_IS3_Lh1EEE5ResetEv
        BL       _ZN15EPDDriver4inch2IL_Z15spi1TransceiverE3PinI4PortI5GPIOBELh13EES0_IS3_Lh14EES0_IS3_Lh15EES0_IS3_Lh1EEE5ResetEv
        MOVS     R1,#+1
        MOVS     R0,R4
          CFI FunCall _ZN15EPDDriver4inch2IL_Z15spi1TransceiverE3PinI4PortI5GPIOBELh13EES0_IS3_Lh14EES0_IS3_Lh15EES0_IS3_Lh1EEE11SendCommandEc
        BL       _ZN15EPDDriver4inch2IL_Z15spi1TransceiverE3PinI4PortI5GPIOBELh13EES0_IS3_Lh14EES0_IS3_Lh15EES0_IS3_Lh1EEE11SendCommandEc
        MOVS     R1,#+3
        MOVS     R0,R4
          CFI FunCall _ZN15EPDDriver4inch2IL_Z15spi1TransceiverE3PinI4PortI5GPIOBELh13EES0_IS3_Lh14EES0_IS3_Lh15EES0_IS3_Lh1EEE8SendDataEc
        BL       _ZN15EPDDriver4inch2IL_Z15spi1TransceiverE3PinI4PortI5GPIOBELh13EES0_IS3_Lh14EES0_IS3_Lh15EES0_IS3_Lh1EEE8SendDataEc
        MOVS     R1,#+0
        MOVS     R0,R4
          CFI FunCall _ZN15EPDDriver4inch2IL_Z15spi1TransceiverE3PinI4PortI5GPIOBELh13EES0_IS3_Lh14EES0_IS3_Lh15EES0_IS3_Lh1EEE8SendDataEc
        BL       _ZN15EPDDriver4inch2IL_Z15spi1TransceiverE3PinI4PortI5GPIOBELh13EES0_IS3_Lh14EES0_IS3_Lh15EES0_IS3_Lh1EEE8SendDataEc
        MOVS     R1,#+43
        MOVS     R0,R4
          CFI FunCall _ZN15EPDDriver4inch2IL_Z15spi1TransceiverE3PinI4PortI5GPIOBELh13EES0_IS3_Lh14EES0_IS3_Lh15EES0_IS3_Lh1EEE8SendDataEc
        BL       _ZN15EPDDriver4inch2IL_Z15spi1TransceiverE3PinI4PortI5GPIOBELh13EES0_IS3_Lh14EES0_IS3_Lh15EES0_IS3_Lh1EEE8SendDataEc
        MOVS     R1,#+43
        MOVS     R0,R4
          CFI FunCall _ZN15EPDDriver4inch2IL_Z15spi1TransceiverE3PinI4PortI5GPIOBELh13EES0_IS3_Lh14EES0_IS3_Lh15EES0_IS3_Lh1EEE8SendDataEc
        BL       _ZN15EPDDriver4inch2IL_Z15spi1TransceiverE3PinI4PortI5GPIOBELh13EES0_IS3_Lh14EES0_IS3_Lh15EES0_IS3_Lh1EEE8SendDataEc
        MOVS     R1,#+6
        MOVS     R0,R4
          CFI FunCall _ZN15EPDDriver4inch2IL_Z15spi1TransceiverE3PinI4PortI5GPIOBELh13EES0_IS3_Lh14EES0_IS3_Lh15EES0_IS3_Lh1EEE11SendCommandEc
        BL       _ZN15EPDDriver4inch2IL_Z15spi1TransceiverE3PinI4PortI5GPIOBELh13EES0_IS3_Lh14EES0_IS3_Lh15EES0_IS3_Lh1EEE11SendCommandEc
        MOVS     R1,#+23
        MOVS     R0,R4
          CFI FunCall _ZN15EPDDriver4inch2IL_Z15spi1TransceiverE3PinI4PortI5GPIOBELh13EES0_IS3_Lh14EES0_IS3_Lh15EES0_IS3_Lh1EEE8SendDataEc
        BL       _ZN15EPDDriver4inch2IL_Z15spi1TransceiverE3PinI4PortI5GPIOBELh13EES0_IS3_Lh14EES0_IS3_Lh15EES0_IS3_Lh1EEE8SendDataEc
        MOVS     R1,#+23
        MOVS     R0,R4
          CFI FunCall _ZN15EPDDriver4inch2IL_Z15spi1TransceiverE3PinI4PortI5GPIOBELh13EES0_IS3_Lh14EES0_IS3_Lh15EES0_IS3_Lh1EEE8SendDataEc
        BL       _ZN15EPDDriver4inch2IL_Z15spi1TransceiverE3PinI4PortI5GPIOBELh13EES0_IS3_Lh14EES0_IS3_Lh15EES0_IS3_Lh1EEE8SendDataEc
        MOVS     R1,#+23
        MOVS     R0,R4
          CFI FunCall _ZN15EPDDriver4inch2IL_Z15spi1TransceiverE3PinI4PortI5GPIOBELh13EES0_IS3_Lh14EES0_IS3_Lh15EES0_IS3_Lh1EEE8SendDataEc
        BL       _ZN15EPDDriver4inch2IL_Z15spi1TransceiverE3PinI4PortI5GPIOBELh13EES0_IS3_Lh14EES0_IS3_Lh15EES0_IS3_Lh1EEE8SendDataEc
        MOVS     R1,#+4
        MOVS     R0,R4
          CFI FunCall _ZN15EPDDriver4inch2IL_Z15spi1TransceiverE3PinI4PortI5GPIOBELh13EES0_IS3_Lh14EES0_IS3_Lh15EES0_IS3_Lh1EEE11SendCommandEc
        BL       _ZN15EPDDriver4inch2IL_Z15spi1TransceiverE3PinI4PortI5GPIOBELh13EES0_IS3_Lh14EES0_IS3_Lh15EES0_IS3_Lh1EEE11SendCommandEc
        MOVS     R0,R4
          CFI FunCall _ZN15EPDDriver4inch2IL_Z15spi1TransceiverE3PinI4PortI5GPIOBELh13EES0_IS3_Lh14EES0_IS3_Lh15EES0_IS3_Lh1EEE8ReadBusyEv
        BL       _ZN15EPDDriver4inch2IL_Z15spi1TransceiverE3PinI4PortI5GPIOBELh13EES0_IS3_Lh14EES0_IS3_Lh15EES0_IS3_Lh1EEE8ReadBusyEv
        MOVS     R1,#+0
        MOVS     R0,R4
          CFI FunCall _ZN15EPDDriver4inch2IL_Z15spi1TransceiverE3PinI4PortI5GPIOBELh13EES0_IS3_Lh14EES0_IS3_Lh15EES0_IS3_Lh1EEE11SendCommandEc
        BL       _ZN15EPDDriver4inch2IL_Z15spi1TransceiverE3PinI4PortI5GPIOBELh13EES0_IS3_Lh14EES0_IS3_Lh15EES0_IS3_Lh1EEE11SendCommandEc
        MOVS     R1,#+191
        MOVS     R0,R4
          CFI FunCall _ZN15EPDDriver4inch2IL_Z15spi1TransceiverE3PinI4PortI5GPIOBELh13EES0_IS3_Lh14EES0_IS3_Lh15EES0_IS3_Lh1EEE8SendDataEc
        BL       _ZN15EPDDriver4inch2IL_Z15spi1TransceiverE3PinI4PortI5GPIOBELh13EES0_IS3_Lh14EES0_IS3_Lh15EES0_IS3_Lh1EEE8SendDataEc
        MOVS     R1,#+13
        MOVS     R0,R4
          CFI FunCall _ZN15EPDDriver4inch2IL_Z15spi1TransceiverE3PinI4PortI5GPIOBELh13EES0_IS3_Lh14EES0_IS3_Lh15EES0_IS3_Lh1EEE8SendDataEc
        BL       _ZN15EPDDriver4inch2IL_Z15spi1TransceiverE3PinI4PortI5GPIOBELh13EES0_IS3_Lh14EES0_IS3_Lh15EES0_IS3_Lh1EEE8SendDataEc
        MOVS     R1,#+48
        MOVS     R0,R4
          CFI FunCall _ZN15EPDDriver4inch2IL_Z15spi1TransceiverE3PinI4PortI5GPIOBELh13EES0_IS3_Lh14EES0_IS3_Lh15EES0_IS3_Lh1EEE11SendCommandEc
        BL       _ZN15EPDDriver4inch2IL_Z15spi1TransceiverE3PinI4PortI5GPIOBELh13EES0_IS3_Lh14EES0_IS3_Lh15EES0_IS3_Lh1EEE11SendCommandEc
        MOVS     R1,#+60
        MOVS     R0,R4
          CFI FunCall _ZN15EPDDriver4inch2IL_Z15spi1TransceiverE3PinI4PortI5GPIOBELh13EES0_IS3_Lh14EES0_IS3_Lh15EES0_IS3_Lh1EEE8SendDataEc
        BL       _ZN15EPDDriver4inch2IL_Z15spi1TransceiverE3PinI4PortI5GPIOBELh13EES0_IS3_Lh14EES0_IS3_Lh15EES0_IS3_Lh1EEE8SendDataEc
        MOVS     R1,#+97
        MOVS     R0,R4
          CFI FunCall _ZN15EPDDriver4inch2IL_Z15spi1TransceiverE3PinI4PortI5GPIOBELh13EES0_IS3_Lh14EES0_IS3_Lh15EES0_IS3_Lh1EEE11SendCommandEc
        BL       _ZN15EPDDriver4inch2IL_Z15spi1TransceiverE3PinI4PortI5GPIOBELh13EES0_IS3_Lh14EES0_IS3_Lh15EES0_IS3_Lh1EEE11SendCommandEc
        MOVS     R1,#+1
        MOVS     R0,R4
          CFI FunCall _ZN15EPDDriver4inch2IL_Z15spi1TransceiverE3PinI4PortI5GPIOBELh13EES0_IS3_Lh14EES0_IS3_Lh15EES0_IS3_Lh1EEE8SendDataEc
        BL       _ZN15EPDDriver4inch2IL_Z15spi1TransceiverE3PinI4PortI5GPIOBELh13EES0_IS3_Lh14EES0_IS3_Lh15EES0_IS3_Lh1EEE8SendDataEc
        MOVS     R1,#+144
        MOVS     R0,R4
          CFI FunCall _ZN15EPDDriver4inch2IL_Z15spi1TransceiverE3PinI4PortI5GPIOBELh13EES0_IS3_Lh14EES0_IS3_Lh15EES0_IS3_Lh1EEE8SendDataEc
        BL       _ZN15EPDDriver4inch2IL_Z15spi1TransceiverE3PinI4PortI5GPIOBELh13EES0_IS3_Lh14EES0_IS3_Lh15EES0_IS3_Lh1EEE8SendDataEc
        MOVS     R1,#+1
        MOVS     R0,R4
          CFI FunCall _ZN15EPDDriver4inch2IL_Z15spi1TransceiverE3PinI4PortI5GPIOBELh13EES0_IS3_Lh14EES0_IS3_Lh15EES0_IS3_Lh1EEE8SendDataEc
        BL       _ZN15EPDDriver4inch2IL_Z15spi1TransceiverE3PinI4PortI5GPIOBELh13EES0_IS3_Lh14EES0_IS3_Lh15EES0_IS3_Lh1EEE8SendDataEc
        MOVS     R1,#+44
        MOVS     R0,R4
          CFI FunCall _ZN15EPDDriver4inch2IL_Z15spi1TransceiverE3PinI4PortI5GPIOBELh13EES0_IS3_Lh14EES0_IS3_Lh15EES0_IS3_Lh1EEE8SendDataEc
        BL       _ZN15EPDDriver4inch2IL_Z15spi1TransceiverE3PinI4PortI5GPIOBELh13EES0_IS3_Lh14EES0_IS3_Lh15EES0_IS3_Lh1EEE8SendDataEc
        MOVS     R1,#+130
        MOVS     R0,R4
          CFI FunCall _ZN15EPDDriver4inch2IL_Z15spi1TransceiverE3PinI4PortI5GPIOBELh13EES0_IS3_Lh14EES0_IS3_Lh15EES0_IS3_Lh1EEE11SendCommandEc
        BL       _ZN15EPDDriver4inch2IL_Z15spi1TransceiverE3PinI4PortI5GPIOBELh13EES0_IS3_Lh14EES0_IS3_Lh15EES0_IS3_Lh1EEE11SendCommandEc
        MOVS     R1,#+40
        MOVS     R0,R4
          CFI FunCall _ZN15EPDDriver4inch2IL_Z15spi1TransceiverE3PinI4PortI5GPIOBELh13EES0_IS3_Lh14EES0_IS3_Lh15EES0_IS3_Lh1EEE8SendDataEc
        BL       _ZN15EPDDriver4inch2IL_Z15spi1TransceiverE3PinI4PortI5GPIOBELh13EES0_IS3_Lh14EES0_IS3_Lh15EES0_IS3_Lh1EEE8SendDataEc
        MOVS     R1,#+80
        MOVS     R0,R4
          CFI FunCall _ZN15EPDDriver4inch2IL_Z15spi1TransceiverE3PinI4PortI5GPIOBELh13EES0_IS3_Lh14EES0_IS3_Lh15EES0_IS3_Lh1EEE11SendCommandEc
        BL       _ZN15EPDDriver4inch2IL_Z15spi1TransceiverE3PinI4PortI5GPIOBELh13EES0_IS3_Lh14EES0_IS3_Lh15EES0_IS3_Lh1EEE11SendCommandEc
        MOVS     R1,#+151
        MOVS     R0,R4
          CFI FunCall _ZN15EPDDriver4inch2IL_Z15spi1TransceiverE3PinI4PortI5GPIOBELh13EES0_IS3_Lh14EES0_IS3_Lh15EES0_IS3_Lh1EEE8SendDataEc
        BL       _ZN15EPDDriver4inch2IL_Z15spi1TransceiverE3PinI4PortI5GPIOBELh13EES0_IS3_Lh14EES0_IS3_Lh15EES0_IS3_Lh1EEE8SendDataEc
        POP      {R4,PC}          ;; return
          CFI EndBlock cfiBlock293

        SECTION `.text`:CODE:REORDER:NOROOT(1)
        SECTION_GROUP _ZN15EPDDriver4inch2IL_Z15spi1TransceiverE3PinI4PortI5GPIOBELh13EES0_IS3_Lh14EES0_IS3_Lh15EES0_IS3_Lh1EEE5ClearEv
          CFI Block cfiBlock294 Using cfiCommon0
          CFI Function _ZN15EPDDriver4inch2IL_Z15spi1TransceiverE3PinI4PortI5GPIOBELh13EES0_IS3_Lh14EES0_IS3_Lh15EES0_IS3_Lh1EEE5ClearEv
        THUMB
// __interwork __vfp void EPDDriver4inch2<spi1Transceiver, PinCSforEPD, PinDCforEPD, PinRSTforEPD, PinBSYforEPD>::Clear()
_ZN15EPDDriver4inch2IL_Z15spi1TransceiverE3PinI4PortI5GPIOBELh13EES0_IS3_Lh14EES0_IS3_Lh15EES0_IS3_Lh1EEE5ClearEv:
        PUSH     {R4-R8,LR}
          CFI R14 Frame(CFA, -4)
          CFI R8 Frame(CFA, -8)
          CFI R7 Frame(CFA, -12)
          CFI R6 Frame(CFA, -16)
          CFI R5 Frame(CFA, -20)
          CFI R4 Frame(CFA, -24)
          CFI CFA R13+24
        MOVS     R4,R0
        MOVS     R5,#+50
        MOV      R6,#+300
        MOVS     R1,#+16
        MOVS     R0,R4
          CFI FunCall _ZN15EPDDriver4inch2IL_Z15spi1TransceiverE3PinI4PortI5GPIOBELh13EES0_IS3_Lh14EES0_IS3_Lh15EES0_IS3_Lh1EEE11SendCommandEc
        BL       _ZN15EPDDriver4inch2IL_Z15spi1TransceiverE3PinI4PortI5GPIOBELh13EES0_IS3_Lh14EES0_IS3_Lh15EES0_IS3_Lh1EEE11SendCommandEc
        MOVS     R7,#+0
??Clear_0:
        MOVS     R0,R7
        MOVS     R1,R6
        UXTH     R0,R0            ;; ZeroExt  R0,R0,#+16,#+16
        UXTH     R1,R1            ;; ZeroExt  R1,R1,#+16,#+16
        CMP      R0,R1
        BCS.N    ??Clear_1
        MOVS     R8,#+0
??Clear_2:
        MOV      R0,R8
        MOVS     R1,R5
        UXTH     R0,R0            ;; ZeroExt  R0,R0,#+16,#+16
        UXTH     R1,R1            ;; ZeroExt  R1,R1,#+16,#+16
        CMP      R0,R1
        BCS.N    ??Clear_3
        MOVS     R1,#+255
        MOVS     R0,R4
          CFI FunCall _ZN15EPDDriver4inch2IL_Z15spi1TransceiverE3PinI4PortI5GPIOBELh13EES0_IS3_Lh14EES0_IS3_Lh15EES0_IS3_Lh1EEE8SendDataEc
        BL       _ZN15EPDDriver4inch2IL_Z15spi1TransceiverE3PinI4PortI5GPIOBELh13EES0_IS3_Lh14EES0_IS3_Lh15EES0_IS3_Lh1EEE8SendDataEc
        ADDS     R8,R8,#+1
        B.N      ??Clear_2
??Clear_3:
        ADDS     R7,R7,#+1
        B.N      ??Clear_0
??Clear_1:
        MOVS     R1,#+19
        MOVS     R0,R4
          CFI FunCall _ZN15EPDDriver4inch2IL_Z15spi1TransceiverE3PinI4PortI5GPIOBELh13EES0_IS3_Lh14EES0_IS3_Lh15EES0_IS3_Lh1EEE11SendCommandEc
        BL       _ZN15EPDDriver4inch2IL_Z15spi1TransceiverE3PinI4PortI5GPIOBELh13EES0_IS3_Lh14EES0_IS3_Lh15EES0_IS3_Lh1EEE11SendCommandEc
        MOVS     R7,#+0
??Clear_4:
        MOVS     R0,R7
        MOVS     R1,R6
        UXTH     R0,R0            ;; ZeroExt  R0,R0,#+16,#+16
        UXTH     R1,R1            ;; ZeroExt  R1,R1,#+16,#+16
        CMP      R0,R1
        BCS.N    ??Clear_5
        MOVS     R8,#+0
??Clear_6:
        MOV      R0,R8
        MOVS     R1,R5
        UXTH     R0,R0            ;; ZeroExt  R0,R0,#+16,#+16
        UXTH     R1,R1            ;; ZeroExt  R1,R1,#+16,#+16
        CMP      R0,R1
        BCS.N    ??Clear_7
        MOVS     R1,#+255
        MOVS     R0,R4
          CFI FunCall _ZN15EPDDriver4inch2IL_Z15spi1TransceiverE3PinI4PortI5GPIOBELh13EES0_IS3_Lh14EES0_IS3_Lh15EES0_IS3_Lh1EEE8SendDataEc
        BL       _ZN15EPDDriver4inch2IL_Z15spi1TransceiverE3PinI4PortI5GPIOBELh13EES0_IS3_Lh14EES0_IS3_Lh15EES0_IS3_Lh1EEE8SendDataEc
        ADDS     R8,R8,#+1
        B.N      ??Clear_6
??Clear_7:
        ADDS     R7,R7,#+1
        B.N      ??Clear_4
??Clear_5:
        MOVS     R1,#+18
        MOVS     R0,R4
          CFI FunCall _ZN15EPDDriver4inch2IL_Z15spi1TransceiverE3PinI4PortI5GPIOBELh13EES0_IS3_Lh14EES0_IS3_Lh15EES0_IS3_Lh1EEE11SendCommandEc
        BL       _ZN15EPDDriver4inch2IL_Z15spi1TransceiverE3PinI4PortI5GPIOBELh13EES0_IS3_Lh14EES0_IS3_Lh15EES0_IS3_Lh1EEE11SendCommandEc
        MOVS     R2,#+10
        MOVS     R3,#+0
        MOVS     R0,R4
          CFI FunCall _ZN15EPDDriver4inch2IL_Z15spi1TransceiverE3PinI4PortI5GPIOBELh13EES0_IS3_Lh14EES0_IS3_Lh15EES0_IS3_Lh1EEE8Delay_msEy
        BL       _ZN15EPDDriver4inch2IL_Z15spi1TransceiverE3PinI4PortI5GPIOBELh13EES0_IS3_Lh14EES0_IS3_Lh15EES0_IS3_Lh1EEE8Delay_msEy
        MOVS     R0,R4
          CFI FunCall _ZN15EPDDriver4inch2IL_Z15spi1TransceiverE3PinI4PortI5GPIOBELh13EES0_IS3_Lh14EES0_IS3_Lh15EES0_IS3_Lh1EEE13TurnOnDisplayEv
        BL       _ZN15EPDDriver4inch2IL_Z15spi1TransceiverE3PinI4PortI5GPIOBELh13EES0_IS3_Lh14EES0_IS3_Lh15EES0_IS3_Lh1EEE13TurnOnDisplayEv
        POP      {R4-R8,PC}       ;; return
          CFI EndBlock cfiBlock294

        SECTION `.iar_vfe_vtableinfo_ZTV11Measurement`:DATA:NOALLOC:NOROOT(2)
        SECTION_TYPE SHT_PROGBITS, 0
        SECTION_GROUP _ZTV11Measurement
        DATA
        DC32    _ZTV11Measurement
        DC32    4
        DC32    1
        DC32    _ZTI11Measurement
        DC32    1
        DC32    2
        DC32    0

        SECTION `.iar_vfe_vtableinfo_ZTV11Temperature`:DATA:NOALLOC:NOROOT(2)
        SECTION_TYPE SHT_PROGBITS, 0
        SECTION_GROUP _ZTV11Temperature
        DATA
        DC32    _ZTV11Temperature
        DC32    4
        DC32    2
        DC32    _ZTI11Measurement
        DC32    0
        DC32    1
        DC32    _ZTI11Temperature
        DC32    1
        DC32    2
        DC32    0
        DC32    _ZTI11Temperature
        DC32    1
        DC32    2
        DC32    0

        SECTION `.iar_vfe_vtableinfo_ZTV13BluetoothTask`:DATA:NOALLOC:NOROOT(2)
        SECTION_TYPE SHT_PROGBITS, 0
        SECTION_GROUP _ZTV13BluetoothTask
        DATA
        DC32    _ZTV13BluetoothTask
        DC32    3
        DC32    3
        DC32    _ZTI13BluetoothTask
        DC32    1
        DC32    2
        DC32    0
        DC32    _ZTIN9OsWrapper6ThreadILj400EEE
        DC32    0
        DC32    1
        DC32    _ZTI13BluetoothTask
        DC32    1
        DC32    2
        DC32    0
        DC32    _ZTIN9OsWrapper7IThreadE
        DC32    0
        DC32    1
        DC32    _ZTIN9OsWrapper6ThreadILj400EEE
        DC32    0
        DC32    1
        DC32    _ZTI13BluetoothTask
        DC32    1
        DC32    2
        DC32    0

        SECTION `.iar_vfe_vtableinfo_ZTV15MeasurementTask`:DATA:NOALLOC:NOROOT(2)
        SECTION_TYPE SHT_PROGBITS, 0
        SECTION_GROUP _ZTV15MeasurementTask
        DATA
        DC32    _ZTV15MeasurementTask
        DC32    3
        DC32    3
        DC32    _ZTI15MeasurementTask
        DC32    1
        DC32    2
        DC32    0
        DC32    _ZTIN9OsWrapper6ThreadILj128EEE
        DC32    0
        DC32    1
        DC32    _ZTI15MeasurementTask
        DC32    1
        DC32    2
        DC32    0
        DC32    _ZTIN9OsWrapper7IThreadE
        DC32    0
        DC32    1
        DC32    _ZTIN9OsWrapper6ThreadILj128EEE
        DC32    0
        DC32    1
        DC32    _ZTI15MeasurementTask
        DC32    1
        DC32    2
        DC32    0

        SECTION `.iar_vfe_vtableinfo_ZTV16Exh001ActionBase`:DATA:NOALLOC:NOROOT(2)
        SECTION_TYPE SHT_PROGBITS, 0
        SECTION_GROUP _ZTV16Exh001ActionBase
        DATA
        DC32    _ZTV16Exh001ActionBase
        DC32    3
        DC32    2
        DC32    _ZTI16Exh001ActionBase
        DC32    1
        DC32    2
        DC32    0
        DC32    _ZTI6Action
        DC32    0
        DC32    1
        DC32    _ZTI16Exh001ActionBase
        DC32    1
        DC32    2
        DC32    0

        SECTION `.iar_vfe_vtableinfo_ZTV15ButtonEventTaskI6ButtonI3PinI4PortI5GPIOCELh13EEEL_Z5eventEE`:DATA:NOALLOC:NOROOT(2)
        SECTION_TYPE SHT_PROGBITS, 0
        SECTION_GROUP _ZTV15ButtonEventTaskI6ButtonI3PinI4PortI5GPIOCELh13EEEL_Z5eventEE
        DATA
        DC32    _ZTV15ButtonEventTaskI6ButtonI3PinI4PortI5GPIOCELh13EEEL_Z5eventEE
        DC32    3
        DC32    3
        DC32    _ZTI15ButtonEventTaskI6ButtonI3PinI4PortI5GPIOCELh13EEEL_Z5eventEE
        DC32    1
        DC32    2
        DC32    0
        DC32    _ZTIN9OsWrapper6ThreadILj128EEE
        DC32    0
        DC32    1
        DC32    _ZTI15ButtonEventTaskI6ButtonI3PinI4PortI5GPIOCELh13EEEL_Z5eventEE
        DC32    1
        DC32    2
        DC32    0
        DC32    _ZTIN9OsWrapper7IThreadE
        DC32    0
        DC32    1
        DC32    _ZTIN9OsWrapper6ThreadILj128EEE
        DC32    0
        DC32    1
        DC32    _ZTI15ButtonEventTaskI6ButtonI3PinI4PortI5GPIOCELh13EEEL_Z5eventEE
        DC32    1
        DC32    2
        DC32    0

        SECTION `.init_array`:CODE:ROOT(2)
        SECTION_TYPE SHT_INIT_ARRAY, 0
        DATA
        DC32    RELOC_ARM_TARGET1 __sti__routine

        SECTION `.iar_vfe_vcallinfo_ZN9OsWrapper7IThread3RunEv`:DATA:NOALLOC:NOROOT(2)
        SECTION_TYPE SHT_PROGBITS, 0
        SECTION_GROUP _ZN9OsWrapper7IThread3RunEv
        DATA
        DC32    _ZN9OsWrapper7IThread3RunEv
        DC32    0
        DC32    0
        DC32    1
        DC32    _ZTIN9OsWrapper7IThreadE
        DC32    1
        DC32    1
        DC32    0
        DC32    0

        SECTION `.iar_vfe_vcallinfo_ZN11Temperature8GetValueE4Unit`:DATA:NOALLOC:NOROOT(2)
        SECTION_TYPE SHT_PROGBITS, 0
        SECTION_GROUP _ZN11Temperature8GetValueE4Unit
        DATA
        DC32    _ZN11Temperature8GetValueE4Unit
        DC32    0
        DC32    0
        DC32    1
        DC32    _ZTI11Temperature
        DC32    1
        DC32    1
        DC32    0
        DC32    0

        SECTION `.iar_vfe_vcallinfo_ZN13BluetoothTask7ExecuteEv`:DATA:NOALLOC:NOROOT(2)
        SECTION_TYPE SHT_PROGBITS, 0
        SECTION_GROUP _ZN13BluetoothTask7ExecuteEv
        DATA
        DC32    _ZN13BluetoothTask7ExecuteEv
        DC32    0
        DC32    0
        DC32    1
        DC32    _ZTI11Measurement
        DC32    1
        DC32    2
        DC32    0
        DC32    0

        SECTION `.iar_vfe_header`:DATA:NOALLOC:NOROOT(2)
        SECTION_TYPE SHT_PROGBITS, 0
        DATA
        DC32 0

        END
// 
// 5'312 bytes in section .bss
//   872 bytes in section .data
//     4 bytes in section .init_array
// 1'768 bytes in section .rodata
// 9'268 bytes in section .text
// 
//   838 bytes of CODE  memory (+ 8'434 bytes shared)
//   129 bytes of CONST memory (+ 1'639 bytes shared)
// 2'968 bytes of DATA  memory (+ 3'216 bytes shared)
//
//Errors: none
//Warnings: 2
